ARM GAS  /tmp/ccSuvgbr.s 			page 1


   1              		.syntax unified
   2              		.cpu cortex-m3
   3              		.fpu softvfp
   4              		.eabi_attribute 20, 1
   5              		.eabi_attribute 21, 1
   6              		.eabi_attribute 23, 3
   7              		.eabi_attribute 24, 1
   8              		.eabi_attribute 25, 1
   9              		.eabi_attribute 26, 1
  10              		.eabi_attribute 30, 6
  11              		.eabi_attribute 34, 1
  12              		.eabi_attribute 18, 4
  13              		.thumb
  14              		.file	"bluetooth_rxtx.c"
  15              		.text
  16              	.Ltext0:
  17              		.cfi_sections	.debug_frame
  18              		.data
  19              		.align	2
  22              	iap_entry:
  23 0000 F11FFF1F 		.word	536813553
  24              		.comm	target,16,8
  25              		.comm	syncword,8,8
  26              		.comm	afh_enabled,1,1
  27              		.comm	afh_map,10,4
  28              		.section	.rodata
  29              		.align	2
  32              	advertising_channels:
  33 0000 00       		.byte	0
  34 0001 0C       		.byte	12
  35 0002 27       		.byte	39
  36 0003 00       		.align	2
  39              	data_channels:
  40 0004 01       		.byte	1
  41 0005 02       		.byte	2
  42 0006 03       		.byte	3
  43 0007 04       		.byte	4
  44 0008 05       		.byte	5
  45 0009 06       		.byte	6
  46 000a 07       		.byte	7
  47 000b 08       		.byte	8
  48 000c 09       		.byte	9
  49 000d 0A       		.byte	10
  50 000e 0B       		.byte	11
  51 000f 0D       		.byte	13
  52 0010 0E       		.byte	14
  53 0011 0F       		.byte	15
  54 0012 10       		.byte	16
  55 0013 11       		.byte	17
  56 0014 12       		.byte	18
  57 0015 13       		.byte	19
  58 0016 14       		.byte	20
  59 0017 15       		.byte	21
  60 0018 16       		.byte	22
  61 0019 17       		.byte	23
  62 001a 18       		.byte	24
  63 001b 19       		.byte	25
ARM GAS  /tmp/ccSuvgbr.s 			page 2


  64 001c 1A       		.byte	26
  65 001d 1B       		.byte	27
  66 001e 1C       		.byte	28
  67 001f 1D       		.byte	29
  68 0020 1E       		.byte	30
  69 0021 1F       		.byte	31
  70 0022 20       		.byte	32
  71 0023 21       		.byte	33
  72 0024 22       		.byte	34
  73 0025 23       		.byte	35
  74 0026 24       		.byte	36
  75 0027 25       		.byte	37
  76 0028 26       		.byte	38
  77 0029 000000   		.align	2
  80              	whitening:
  81 002c 01       		.byte	1
  82 002d 01       		.byte	1
  83 002e 01       		.byte	1
  84 002f 01       		.byte	1
  85 0030 00       		.byte	0
  86 0031 01       		.byte	1
  87 0032 00       		.byte	0
  88 0033 01       		.byte	1
  89 0034 00       		.byte	0
  90 0035 01       		.byte	1
  91 0036 00       		.byte	0
  92 0037 00       		.byte	0
  93 0038 00       		.byte	0
  94 0039 00       		.byte	0
  95 003a 01       		.byte	1
  96 003b 00       		.byte	0
  97 003c 01       		.byte	1
  98 003d 01       		.byte	1
  99 003e 00       		.byte	0
 100 003f 01       		.byte	1
 101 0040 01       		.byte	1
 102 0041 01       		.byte	1
 103 0042 01       		.byte	1
 104 0043 00       		.byte	0
 105 0044 00       		.byte	0
 106 0045 01       		.byte	1
 107 0046 01       		.byte	1
 108 0047 01       		.byte	1
 109 0048 00       		.byte	0
 110 0049 00       		.byte	0
 111 004a 01       		.byte	1
 112 004b 00       		.byte	0
 113 004c 01       		.byte	1
 114 004d 00       		.byte	0
 115 004e 01       		.byte	1
 116 004f 01       		.byte	1
 117 0050 00       		.byte	0
 118 0051 00       		.byte	0
 119 0052 01       		.byte	1
 120 0053 01       		.byte	1
 121 0054 00       		.byte	0
 122 0055 00       		.byte	0
ARM GAS  /tmp/ccSuvgbr.s 			page 3


 123 0056 00       		.byte	0
 124 0057 00       		.byte	0
 125 0058 00       		.byte	0
 126 0059 01       		.byte	1
 127 005a 01       		.byte	1
 128 005b 00       		.byte	0
 129 005c 01       		.byte	1
 130 005d 01       		.byte	1
 131 005e 00       		.byte	0
 132 005f 01       		.byte	1
 133 0060 00       		.byte	0
 134 0061 01       		.byte	1
 135 0062 01       		.byte	1
 136 0063 01       		.byte	1
 137 0064 00       		.byte	0
 138 0065 01       		.byte	1
 139 0066 00       		.byte	0
 140 0067 00       		.byte	0
 141 0068 00       		.byte	0
 142 0069 01       		.byte	1
 143 006a 01       		.byte	1
 144 006b 00       		.byte	0
 145 006c 00       		.byte	0
 146 006d 01       		.byte	1
 147 006e 00       		.byte	0
 148 006f 00       		.byte	0
 149 0070 00       		.byte	0
 150 0071 01       		.byte	1
 151 0072 00       		.byte	0
 152 0073 00       		.byte	0
 153 0074 00       		.byte	0
 154 0075 00       		.byte	0
 155 0076 00       		.byte	0
 156 0077 00       		.byte	0
 157 0078 01       		.byte	1
 158 0079 00       		.byte	0
 159 007a 00       		.byte	0
 160 007b 01       		.byte	1
 161 007c 00       		.byte	0
 162 007d 00       		.byte	0
 163 007e 01       		.byte	1
 164 007f 01       		.byte	1
 165 0080 00       		.byte	0
 166 0081 01       		.byte	1
 167 0082 00       		.byte	0
 168 0083 00       		.byte	0
 169 0084 01       		.byte	1
 170 0085 01       		.byte	1
 171 0086 01       		.byte	1
 172 0087 01       		.byte	1
 173 0088 00       		.byte	0
 174 0089 01       		.byte	1
 175 008a 01       		.byte	1
 176 008b 01       		.byte	1
 177 008c 00       		.byte	0
 178 008d 00       		.byte	0
 179 008e 00       		.byte	0
ARM GAS  /tmp/ccSuvgbr.s 			page 4


 180 008f 00       		.byte	0
 181 0090 01       		.byte	1
 182 0091 01       		.byte	1
 183 0092 01       		.byte	1
 184 0093 01       		.byte	1
 185 0094 01       		.byte	1
 186 0095 01       		.byte	1
 187 0096 01       		.byte	1
 188 0097 00       		.byte	0
 189 0098 00       		.byte	0
 190 0099 00       		.byte	0
 191 009a 01       		.byte	1
 192 009b 01       		.byte	1
 193 009c 01       		.byte	1
 194 009d 00       		.byte	0
 195 009e 01       		.byte	1
 196 009f 01       		.byte	1
 197 00a0 00       		.byte	0
 198 00a1 00       		.byte	0
 199 00a2 00       		.byte	0
 200 00a3 01       		.byte	1
 201 00a4 00       		.byte	0
 202 00a5 01       		.byte	1
 203 00a6 00       		.byte	0
 204 00a7 00       		.byte	0
 205 00a8 01       		.byte	1
 206 00a9 00       		.byte	0
 207 00aa 01       		.byte	1
 208 00ab 00       		.align	2
 211              	whitening_index:
 212 00ac 46       		.byte	70
 213 00ad 3E       		.byte	62
 214 00ae 78       		.byte	120
 215 00af 6F       		.byte	111
 216 00b0 4D       		.byte	77
 217 00b1 2E       		.byte	46
 218 00b2 0F       		.byte	15
 219 00b3 65       		.byte	101
 220 00b4 42       		.byte	66
 221 00b5 27       		.byte	39
 222 00b6 1F       		.byte	31
 223 00b7 1A       		.byte	26
 224 00b8 50       		.byte	80
 225 00b9 53       		.byte	83
 226 00ba 7D       		.byte	125
 227 00bb 59       		.byte	89
 228 00bc 0A       		.byte	10
 229 00bd 23       		.byte	35
 230 00be 08       		.byte	8
 231 00bf 36       		.byte	54
 232 00c0 7A       		.byte	122
 233 00c1 11       		.byte	17
 234 00c2 21       		.byte	33
 235 00c3 00       		.byte	0
 236 00c4 3A       		.byte	58
 237 00c5 73       		.byte	115
 238 00c6 06       		.byte	6
ARM GAS  /tmp/ccSuvgbr.s 			page 5


 239 00c7 5E       		.byte	94
 240 00c8 56       		.byte	86
 241 00c9 31       		.byte	49
 242 00ca 34       		.byte	52
 243 00cb 14       		.byte	20
 244 00cc 28       		.byte	40
 245 00cd 1B       		.byte	27
 246 00ce 54       		.byte	84
 247 00cf 5A       		.byte	90
 248 00d0 3F       		.byte	63
 249 00d1 70       		.byte	112
 250 00d2 2F       		.byte	47
 251 00d3 66       		.byte	102
 252              		.align	2
 255              	hop_interval_lut:
 256 00d4 00       		.byte	0
 257 00d5 01       		.byte	1
 258 00d6 13       		.byte	19
 259 00d7 19       		.byte	25
 260 00d8 1C       		.byte	28
 261 00d9 0F       		.byte	15
 262 00da 1F       		.byte	31
 263 00db 10       		.byte	16
 264 00dc 0E       		.byte	14
 265 00dd 21       		.byte	33
 266 00de 1A       		.byte	26
 267 00df 1B       		.byte	27
 268 00e0 22       		.byte	34
 269 00e1 14       		.byte	20
 270 00e2 08       		.byte	8
 271 00e3 05       		.byte	5
 272 00e4 07       		.byte	7
 273 00e5 18       		.byte	24
 274 00e6 23       		.byte	35
 275 00e7 02       		.byte	2
 276 00e8 0D       		.byte	13
 277 00e9 1E       		.byte	30
 278 00ea 20       		.byte	32
 279 00eb 1D       		.byte	29
 280 00ec 11       		.byte	17
 281 00ed 03       		.byte	3
 282 00ee 0A       		.byte	10
 283 00ef 0B       		.byte	11
 284 00f0 04       		.byte	4
 285 00f1 17       		.byte	23
 286 00f2 15       		.byte	21
 287 00f3 06       		.byte	6
 288 00f4 16       		.byte	22
 289 00f5 09       		.byte	9
 290 00f6 0C       		.byte	12
 291 00f7 12       		.byte	18
 292 00f8 24       		.byte	36
 293 00f9 000000   		.align	2
 296              	whitening_word:
 297 00fc 40B2BCC3 		.word	-1011043776
 298 0100 1F374A5F 		.word	1598699295
 299 0104 85F69C9A 		.word	-1700989307
ARM GAS  /tmp/ccSuvgbr.s 			page 6


 300 0108 C1D6C544 		.word	1153816257
 301 010c 2059DEE1 		.word	-505521888
 302 0110 8F1BA5AF 		.word	-1348134001
 303 0114 427B4ECD 		.word	-850494654
 304 0118 60EB6222 		.word	576908128
 305 011c 902CEFF0 		.word	-252760944
 306 0120 C78DD257 		.word	1473416647
 307 0124 A13DA766 		.word	1722236321
 308 0128 B0753111 		.word	288454064
 309 012c 8940B2BC 		.word	-1129168759
 310 0130 C31F374A 		.word	1245126595
 311 0134 5F85F69C 		.word	-1661565601
 312 0138 9AC1D6C5 		.word	-975781478
 313 013c 442059DE 		.word	-564584380
 314 0140 E18F1BA5 		.word	-1524920351
 315 0144 AF427B4E 		.word	1316700847
 316 0148 CD60EB62 		.word	1659592909
 317 014c 22902CEF 		.word	-282292190
 318 0150 F0C78DD2 		.word	-762460176
 319 0154 57A13DA7 		.word	-1489133225
 320 0158 66B07531 		.word	829796454
 321 015c D257A13D 		.word	1033983954
 322 0160 A766B075 		.word	1974494887
 323 0164 31114896 		.word	-1773661903
 324 0168 77F8E346 		.word	1189345399
 325 016c E9ABD09E 		.word	-1630491671
 326 0170 5333D8BA 		.word	-1160236205
 327 0174 980824CB 		.word	-886830952
 328 0178 3BFC71A3 		.word	-1552810949
 329 017c F45568CF 		.word	-815245836
 330 0180 A9196C5D 		.word	1567365545
 331 0184 4C0492E5 		.word	-443415476
 332 0188 1DFEB851 		.word	1371078173
 333 018c 1BA5AF42 		.word	1118807323
 334 0190 7B4ECD60 		.word	1624067707
 335 0194 EB622290 		.word	-1876794645
 336 0198 2CEFF0C7 		.word	-940511444
 337 019c 8DD257A1 		.word	-1588079987
 338 01a0 3DA766B0 		.word	-1335449795
 339 01a4 75311148 		.word	1209086325
 340 01a8 9677F8E3 		.word	-470255722
 341 01ac 46E9ABD0 		.word	-794039994
 342 01b0 9E5333D8 		.word	-667724898
 343 01b4 BA980824 		.word	604543162
 344 01b8 CB3BFC71 		.word	1912355787
 345 01bc 6479873F 		.word	1065843044
 346 01c0 6E94BE0A 		.word	180261998
 347 01c4 ED393583 		.word	-2093663763
 348 01c8 AD8B8940 		.word	1082756013
 349 01cc B2BCC31F 		.word	532921522
 350 01d0 374A5F85 		.word	-2057352649
 351 01d4 F69C9AC1 		.word	-1046831882
 352 01d8 D6C54420 		.word	541378006
 353 01dc 59DEE18F 		.word	-1881022887
 354 01e0 1BA5AF42 		.word	1118807323
 355 01e4 7B4ECD60 		.word	1624067707
 356 01e8 EB622290 		.word	-1876794645
ARM GAS  /tmp/ccSuvgbr.s 			page 7


 357 01ec AD8B8940 		.word	1082756013
 358 01f0 B2BCC31F 		.word	532921522
 359 01f4 374A5F85 		.word	-2057352649
 360 01f8 F69C9AC1 		.word	-1046831882
 361 01fc D6C54420 		.word	541378006
 362 0200 59DEE18F 		.word	-1881022887
 363 0204 1BA5AF42 		.word	1118807323
 364 0208 7B4ECD60 		.word	1624067707
 365 020c EB622290 		.word	-1876794645
 366 0210 2CEFF0C7 		.word	-940511444
 367 0214 8DD257A1 		.word	-1588079987
 368 0218 3DA766B0 		.word	-1335449795
 369 021c F69C9AC1 		.word	-1046831882
 370 0220 D6C54420 		.word	541378006
 371 0224 59DEE18F 		.word	-1881022887
 372 0228 1BA5AF42 		.word	1118807323
 373 022c 7B4ECD60 		.word	1624067707
 374 0230 EB622290 		.word	-1876794645
 375 0234 2CEFF0C7 		.word	-940511444
 376 0238 8DD257A1 		.word	-1588079987
 377 023c 3DA766B0 		.word	-1335449795
 378 0240 75311148 		.word	1209086325
 379 0244 9677F8E3 		.word	-470255722
 380 0248 46E9ABD0 		.word	-794039994
 381 024c 3F6E94BE 		.word	-1097568705
 382 0250 0AED3935 		.word	892988682
 383 0254 83AD8B89 		.word	-1987334781
 384 0258 40B2BCC3 		.word	-1011043776
 385 025c 1F374A5F 		.word	1598699295
 386 0260 85F69C9A 		.word	-1700989307
 387 0264 C1D6C544 		.word	1153816257
 388 0268 2059DEE1 		.word	-505521888
 389 026c 8F1BA5AF 		.word	-1348134001
 390 0270 427B4ECD 		.word	-850494654
 391 0274 60EB6222 		.word	576908128
 392 0278 902CEFF0 		.word	-252760944
 393 027c 0824CB3B 		.word	1003168776
 394 0280 FC71A3F4 		.word	-190615044
 395 0284 5568CFA9 		.word	-1446025131
 396 0288 196C5D4C 		.word	1281190937
 397 028c 0492E51D 		.word	501584388
 398 0290 FEB851FA 		.word	-95307522
 399 0294 2AB4E7D4 		.word	-723012566
 400 0298 0CB62E26 		.word	640595468
 401 029c 02C9F20E 		.word	250792194
 402 02a0 7FDC287D 		.word	2099829887
 403 02a4 15DA736A 		.word	1785977365
 404 02a8 065B1713 		.word	320297734
 405 02ac C1D6C544 		.word	1153816257
 406 02b0 2059DEE1 		.word	-505521888
 407 02b4 8F1BA5AF 		.word	-1348134001
 408 02b8 427B4ECD 		.word	-850494654
 409 02bc 60EB6222 		.word	576908128
 410 02c0 902CEFF0 		.word	-252760944
 411 02c4 C78DD257 		.word	1473416647
 412 02c8 A13DA766 		.word	1722236321
 413 02cc B0753111 		.word	288454064
ARM GAS  /tmp/ccSuvgbr.s 			page 8


 414 02d0 489677F8 		.word	-126380472
 415 02d4 E346E9AB 		.word	-1410775325
 416 02d8 D09E5333 		.word	861118160
 417 02dc 9AC1D6C5 		.word	-975781478
 418 02e0 442059DE 		.word	-564584380
 419 02e4 E18F1BA5 		.word	-1524920351
 420 02e8 AF427B4E 		.word	1316700847
 421 02ec CD60EB62 		.word	1659592909
 422 02f0 22902CEF 		.word	-282292190
 423 02f4 F0C78DD2 		.word	-762460176
 424 02f8 57A13DA7 		.word	-1489133225
 425 02fc 66B07531 		.word	829796454
 426 0300 11489677 		.word	2006337553
 427 0304 F8E346E9 		.word	-381230088
 428 0308 ABD09E53 		.word	1402917035
 429 030c 5333D8BA 		.word	-1160236205
 430 0310 980824CB 		.word	-886830952
 431 0314 3BFC71A3 		.word	-1552810949
 432 0318 F45568CF 		.word	-815245836
 433 031c A9196C5D 		.word	1567365545
 434 0320 4C0492E5 		.word	-443415476
 435 0324 1DFEB851 		.word	1371078173
 436 0328 FA2AB4E7 		.word	-407622918
 437 032c D40CB62E 		.word	783682772
 438 0330 2602C9F2 		.word	-221707738
 439 0334 0E7FDC28 		.word	685539086
 440 0338 7D15DA73 		.word	1943672189
 441 033c 2CEFF0C7 		.word	-940511444
 442 0340 8DD257A1 		.word	-1588079987
 443 0344 3DA766B0 		.word	-1335449795
 444 0348 75311148 		.word	1209086325
 445 034c 9677F8E3 		.word	-470255722
 446 0350 46E9ABD0 		.word	-794039994
 447 0354 9E5333D8 		.word	-667724898
 448 0358 BA980824 		.word	604543162
 449 035c CB3BFC71 		.word	1912355787
 450 0360 A3F45568 		.word	1750463651
 451 0364 CFA9196C 		.word	1813621199
 452 0368 5D4C0492 		.word	-1845212067
 453 036c E51DFEB8 		.word	-1191305755
 454 0370 51FA2AB4 		.word	-1272251823
 455 0374 E7D40CB6 		.word	-1240673049
 456 0378 2E2602C9 		.word	-922606034
 457 037c F20E7FDC 		.word	-595652878
 458 0380 287D15DA 		.word	-636125912
 459 0384 736A065B 		.word	1527147123
 460 0388 17138164 		.word	1686180631
 461 038c 79873F6E 		.word	1849657209
 462 0390 94BE0AED 		.word	-318062956
 463 0394 393583AD 		.word	-1383910087
 464 0398 8B8940B2 		.word	-1304393333
 465 039c BE0AED39 		.word	971836094
 466 03a0 3583AD8B 		.word	-1951562955
 467 03a4 8940B2BC 		.word	-1129168759
 468 03a8 C31F374A 		.word	1245126595
 469 03ac 5F85F69C 		.word	-1661565601
 470 03b0 9AC1D6C5 		.word	-975781478
ARM GAS  /tmp/ccSuvgbr.s 			page 9


 471 03b4 442059DE 		.word	-564584380
 472 03b8 E18F1BA5 		.word	-1524920351
 473 03bc AF427B4E 		.word	1316700847
 474 03c0 CD60EB62 		.word	1659592909
 475 03c4 22902CEF 		.word	-282292190
 476 03c8 F0C78DD2 		.word	-762460176
 477 03cc 77F8E346 		.word	1189345399
 478 03d0 E9ABD09E 		.word	-1630491671
 479 03d4 5333D8BA 		.word	-1160236205
 480 03d8 980824CB 		.word	-886830952
 481 03dc 3BFC71A3 		.word	-1552810949
 482 03e0 F45568CF 		.word	-815245836
 483 03e4 A9196C5D 		.word	1567365545
 484 03e8 4C0492E5 		.word	-443415476
 485 03ec 1DFEB851 		.word	1371078173
 486 03f0 FA2AB4E7 		.word	-407622918
 487 03f4 D40CB62E 		.word	783682772
 488 03f8 2602C9F2 		.word	-221707738
 489 03fc D09E5333 		.word	861118160
 490 0400 D8BA9808 		.word	144227032
 491 0404 24CB3BFC 		.word	-63190236
 492 0408 71A3F455 		.word	1442095985
 493 040c 68CFA919 		.word	430559080
 494 0410 6C5D4C04 		.word	72113516
 495 0414 92E51DFE 		.word	-31595118
 496 0418 B851FA2A 		.word	721047992
 497 041c B4E7D40C 		.word	215279540
 498 0420 B62E2602 		.word	36056758
 499 0424 C9F20E7F 		.word	2131686089
 500 0428 DC287D15 		.word	360523996
 501 042c 196C5D4C 		.word	1281190937
 502 0430 0492E51D 		.word	501584388
 503 0434 FEB851FA 		.word	-95307522
 504 0438 2AB4E7D4 		.word	-723012566
 505 043c 0CB62E26 		.word	640595468
 506 0440 02C9F20E 		.word	250792194
 507 0444 7FDC287D 		.word	2099829887
 508 0448 15DA736A 		.word	1785977365
 509 044c 065B1713 		.word	320297734
 510 0450 81647987 		.word	-2022087551
 511 0454 3F6E94BE 		.word	-1097568705
 512 0458 0AED3935 		.word	892988682
 513 045c 427B4ECD 		.word	-850494654
 514 0460 60EB6222 		.word	576908128
 515 0464 902CEFF0 		.word	-252760944
 516 0468 C78DD257 		.word	1473416647
 517 046c A13DA766 		.word	1722236321
 518 0470 B0753111 		.word	288454064
 519 0474 489677F8 		.word	-126380472
 520 0478 E346E9AB 		.word	-1410775325
 521 047c D09E5333 		.word	861118160
 522 0480 D8BA9808 		.word	144227032
 523 0484 24CB3BFC 		.word	-63190236
 524 0488 71A3F455 		.word	1442095985
 525 048c 8B8940B2 		.word	-1304393333
 526 0490 BCC31F37 		.word	924828604
 527 0494 4A5F85F6 		.word	-159031478
ARM GAS  /tmp/ccSuvgbr.s 			page 10


 528 0498 9C9AC1D6 		.word	-691955044
 529 049c C5442059 		.word	1495286981
 530 04a0 DEE18F1B 		.word	462414302
 531 04a4 A5AF427B 		.word	2067967909
 532 04a8 4ECD60EB 		.word	-345977522
 533 04ac 6222902C 		.word	747643490
 534 04b0 EFF0C78D 		.word	-1916276497
 535 04b4 D257A13D 		.word	1033983954
 536 04b8 A766B075 		.word	1974494887
 537 04bc F45568CF 		.word	-815245836
 538 04c0 A9196C5D 		.word	1567365545
 539 04c4 4C0492E5 		.word	-443415476
 540 04c8 1DFEB851 		.word	1371078173
 541 04cc FA2AB4E7 		.word	-407622918
 542 04d0 D40CB62E 		.word	783682772
 543 04d4 2602C9F2 		.word	-221707738
 544 04d8 0E7FDC28 		.word	685539086
 545 04dc 7D15DA73 		.word	1943672189
 546 04e0 6A065B17 		.word	391841386
 547 04e4 13816479 		.word	2036629779
 548 04e8 873F6E94 		.word	-1804714105
 549 04ec 3DA766B0 		.word	-1335449795
 550 04f0 75311148 		.word	1209086325
 551 04f4 9677F8E3 		.word	-470255722
 552 04f8 46E9ABD0 		.word	-794039994
 553 04fc 9E5333D8 		.word	-667724898
 554 0500 BA980824 		.word	604543162
 555 0504 CB3BFC71 		.word	1912355787
 556 0508 A3F45568 		.word	1750463651
 557 050c CFA9196C 		.word	1813621199
 558 0510 5D4C0492 		.word	-1845212067
 559 0514 E51DFEB8 		.word	-1191305755
 560 0518 51FA2AB4 		.word	-1272251823
 561 051c 66B07531 		.word	829796454
 562 0520 11489677 		.word	2006337553
 563 0524 F8E346E9 		.word	-381230088
 564 0528 ABD09E53 		.word	1402917035
 565 052c 33D8BA98 		.word	-1732585421
 566 0530 0824CB3B 		.word	1003168776
 567 0534 FC71A3F4 		.word	-190615044
 568 0538 5568CFA9 		.word	-1446025131
 569 053c 196C5D4C 		.word	1281190937
 570 0540 0492E51D 		.word	501584388
 571 0544 FEB851FA 		.word	-95307522
 572 0548 2AB4E7D4 		.word	-723012566
 573 054c AF427B4E 		.word	1316700847
 574 0550 CD60EB62 		.word	1659592909
 575 0554 22902CEF 		.word	-282292190
 576 0558 F0C78DD2 		.word	-762460176
 577 055c 57A13DA7 		.word	-1489133225
 578 0560 66B07531 		.word	829796454
 579 0564 11489677 		.word	2006337553
 580 0568 F8E346E9 		.word	-381230088
 581 056c ABD09E53 		.word	1402917035
 582 0570 33D8BA98 		.word	-1732585421
 583 0574 0824CB3B 		.word	1003168776
 584 0578 FC71A3F4 		.word	-190615044
ARM GAS  /tmp/ccSuvgbr.s 			page 11


 585 057c 980824CB 		.word	-886830952
 586 0580 3BFC71A3 		.word	-1552810949
 587 0584 F45568CF 		.word	-815245836
 588 0588 A9196C5D 		.word	1567365545
 589 058c 4C0492E5 		.word	-443415476
 590 0590 1DFEB851 		.word	1371078173
 591 0594 FA2AB4E7 		.word	-407622918
 592 0598 D40CB62E 		.word	783682772
 593 059c 2602C9F2 		.word	-221707738
 594 05a0 0E7FDC28 		.word	685539086
 595 05a4 7D15DA73 		.word	1943672189
 596 05a8 6A065B17 		.word	391841386
 597 05ac 51FA2AB4 		.word	-1272251823
 598 05b0 E7D40CB6 		.word	-1240673049
 599 05b4 2E2602C9 		.word	-922606034
 600 05b8 F20E7FDC 		.word	-595652878
 601 05bc 287D15DA 		.word	-636125912
 602 05c0 736A065B 		.word	1527147123
 603 05c4 17138164 		.word	1686180631
 604 05c8 79873F6E 		.word	1849657209
 605 05cc 94BE0AED 		.word	-318062956
 606 05d0 393583AD 		.word	-1383910087
 607 05d4 8B8940B2 		.word	-1304393333
 608 05d8 BCC31F37 		.word	924828604
 609 05dc 0AED3935 		.word	892988682
 610 05e0 83AD8B89 		.word	-1987334781
 611 05e4 40B2BCC3 		.word	-1011043776
 612 05e8 1F374A5F 		.word	1598699295
 613 05ec 85F69C9A 		.word	-1700989307
 614 05f0 C1D6C544 		.word	1153816257
 615 05f4 2059DEE1 		.word	-505521888
 616 05f8 8F1BA5AF 		.word	-1348134001
 617 05fc 427B4ECD 		.word	-850494654
 618 0600 60EB6222 		.word	576908128
 619 0604 902CEFF0 		.word	-252760944
 620 0608 C78DD257 		.word	1473416647
 621 060c C31F374A 		.word	1245126595
 622 0610 5F85F69C 		.word	-1661565601
 623 0614 9AC1D6C5 		.word	-975781478
 624 0618 442059DE 		.word	-564584380
 625 061c E18F1BA5 		.word	-1524920351
 626 0620 AF427B4E 		.word	1316700847
 627 0624 CD60EB62 		.word	1659592909
 628 0628 22902CEF 		.word	-282292190
 629 062c F0C78DD2 		.word	-762460176
 630 0630 57A13DA7 		.word	-1489133225
 631 0634 66B07531 		.word	829796454
 632 0638 11489677 		.word	2006337553
 633 063c BCC31F37 		.word	924828604
 634 0640 4A5F85F6 		.word	-159031478
 635 0644 9C9AC1D6 		.word	-691955044
 636 0648 C5442059 		.word	1495286981
 637 064c DEE18F1B 		.word	462414302
 638 0650 A5AF427B 		.word	2067967909
 639 0654 4ECD60EB 		.word	-345977522
 640 0658 6222902C 		.word	747643490
 641 065c EFF0C78D 		.word	-1916276497
ARM GAS  /tmp/ccSuvgbr.s 			page 12


 642 0660 D257A13D 		.word	1033983954
 643 0664 A766B075 		.word	1974494887
 644 0668 31114896 		.word	-1773661903
 645 066c 75311148 		.word	1209086325
 646 0670 9677F8E3 		.word	-470255722
 647 0674 46E9ABD0 		.word	-794039994
 648 0678 9E5333D8 		.word	-667724898
 649 067c BA980824 		.word	604543162
 650 0680 CB3BFC71 		.word	1912355787
 651 0684 A3F45568 		.word	1750463651
 652 0688 CFA9196C 		.word	1813621199
 653 068c 5D4C0492 		.word	-1845212067
 654 0690 E51DFEB8 		.word	-1191305755
 655 0694 51FA2AB4 		.word	-1272251823
 656 0698 E7D40CB6 		.word	-1240673049
 657 069c 2E2602C9 		.word	-922606034
 658 06a0 F20E7FDC 		.word	-595652878
 659 06a4 287D15DA 		.word	-636125912
 660 06a8 736A065B 		.word	1527147123
 661 06ac 17138164 		.word	1686180631
 662 06b0 79873F6E 		.word	1849657209
 663 06b4 94BE0AED 		.word	-318062956
 664 06b8 393583AD 		.word	-1383910087
 665 06bc 8B8940B2 		.word	-1304393333
 666 06c0 BCC31F37 		.word	924828604
 667 06c4 4A5F85F6 		.word	-159031478
 668 06c8 9C9AC1D6 		.word	-691955044
 669 06cc E7D40CB6 		.word	-1240673049
 670 06d0 2E2602C9 		.word	-922606034
 671 06d4 F20E7FDC 		.word	-595652878
 672 06d8 287D15DA 		.word	-636125912
 673 06dc 736A065B 		.word	1527147123
 674 06e0 17138164 		.word	1686180631
 675 06e4 79873F6E 		.word	1849657209
 676 06e8 94BE0AED 		.word	-318062956
 677 06ec 393583AD 		.word	-1383910087
 678 06f0 8B8940B2 		.word	-1304393333
 679 06f4 BCC31F37 		.word	924828604
 680 06f8 4A5F85F6 		.word	-159031478
 681 06fc 60EB6222 		.word	576908128
 682 0700 902CEFF0 		.word	-252760944
 683 0704 C78DD257 		.word	1473416647
 684 0708 A13DA766 		.word	1722236321
 685 070c B0753111 		.word	288454064
 686 0710 489677F8 		.word	-126380472
 687 0714 E346E9AB 		.word	-1410775325
 688 0718 D09E5333 		.word	861118160
 689 071c D8BA9808 		.word	144227032
 690 0720 24CB3BFC 		.word	-63190236
 691 0724 71A3F455 		.word	1442095985
 692 0728 68CFA919 		.word	430559080
 693 072c A9196C5D 		.word	1567365545
 694 0730 4C0492E5 		.word	-443415476
 695 0734 1DFEB851 		.word	1371078173
 696 0738 FA2AB4E7 		.word	-407622918
 697 073c D40CB62E 		.word	783682772
 698 0740 2602C9F2 		.word	-221707738
ARM GAS  /tmp/ccSuvgbr.s 			page 13


 699 0744 0E7FDC28 		.word	685539086
 700 0748 7D15DA73 		.word	1943672189
 701 074c 6A065B17 		.word	391841386
 702 0750 13816479 		.word	2036629779
 703 0754 873F6E94 		.word	-1804714105
 704 0758 BE0AED39 		.word	971836094
 705 075c F20E7FDC 		.word	-595652878
 706 0760 287D15DA 		.word	-636125912
 707 0764 736A065B 		.word	1527147123
 708 0768 17138164 		.word	1686180631
 709 076c 79873F6E 		.word	1849657209
 710 0770 94BE0AED 		.word	-318062956
 711 0774 393583AD 		.word	-1383910087
 712 0778 8B8940B2 		.word	-1304393333
 713 077c BCC31F37 		.word	924828604
 714 0780 4A5F85F6 		.word	-159031478
 715 0784 9C9AC1D6 		.word	-691955044
 716 0788 C5442059 		.word	1495286981
 717 078c 3BFC71A3 		.word	-1552810949
 718 0790 F45568CF 		.word	-815245836
 719 0794 A9196C5D 		.word	1567365545
 720 0798 4C0492E5 		.word	-443415476
 721 079c 1DFEB851 		.word	1371078173
 722 07a0 FA2AB4E7 		.word	-407622918
 723 07a4 D40CB62E 		.word	783682772
 724 07a8 2602C9F2 		.word	-221707738
 725 07ac 0E7FDC28 		.word	685539086
 726 07b0 7D15DA73 		.word	1943672189
 727 07b4 6A065B17 		.word	391841386
 728 07b8 13816479 		.word	2036629779
 729 07bc 442059DE 		.word	-564584380
 730 07c0 E18F1BA5 		.word	-1524920351
 731 07c4 AF427B4E 		.word	1316700847
 732 07c8 CD60EB62 		.word	1659592909
 733 07cc 22902CEF 		.word	-282292190
 734 07d0 F0C78DD2 		.word	-762460176
 735 07d4 57A13DA7 		.word	-1489133225
 736 07d8 66B07531 		.word	829796454
 737 07dc 11489677 		.word	2006337553
 738 07e0 F8E346E9 		.word	-381230088
 739 07e4 ABD09E53 		.word	1402917035
 740 07e8 33D8BA98 		.word	-1732585421
 741 07ec 8DD257A1 		.word	-1588079987
 742 07f0 3DA766B0 		.word	-1335449795
 743 07f4 75311148 		.word	1209086325
 744 07f8 9677F8E3 		.word	-470255722
 745 07fc 46E9ABD0 		.word	-794039994
 746 0800 9E5333D8 		.word	-667724898
 747 0804 BA980824 		.word	604543162
 748 0808 CB3BFC71 		.word	1912355787
 749 080c A3F45568 		.word	1750463651
 750 0810 CFA9196C 		.word	1813621199
 751 0814 5D4C0492 		.word	-1845212067
 752 0818 E51DFEB8 		.word	-1191305755
 753 081c D6C54420 		.word	541378006
 754 0820 59DEE18F 		.word	-1881022887
 755 0824 1BA5AF42 		.word	1118807323
ARM GAS  /tmp/ccSuvgbr.s 			page 14


 756 0828 7B4ECD60 		.word	1624067707
 757 082c EB622290 		.word	-1876794645
 758 0830 2CEFF0C7 		.word	-940511444
 759 0834 8DD257A1 		.word	-1588079987
 760 0838 3DA766B0 		.word	-1335449795
 761 083c 75311148 		.word	1209086325
 762 0840 9677F8E3 		.word	-470255722
 763 0844 46E9ABD0 		.word	-794039994
 764 0848 9E5333D8 		.word	-667724898
 765 084c 1F374A5F 		.word	1598699295
 766 0850 85F69C9A 		.word	-1700989307
 767 0854 C1D6C544 		.word	1153816257
 768 0858 2059DEE1 		.word	-505521888
 769 085c 8F1BA5AF 		.word	-1348134001
 770 0860 427B4ECD 		.word	-850494654
 771 0864 60EB6222 		.word	576908128
 772 0868 902CEFF0 		.word	-252760944
 773 086c C78DD257 		.word	1473416647
 774 0870 A13DA766 		.word	1722236321
 775 0874 B0753111 		.word	288454064
 776 0878 489677F8 		.word	-126380472
 777              		.comm	rr,5,4
 778              		.global	compile_info
 779              		.align	2
 782              	compile_info:
 783 087c 75626572 		.ascii	"ubertooth 2015-10-R1 (root@weiping) Tue Apr 26 10:4"
 783      746F6F74 
 783      68203230 
 783      31352D31 
 783      302D5231 
 784 08af 383A3433 		.ascii	"8:43 KST 2016\000"
 784      204B5354 
 784      20323031 
 784      3600
 785              		.global	clkn
 786              		.bss
 787              		.align	2
 790              	clkn:
 791 0000 00000000 		.space	4
 792              		.global	last_hop
 793              		.align	2
 796              	last_hop:
 797 0004 00000000 		.space	4
 798              		.global	clkn_offset
 799              		.align	2
 802              	clkn_offset:
 803 0008 00000000 		.space	4
 804              		.global	clk100ns_offset
 805              		.align	1
 808              	clk100ns_offset:
 809 000c 0000     		.space	2
 810              		.global	hop_mode
 813              	hop_mode:
 814 000e 00       		.space	1
 815              		.global	do_hop
 818              	do_hop:
 819 000f 00       		.space	1
ARM GAS  /tmp/ccSuvgbr.s 			page 15


 820              		.global	dma_discard
 823              	dma_discard:
 824 0010 00       		.space	1
 825              		.global	cs_no_squelch
 828              	cs_no_squelch:
 829 0011 00       		.space	1
 830              		.global	cs_threshold_req
 831              		.data
 834              	cs_threshold_req:
 835 0004 88       		.byte	-120
 836              		.global	cs_threshold_cur
 839              	cs_threshold_cur:
 840 0005 88       		.byte	-120
 841              		.comm	cs_trigger,1,1
 842              		.global	hop_direct_channel
 843              		.bss
 844              		.align	1
 847              	hop_direct_channel:
 848 0012 0000     		.space	2
 849              		.comm	idle_buf_clkn_high,1,1
 850              		.comm	idle_buf_clk100ns,4,4
 851              		.global	idle_buf_channel
 852              		.align	1
 855              	idle_buf_channel:
 856 0014 0000     		.space	2
 857              		.global	slave_mac_address
 858 0016 0000     		.align	2
 861              	slave_mac_address:
 862 0018 00000000 		.space	6
 862      0000
 863              		.global	hop_timeout
 864              		.data
 865              		.align	1
 868              	hop_timeout:
 869 0006 9E00     		.short	158
 870              		.comm	rxbuf1,50,4
 871              		.comm	rxbuf2,50,4
 872              		.global	active_rxbuf
 873              		.align	2
 876              	active_rxbuf:
 877 0008 00000000 		.word	rxbuf1
 878              		.global	idle_rxbuf
 879              		.align	2
 882              	idle_rxbuf:
 883 000c 00000000 		.word	rxbuf2
 884              		.global	le
 885              		.align	2
 888              	le:
 889 0010 D6BE898E 		.word	-1903575338
 890 0014 7D6B     		.short	27517
 891 0016 7191     		.short	-28303
 892 0018 55555500 		.word	5592405
 893 001c AAAAAA00 		.word	11184810
 894 0020 01000000 		.word	1
 895 0024 00       		.byte	0
 896 0025 000000   		.space	3
 897 0028 00000000 		.word	0
ARM GAS  /tmp/ccSuvgbr.s 			page 16


 898 002c 00000000 		.space	32
 898      00000000 
 898      00000000 
 898      00000000 
 898      00000000 
 899 004c 00000000 		.word	0
 900 0050 00000000 		.word	0
 901              		.comm	le_promisc,264,4
 902              		.global	le_jam_count
 903              		.bss
 904 001e 0000     		.align	2
 907              	le_jam_count:
 908 0020 00000000 		.space	4
 909              		.global	data_cb
 910              		.align	2
 913              	data_cb:
 914 0024 00000000 		.space	4
 915              		.global	packet_cb
 916              		.align	2
 919              	packet_cb:
 920 0028 00000000 		.space	4
 921              		.global	rssi_iir
 922              		.align	2
 925              	rssi_iir:
 926 002c 00000000 		.space	158
 926      00000000 
 926      00000000 
 926      00000000 
 926      00000000 
 927              		.comm	unpacked,800,4
 928              		.global	mode
 931              	mode:
 932 00ca 00       		.space	1
 933              		.global	requested_mode
 936              	requested_mode:
 937 00cb 00       		.space	1
 938              		.global	jam_mode
 941              	jam_mode:
 942 00cc 00       		.space	1
 943              		.global	ego_mode
 946              	ego_mode:
 947 00cd 00       		.space	1
 948              		.global	modulation
 951              	modulation:
 952 00ce 00       		.space	1
 953              		.global	channel
 954              		.data
 955              		.align	1
 958              	channel:
 959 0054 8909     		.short	2441
 960              		.global	requested_channel
 961              		.bss
 962 00cf 00       		.align	1
 965              	requested_channel:
 966 00d0 0000     		.space	2
 967              		.global	saved_request
 968              		.align	1
ARM GAS  /tmp/ccSuvgbr.s 			page 17


 971              	saved_request:
 972 00d2 0000     		.space	2
 973              		.global	low_freq
 974              		.data
 975              		.align	1
 978              	low_freq:
 979 0056 6009     		.short	2400
 980              		.global	high_freq
 981              		.align	1
 984              	high_freq:
 985 0058 B309     		.short	2483
 986              		.global	rssi_threshold
 989              	rssi_threshold:
 990 005a E2       		.byte	-30
 991              		.comm	rx_dma_lli1,16,4
 992              		.comm	rx_dma_lli2,16,4
 993              		.comm	le_dma_lli,176,4
 994              		.comm	rx_tc,4,4
 995              		.comm	rx_err,4,4
 996              		.global	status
 997              		.bss
 1000              	status:
 1001 00d4 00       		.space	1
 1002              		.global	rssi_max
 1003              		.data
 1006              	rssi_max:
 1007 005b 7F       		.byte	127
 1008              		.global	rssi_min
 1011              	rssi_min:
 1012 005c 80       		.byte	-128
 1013              		.global	rssi_count
 1014              		.bss
 1017              	rssi_count:
 1018 00d5 00       		.space	1
 1019              		.global	rssi_sum
 1020 00d6 0000     		.align	2
 1023              	rssi_sum:
 1024 00d8 00000000 		.space	4
 1025              		.section	.text.rssi_reset,"ax",%progbits
 1026              		.align	2
 1027              		.thumb
 1028              		.thumb_func
 1030              	rssi_reset:
 1031              	.LFB0:
 1032              		.file 1 "bluetooth_rxtx.c"
   1:bluetooth_rxtx.c **** /*opyright 2010-2013 Michael Ossmann
   2:bluetooth_rxtx.c ****  * Copyright 2011-2013 Dominic Spill
   3:bluetooth_rxtx.c ****  *
   4:bluetooth_rxtx.c ****  * This file is part of Project Ubertooth.
   5:bluetooth_rxtx.c ****  *
   6:bluetooth_rxtx.c ****  * This program is free software; you can redistribute it and/or modify
   7:bluetooth_rxtx.c ****  * it under the terms of the GNU General Public License as published by
   8:bluetooth_rxtx.c ****  * the Free Software Foundation; either version 2, or (at your option)
   9:bluetooth_rxtx.c ****  * any later version.
  10:bluetooth_rxtx.c ****  *
  11:bluetooth_rxtx.c ****  * This program is distributed in the hope that it will be useful,
  12:bluetooth_rxtx.c ****  * but WITHOUT ANY WARRANTY; without even the implied warranty of
ARM GAS  /tmp/ccSuvgbr.s 			page 18


  13:bluetooth_rxtx.c ****  * MERCHANTABILITY or FITNESS FOR A PARTICULAR PURPOSE.  See the
  14:bluetooth_rxtx.c ****  * GNU General Public License for more details.
  15:bluetooth_rxtx.c ****  *
  16:bluetooth_rxtx.c ****  * You should have received a copy of the GNU General Public License
  17:bluetooth_rxtx.c ****  * along with this program; see the file COPYING.  If not, write to
  18:bluetooth_rxtx.c ****  * the Free Software Foundation, Inc., 51 Franklin Street,
  19:bluetooth_rxtx.c ****  * Boston, MA 02110-1301, USA.
  20:bluetooth_rxtx.c ****  */
  21:bluetooth_rxtx.c **** 
  22:bluetooth_rxtx.c **** #include <string.h>
  23:bluetooth_rxtx.c **** 
  24:bluetooth_rxtx.c **** #include "ubertooth.h"
  25:bluetooth_rxtx.c **** #include "ubertooth_usb.h"
  26:bluetooth_rxtx.c **** #include "ubertooth_interface.h"
  27:bluetooth_rxtx.c **** #include "bluetooth.h"
  28:bluetooth_rxtx.c **** #include "bluetooth_le.h"
  29:bluetooth_rxtx.c **** #include "cc2400_rangetest.h"
  30:bluetooth_rxtx.c **** #include "ego.h"
  31:bluetooth_rxtx.c **** 
  32:bluetooth_rxtx.c **** #define MIN(x,y)	((x)<(y)?(x):(y))
  33:bluetooth_rxtx.c **** #define MAX(x,y)	((x)>(y)?(x):(y))
  34:bluetooth_rxtx.c **** 
  35:bluetooth_rxtx.c **** /* build info */
  36:bluetooth_rxtx.c **** const char compile_info[] =
  37:bluetooth_rxtx.c **** 	"ubertooth " GIT_REVISION " (" COMPILE_BY "@" COMPILE_HOST ") " TIMESTAMP;
  38:bluetooth_rxtx.c **** 
  39:bluetooth_rxtx.c **** /*
  40:bluetooth_rxtx.c ****  * CLK100NS is a free-running clock with a period of 100 ns.  It resets every
  41:bluetooth_rxtx.c ****  * 2^15 * 10^5 cycles (about 5.5 minutes) - computed from clkn and timer0 (T0TC)
  42:bluetooth_rxtx.c ****  *
  43:bluetooth_rxtx.c ****  * clkn is the native (local) clock as defined in the Bluetooth specification.
  44:bluetooth_rxtx.c ****  * It advances 3200 times per second.  Two clkn periods make a Bluetooth time
  45:bluetooth_rxtx.c ****  * slot.
  46:bluetooth_rxtx.c ****  */
  47:bluetooth_rxtx.c **** 
  48:bluetooth_rxtx.c **** volatile uint32_t clkn = 0;                   // clkn 3200 Hz counter
  49:bluetooth_rxtx.c **** volatile uint32_t last_hop = 0;
  50:bluetooth_rxtx.c **** #define CLK100NS (3125*(clkn & 0xfffff) + T0TC)
  51:bluetooth_rxtx.c **** #define LE_BASECLK (12500)                    // 1.25 ms in units of 100ns
  52:bluetooth_rxtx.c **** volatile uint32_t clkn_offset = 0;
  53:bluetooth_rxtx.c **** volatile uint16_t clk100ns_offset = 0;
  54:bluetooth_rxtx.c **** 
  55:bluetooth_rxtx.c **** #define CS_THRESHOLD_DEFAULT (uint8_t)(-120)
  56:bluetooth_rxtx.c **** #define CS_HOLD_TIME  2                       // min pkts to send on trig (>=1)
  57:bluetooth_rxtx.c **** volatile uint8_t hop_mode = HOP_NONE;
  58:bluetooth_rxtx.c **** volatile uint8_t do_hop = 0;                  // set by timer interrupt
  59:bluetooth_rxtx.c **** 
  60:bluetooth_rxtx.c **** volatile uint8_t dma_discard = 0;
  61:bluetooth_rxtx.c **** uint8_t cs_no_squelch = 0;                    // rx all packets if set
  62:bluetooth_rxtx.c **** int8_t cs_threshold_req=CS_THRESHOLD_DEFAULT; // requested CS threshold in dBm
  63:bluetooth_rxtx.c **** int8_t cs_threshold_cur=CS_THRESHOLD_DEFAULT; // current CS threshold in dBm
  64:bluetooth_rxtx.c **** volatile uint8_t cs_trigger;                  // set by intr on P2.2 falling (CS)
  65:bluetooth_rxtx.c **** volatile uint16_t hop_direct_channel = 0;     // for hopping directly to a channel
  66:bluetooth_rxtx.c **** 
  67:bluetooth_rxtx.c **** volatile uint8_t  idle_buf_clkn_high;
  68:bluetooth_rxtx.c **** volatile uint32_t idle_buf_clk100ns;
  69:bluetooth_rxtx.c **** volatile uint16_t idle_buf_channel = 0;
ARM GAS  /tmp/ccSuvgbr.s 			page 19


  70:bluetooth_rxtx.c **** 
  71:bluetooth_rxtx.c **** uint8_t slave_mac_address[6] = { 0, };
  72:bluetooth_rxtx.c **** 
  73:bluetooth_rxtx.c **** volatile uint16_t hop_timeout = 158;
  74:bluetooth_rxtx.c **** 
  75:bluetooth_rxtx.c **** /* DMA buffers */
  76:bluetooth_rxtx.c **** volatile uint8_t rxbuf1[DMA_SIZE];
  77:bluetooth_rxtx.c **** volatile uint8_t rxbuf2[DMA_SIZE];
  78:bluetooth_rxtx.c **** 
  79:bluetooth_rxtx.c **** /*
  80:bluetooth_rxtx.c ****  * The active buffer is the one with an active DMA transfer.
  81:bluetooth_rxtx.c ****  * The idle buffer is the one we can read/write between transfers.
  82:bluetooth_rxtx.c ****  */
  83:bluetooth_rxtx.c **** volatile uint8_t* volatile active_rxbuf = &rxbuf1[0];
  84:bluetooth_rxtx.c **** volatile uint8_t* volatile idle_rxbuf = &rxbuf2[0];
  85:bluetooth_rxtx.c **** 
  86:bluetooth_rxtx.c **** le_state_t le = {
  87:bluetooth_rxtx.c **** 	.access_address = 0x8e89bed6,           // advertising channel access address
  88:bluetooth_rxtx.c **** 	.synch = 0x6b7d,                        // bit-reversed adv channel AA
  89:bluetooth_rxtx.c **** 	.syncl = 0x9171,
  90:bluetooth_rxtx.c **** 	.crc_init  = 0x555555,                  // advertising channel CRCInit
  91:bluetooth_rxtx.c **** 	.crc_init_reversed = 0xAAAAAA,
  92:bluetooth_rxtx.c **** 	.crc_verify = 1,
  93:bluetooth_rxtx.c **** 
  94:bluetooth_rxtx.c **** 	.link_state = LINK_INACTIVE,
  95:bluetooth_rxtx.c **** 	.conn_epoch = 0,
  96:bluetooth_rxtx.c **** 	.target_set = 0,
  97:bluetooth_rxtx.c **** 	.last_packet = 0,
  98:bluetooth_rxtx.c **** };
  99:bluetooth_rxtx.c **** 
 100:bluetooth_rxtx.c **** typedef struct _le_promisc_active_aa_t {
 101:bluetooth_rxtx.c **** 	u32 aa;
 102:bluetooth_rxtx.c **** 	int count;
 103:bluetooth_rxtx.c **** } le_promisc_active_aa_t;
 104:bluetooth_rxtx.c **** 
 105:bluetooth_rxtx.c **** typedef struct _le_promisc_state_t {
 106:bluetooth_rxtx.c **** 	// LFU cache of recently seen AA's
 107:bluetooth_rxtx.c **** 	le_promisc_active_aa_t active_aa[32];
 108:bluetooth_rxtx.c **** 
 109:bluetooth_rxtx.c **** 	// recovering hop interval
 110:bluetooth_rxtx.c **** 	u32 smallest_hop_interval;
 111:bluetooth_rxtx.c **** 	int consec_intervals;
 112:bluetooth_rxtx.c **** } le_promisc_state_t;
 113:bluetooth_rxtx.c **** le_promisc_state_t le_promisc;
 114:bluetooth_rxtx.c **** #define AA_LIST_SIZE (int)(sizeof(le_promisc.active_aa) / sizeof(le_promisc_active_aa_t))
 115:bluetooth_rxtx.c **** 
 116:bluetooth_rxtx.c **** /* LE jamming */
 117:bluetooth_rxtx.c **** #define JAM_COUNT_DEFAULT 40
 118:bluetooth_rxtx.c **** int le_jam_count = 0;
 119:bluetooth_rxtx.c **** 
 120:bluetooth_rxtx.c **** /* set LE access address */
 121:bluetooth_rxtx.c **** static void le_set_access_address(u32 aa);
 122:bluetooth_rxtx.c **** 
 123:bluetooth_rxtx.c **** typedef int (*data_cb_t)(char *);
 124:bluetooth_rxtx.c **** data_cb_t data_cb = NULL;
 125:bluetooth_rxtx.c **** 
 126:bluetooth_rxtx.c **** typedef void (*packet_cb_t)(u8 *);
ARM GAS  /tmp/ccSuvgbr.s 			page 20


 127:bluetooth_rxtx.c **** packet_cb_t packet_cb = NULL;
 128:bluetooth_rxtx.c **** 
 129:bluetooth_rxtx.c **** /* Moving average (IIR) of average RSSI of packets as scaled integers (x256). */
 130:bluetooth_rxtx.c **** int16_t rssi_iir[79] = {0};
 131:bluetooth_rxtx.c **** #define RSSI_IIR_ALPHA 3       // 3/256 = .012
 132:bluetooth_rxtx.c **** 
 133:bluetooth_rxtx.c **** /* Unpacked symbol buffers (two rxbufs) */
 134:bluetooth_rxtx.c **** char unpacked[DMA_SIZE*8*2];
 135:bluetooth_rxtx.c **** 
 136:bluetooth_rxtx.c **** volatile uint8_t mode = MODE_IDLE;
 137:bluetooth_rxtx.c **** volatile uint8_t requested_mode = MODE_IDLE;
 138:bluetooth_rxtx.c **** volatile uint8_t jam_mode = JAM_NONE;
 139:bluetooth_rxtx.c **** volatile uint8_t ego_mode = 0;
 140:bluetooth_rxtx.c **** volatile uint8_t modulation = MOD_BT_BASIC_RATE;
 141:bluetooth_rxtx.c **** volatile uint16_t channel = 2441;
 142:bluetooth_rxtx.c **** volatile uint16_t requested_channel = 0;
 143:bluetooth_rxtx.c **** volatile uint16_t saved_request = 0;
 144:bluetooth_rxtx.c **** volatile uint16_t low_freq = 2400;
 145:bluetooth_rxtx.c **** volatile uint16_t high_freq = 2483;
 146:bluetooth_rxtx.c **** volatile int8_t rssi_threshold = -30;  // -54dBm - 30 = -84dBm
 147:bluetooth_rxtx.c **** 
 148:bluetooth_rxtx.c **** /* DMA linked list items */
 149:bluetooth_rxtx.c **** typedef struct {
 150:bluetooth_rxtx.c **** 	u32 src;
 151:bluetooth_rxtx.c **** 	u32 dest;
 152:bluetooth_rxtx.c **** 	u32 next_lli;
 153:bluetooth_rxtx.c **** 	u32 control;
 154:bluetooth_rxtx.c **** } dma_lli;
 155:bluetooth_rxtx.c **** 
 156:bluetooth_rxtx.c **** dma_lli rx_dma_lli1;
 157:bluetooth_rxtx.c **** dma_lli rx_dma_lli2;
 158:bluetooth_rxtx.c **** 
 159:bluetooth_rxtx.c **** dma_lli le_dma_lli[11]; // 11 x 4 bytes
 160:bluetooth_rxtx.c **** 
 161:bluetooth_rxtx.c **** /* rx terminal count and error interrupt counters */
 162:bluetooth_rxtx.c **** volatile u32 rx_tc;
 163:bluetooth_rxtx.c **** volatile u32 rx_err;
 164:bluetooth_rxtx.c **** 
 165:bluetooth_rxtx.c **** /* status information byte */
 166:bluetooth_rxtx.c **** volatile u8 status = 0;
 167:bluetooth_rxtx.c **** 
 168:bluetooth_rxtx.c **** /*
 169:bluetooth_rxtx.c ****  * RSSI
 170:bluetooth_rxtx.c ****  */
 171:bluetooth_rxtx.c **** int8_t rssi_max = INT8_MAX;
 172:bluetooth_rxtx.c **** int8_t rssi_min = INT8_MIN;
 173:bluetooth_rxtx.c **** uint8_t rssi_count = 0;
 174:bluetooth_rxtx.c **** int32_t rssi_sum = 0;
 175:bluetooth_rxtx.c **** 
 176:bluetooth_rxtx.c **** static void rssi_reset(void)
 177:bluetooth_rxtx.c **** {
 1033              		.loc 1 177 0
 1034              		.cfi_startproc
 1035              		@ args = 0, pretend = 0, frame = 0
 1036              		@ frame_needed = 1, uses_anonymous_args = 0
 1037              		@ link register save eliminated.
 1038 0000 80B4     		push	{r7}
ARM GAS  /tmp/ccSuvgbr.s 			page 21


 1039              		.cfi_def_cfa_offset 4
 1040              		.cfi_offset 7, -4
 1041 0002 00AF     		add	r7, sp, #0
 1042              		.cfi_def_cfa_register 7
 178:bluetooth_rxtx.c **** 	rssi_count = 0;
 1043              		.loc 1 178 0
 1044 0004 074B     		ldr	r3, .L2
 1045 0006 0022     		movs	r2, #0
 1046 0008 1A70     		strb	r2, [r3]
 179:bluetooth_rxtx.c **** 	rssi_sum = 0;
 1047              		.loc 1 179 0
 1048 000a 074B     		ldr	r3, .L2+4
 1049 000c 0022     		movs	r2, #0
 1050 000e 1A60     		str	r2, [r3]
 180:bluetooth_rxtx.c **** 	rssi_max = INT8_MIN;
 1051              		.loc 1 180 0
 1052 0010 064B     		ldr	r3, .L2+8
 1053 0012 8022     		movs	r2, #128
 1054 0014 1A70     		strb	r2, [r3]
 181:bluetooth_rxtx.c **** 	rssi_min = INT8_MAX;
 1055              		.loc 1 181 0
 1056 0016 064B     		ldr	r3, .L2+12
 1057 0018 7F22     		movs	r2, #127
 1058 001a 1A70     		strb	r2, [r3]
 182:bluetooth_rxtx.c **** }
 1059              		.loc 1 182 0
 1060 001c BD46     		mov	sp, r7
 1061              		.cfi_def_cfa_register 13
 1062              		@ sp needed
 1063 001e 5DF8047B 		ldr	r7, [sp], #4
 1064              		.cfi_restore 7
 1065              		.cfi_def_cfa_offset 0
 1066 0022 7047     		bx	lr
 1067              	.L3:
 1068              		.align	2
 1069              	.L2:
 1070 0024 00000000 		.word	rssi_count
 1071 0028 00000000 		.word	rssi_sum
 1072 002c 00000000 		.word	rssi_max
 1073 0030 00000000 		.word	rssi_min
 1074              		.cfi_endproc
 1075              	.LFE0:
 1077              		.section	.text.rssi_add,"ax",%progbits
 1078              		.align	2
 1079              		.thumb
 1080              		.thumb_func
 1082              	rssi_add:
 1083              	.LFB1:
 183:bluetooth_rxtx.c **** 
 184:bluetooth_rxtx.c **** static void rssi_add(int8_t v)
 185:bluetooth_rxtx.c **** {
 1084              		.loc 1 185 0
 1085              		.cfi_startproc
 1086              		@ args = 0, pretend = 0, frame = 8
 1087              		@ frame_needed = 1, uses_anonymous_args = 0
 1088              		@ link register save eliminated.
 1089 0000 80B4     		push	{r7}
ARM GAS  /tmp/ccSuvgbr.s 			page 22


 1090              		.cfi_def_cfa_offset 4
 1091              		.cfi_offset 7, -4
 1092 0002 83B0     		sub	sp, sp, #12
 1093              		.cfi_def_cfa_offset 16
 1094 0004 00AF     		add	r7, sp, #0
 1095              		.cfi_def_cfa_register 7
 1096 0006 0346     		mov	r3, r0
 1097 0008 FB71     		strb	r3, [r7, #7]
 186:bluetooth_rxtx.c **** 	rssi_max = (v > rssi_max) ? v : rssi_max;
 1098              		.loc 1 186 0
 1099 000a 144B     		ldr	r3, .L5
 1100 000c 1B78     		ldrb	r3, [r3]	@ zero_extendqisi2
 1101 000e 5AB2     		sxtb	r2, r3
 1102 0010 97F90730 		ldrsb	r3, [r7, #7]
 1103 0014 9342     		cmp	r3, r2
 1104 0016 B8BF     		it	lt
 1105 0018 1346     		movlt	r3, r2
 1106 001a DAB2     		uxtb	r2, r3
 1107 001c 0F4B     		ldr	r3, .L5
 1108 001e 1A70     		strb	r2, [r3]
 187:bluetooth_rxtx.c **** 	rssi_min = (v < rssi_min) ? v : rssi_min;
 1109              		.loc 1 187 0
 1110 0020 0F4B     		ldr	r3, .L5+4
 1111 0022 1B78     		ldrb	r3, [r3]	@ zero_extendqisi2
 1112 0024 5AB2     		sxtb	r2, r3
 1113 0026 97F90730 		ldrsb	r3, [r7, #7]
 1114 002a 9342     		cmp	r3, r2
 1115 002c A8BF     		it	ge
 1116 002e 1346     		movge	r3, r2
 1117 0030 DAB2     		uxtb	r2, r3
 1118 0032 0B4B     		ldr	r3, .L5+4
 1119 0034 1A70     		strb	r2, [r3]
 188:bluetooth_rxtx.c **** 	rssi_sum += ((int32_t)v * 256);  // scaled int math (x256)
 1120              		.loc 1 188 0
 1121 0036 97F90730 		ldrsb	r3, [r7, #7]
 1122 003a 1A02     		lsls	r2, r3, #8
 1123 003c 094B     		ldr	r3, .L5+8
 1124 003e 1B68     		ldr	r3, [r3]
 1125 0040 1344     		add	r3, r3, r2
 1126 0042 084A     		ldr	r2, .L5+8
 1127 0044 1360     		str	r3, [r2]
 189:bluetooth_rxtx.c **** 	rssi_count += 1;
 1128              		.loc 1 189 0
 1129 0046 084B     		ldr	r3, .L5+12
 1130 0048 1B78     		ldrb	r3, [r3]	@ zero_extendqisi2
 1131 004a 0133     		adds	r3, r3, #1
 1132 004c DAB2     		uxtb	r2, r3
 1133 004e 064B     		ldr	r3, .L5+12
 1134 0050 1A70     		strb	r2, [r3]
 190:bluetooth_rxtx.c **** }
 1135              		.loc 1 190 0
 1136 0052 0C37     		adds	r7, r7, #12
 1137              		.cfi_def_cfa_offset 4
 1138 0054 BD46     		mov	sp, r7
 1139              		.cfi_def_cfa_register 13
 1140              		@ sp needed
 1141 0056 5DF8047B 		ldr	r7, [sp], #4
ARM GAS  /tmp/ccSuvgbr.s 			page 23


 1142              		.cfi_restore 7
 1143              		.cfi_def_cfa_offset 0
 1144 005a 7047     		bx	lr
 1145              	.L6:
 1146              		.align	2
 1147              	.L5:
 1148 005c 00000000 		.word	rssi_max
 1149 0060 00000000 		.word	rssi_min
 1150 0064 00000000 		.word	rssi_sum
 1151 0068 00000000 		.word	rssi_count
 1152              		.cfi_endproc
 1153              	.LFE1:
 1155              		.section	.text.rssi_iir_update,"ax",%progbits
 1156              		.align	2
 1157              		.thumb
 1158              		.thumb_func
 1160              	rssi_iir_update:
 1161              	.LFB2:
 191:bluetooth_rxtx.c **** 
 192:bluetooth_rxtx.c **** /* For sweep mode, update IIR per channel. Otherwise, use single value. */
 193:bluetooth_rxtx.c **** static void rssi_iir_update(void)
 194:bluetooth_rxtx.c **** {
 1162              		.loc 1 194 0
 1163              		.cfi_startproc
 1164              		@ args = 0, pretend = 0, frame = 16
 1165              		@ frame_needed = 1, uses_anonymous_args = 0
 1166              		@ link register save eliminated.
 1167 0000 80B4     		push	{r7}
 1168              		.cfi_def_cfa_offset 4
 1169              		.cfi_offset 7, -4
 1170 0002 85B0     		sub	sp, sp, #20
 1171              		.cfi_def_cfa_offset 24
 1172 0004 00AF     		add	r7, sp, #0
 1173              		.cfi_def_cfa_register 7
 195:bluetooth_rxtx.c **** 	int i;
 196:bluetooth_rxtx.c **** 	int32_t avg;
 197:bluetooth_rxtx.c **** 	int32_t rssi_iir_acc;
 198:bluetooth_rxtx.c **** 
 199:bluetooth_rxtx.c **** 	/* Use array to track 79 Bluetooth channels, or just first
 200:bluetooth_rxtx.c **** 	 * slot of array if not sweeping. */
 201:bluetooth_rxtx.c **** 	if (hop_mode > 0)
 1174              		.loc 1 201 0
 1175 0006 1F4B     		ldr	r3, .L13
 1176 0008 1B78     		ldrb	r3, [r3]
 1177 000a DBB2     		uxtb	r3, r3
 1178 000c 002B     		cmp	r3, #0
 1179 000e 06D0     		beq	.L8
 202:bluetooth_rxtx.c **** 		i = channel - 2402;
 1180              		.loc 1 202 0
 1181 0010 1D4B     		ldr	r3, .L13+4
 1182 0012 1B88     		ldrh	r3, [r3]	@ movhi
 1183 0014 9BB2     		uxth	r3, r3
 1184 0016 A3F66213 		subw	r3, r3, #2402
 1185 001a FB60     		str	r3, [r7, #12]
 1186 001c 01E0     		b	.L9
 1187              	.L8:
 203:bluetooth_rxtx.c **** 	else
ARM GAS  /tmp/ccSuvgbr.s 			page 24


 204:bluetooth_rxtx.c **** 		i = 0;
 1188              		.loc 1 204 0
 1189 001e 0023     		movs	r3, #0
 1190 0020 FB60     		str	r3, [r7, #12]
 1191              	.L9:
 205:bluetooth_rxtx.c **** 
 206:bluetooth_rxtx.c **** 	// IIR using scaled int math (x256)
 207:bluetooth_rxtx.c **** 	if (rssi_count != 0)
 1192              		.loc 1 207 0
 1193 0022 1A4B     		ldr	r3, .L13+8
 1194 0024 1B78     		ldrb	r3, [r3]	@ zero_extendqisi2
 1195 0026 002B     		cmp	r3, #0
 1196 0028 08D0     		beq	.L10
 208:bluetooth_rxtx.c **** 		avg = (rssi_sum  + 128) / rssi_count;
 1197              		.loc 1 208 0
 1198 002a 194B     		ldr	r3, .L13+12
 1199 002c 1B68     		ldr	r3, [r3]
 1200 002e 8033     		adds	r3, r3, #128
 1201 0030 164A     		ldr	r2, .L13+8
 1202 0032 1278     		ldrb	r2, [r2]	@ zero_extendqisi2
 1203 0034 93FBF2F3 		sdiv	r3, r3, r2
 1204 0038 BB60     		str	r3, [r7, #8]
 1205 003a 01E0     		b	.L11
 1206              	.L10:
 209:bluetooth_rxtx.c **** 	else
 210:bluetooth_rxtx.c **** 		avg = 0; // really an error
 1207              		.loc 1 210 0
 1208 003c 0023     		movs	r3, #0
 1209 003e BB60     		str	r3, [r7, #8]
 1210              	.L11:
 211:bluetooth_rxtx.c **** 	rssi_iir_acc = rssi_iir[i] * (256-RSSI_IIR_ALPHA);
 1211              		.loc 1 211 0
 1212 0040 144A     		ldr	r2, .L13+16
 1213 0042 FB68     		ldr	r3, [r7, #12]
 1214 0044 32F81330 		ldrh	r3, [r2, r3, lsl #1]
 1215 0048 1AB2     		sxth	r2, r3
 1216 004a 1346     		mov	r3, r2
 1217 004c 9B01     		lsls	r3, r3, #6
 1218 004e 9B1A     		subs	r3, r3, r2
 1219 0050 9B00     		lsls	r3, r3, #2
 1220 0052 1344     		add	r3, r3, r2
 1221 0054 7B60     		str	r3, [r7, #4]
 212:bluetooth_rxtx.c **** 	rssi_iir_acc += avg * RSSI_IIR_ALPHA;
 1222              		.loc 1 212 0
 1223 0056 BA68     		ldr	r2, [r7, #8]
 1224 0058 1346     		mov	r3, r2
 1225 005a 5B00     		lsls	r3, r3, #1
 1226 005c 1344     		add	r3, r3, r2
 1227 005e 7A68     		ldr	r2, [r7, #4]
 1228 0060 1344     		add	r3, r3, r2
 1229 0062 7B60     		str	r3, [r7, #4]
 213:bluetooth_rxtx.c **** 	rssi_iir[i] = (int16_t)((rssi_iir_acc + 128) / 256);
 1230              		.loc 1 213 0
 1231 0064 7B68     		ldr	r3, [r7, #4]
 1232 0066 8033     		adds	r3, r3, #128
 1233 0068 002B     		cmp	r3, #0
 1234 006a 00DA     		bge	.L12
ARM GAS  /tmp/ccSuvgbr.s 			page 25


 1235 006c FF33     		adds	r3, r3, #255
 1236              	.L12:
 1237 006e 1B12     		asrs	r3, r3, #8
 1238 0070 99B2     		uxth	r1, r3
 1239 0072 084A     		ldr	r2, .L13+16
 1240 0074 FB68     		ldr	r3, [r7, #12]
 1241 0076 22F81310 		strh	r1, [r2, r3, lsl #1]	@ movhi
 214:bluetooth_rxtx.c **** }
 1242              		.loc 1 214 0
 1243 007a 1437     		adds	r7, r7, #20
 1244              		.cfi_def_cfa_offset 4
 1245 007c BD46     		mov	sp, r7
 1246              		.cfi_def_cfa_register 13
 1247              		@ sp needed
 1248 007e 5DF8047B 		ldr	r7, [sp], #4
 1249              		.cfi_restore 7
 1250              		.cfi_def_cfa_offset 0
 1251 0082 7047     		bx	lr
 1252              	.L14:
 1253              		.align	2
 1254              	.L13:
 1255 0084 00000000 		.word	hop_mode
 1256 0088 00000000 		.word	channel
 1257 008c 00000000 		.word	rssi_count
 1258 0090 00000000 		.word	rssi_sum
 1259 0094 00000000 		.word	rssi_iir
 1260              		.cfi_endproc
 1261              	.LFE2:
 1263              		.section	.text.cs_threshold_set,"ax",%progbits
 1264              		.align	2
 1265              		.thumb
 1266              		.thumb_func
 1268              	cs_threshold_set:
 1269              	.LFB3:
 215:bluetooth_rxtx.c **** 
 216:bluetooth_rxtx.c **** #define CS_SAMPLES_1 1
 217:bluetooth_rxtx.c **** #define CS_SAMPLES_2 2
 218:bluetooth_rxtx.c **** #define CS_SAMPLES_4 3
 219:bluetooth_rxtx.c **** #define CS_SAMPLES_8 4
 220:bluetooth_rxtx.c **** /* Set CC2400 carrier sense threshold and store value to
 221:bluetooth_rxtx.c ****  * global. CC2400 RSSI is determined by 54dBm + level. CS threshold is
 222:bluetooth_rxtx.c ****  * in 4dBm steps, so the provided level is rounded to the nearest
 223:bluetooth_rxtx.c ****  * multiple of 4 by adding 56. Useful range is -100 to -20. */
 224:bluetooth_rxtx.c **** static void cs_threshold_set(int8_t level, u8 samples)
 225:bluetooth_rxtx.c **** {
 1270              		.loc 1 225 0
 1271              		.cfi_startproc
 1272              		@ args = 0, pretend = 0, frame = 8
 1273              		@ frame_needed = 1, uses_anonymous_args = 0
 1274 0000 80B5     		push	{r7, lr}
 1275              		.cfi_def_cfa_offset 8
 1276              		.cfi_offset 7, -8
 1277              		.cfi_offset 14, -4
 1278 0002 82B0     		sub	sp, sp, #8
 1279              		.cfi_def_cfa_offset 16
 1280 0004 00AF     		add	r7, sp, #0
 1281              		.cfi_def_cfa_register 7
ARM GAS  /tmp/ccSuvgbr.s 			page 26


 1282 0006 0346     		mov	r3, r0
 1283 0008 0A46     		mov	r2, r1
 1284 000a FB71     		strb	r3, [r7, #7]
 1285 000c 1346     		mov	r3, r2
 1286 000e BB71     		strb	r3, [r7, #6]
 226:bluetooth_rxtx.c **** 	level = MIN(MAX(level,-120),(-20));
 1287              		.loc 1 226 0
 1288 0010 97F90730 		ldrsb	r3, [r7, #7]
 1289 0014 13F1140F 		cmn	r3, #20
 1290 0018 0DD0     		beq	.L16
 1291              		.loc 1 226 0 is_stmt 0 discriminator 1
 1292 001a 97F90730 		ldrsb	r3, [r7, #7]
 1293 001e 13F1130F 		cmn	r3, #19
 1294 0022 08DA     		bge	.L16
 1295              		.loc 1 226 0 discriminator 3
 1296 0024 97F90730 		ldrsb	r3, [r7, #7]
 1297 0028 6FF07702 		mvn	r2, #119
 1298 002c 9342     		cmp	r3, r2
 1299 002e B8BF     		it	lt
 1300 0030 1346     		movlt	r3, r2
 1301 0032 DBB2     		uxtb	r3, r3
 1302 0034 00E0     		b	.L17
 1303              	.L16:
 1304              		.loc 1 226 0 discriminator 4
 1305 0036 EC23     		movs	r3, #236
 1306              	.L17:
 1307              		.loc 1 226 0 discriminator 6
 1308 0038 FB71     		strb	r3, [r7, #7]
 227:bluetooth_rxtx.c **** 	cc2400_set(RSSI, (uint8_t)((level + 56) & (0x3f << 2)) | (samples&3));
 1309              		.loc 1 227 0 is_stmt 1 discriminator 6
 1310 003a FB79     		ldrb	r3, [r7, #7]	@ zero_extendqisi2
 1311 003c 3833     		adds	r3, r3, #56
 1312 003e DBB2     		uxtb	r3, r3
 1313 0040 9BB2     		uxth	r3, r3
 1314 0042 03F0FC03 		and	r3, r3, #252
 1315 0046 9AB2     		uxth	r2, r3
 1316 0048 BB79     		ldrb	r3, [r7, #6]	@ zero_extendqisi2
 1317 004a 9BB2     		uxth	r3, r3
 1318 004c 03F00303 		and	r3, r3, #3
 1319 0050 9BB2     		uxth	r3, r3
 1320 0052 1343     		orrs	r3, r3, r2
 1321 0054 9BB2     		uxth	r3, r3
 1322 0056 9BB2     		uxth	r3, r3
 1323 0058 0620     		movs	r0, #6
 1324 005a 1946     		mov	r1, r3
 1325 005c FFF7FEFF 		bl	cc2400_set
 228:bluetooth_rxtx.c **** 	cs_threshold_cur = level;
 1326              		.loc 1 228 0 discriminator 6
 1327 0060 084A     		ldr	r2, .L18
 1328 0062 FB79     		ldrb	r3, [r7, #7]
 1329 0064 1370     		strb	r3, [r2]
 229:bluetooth_rxtx.c **** 	cs_no_squelch = (level <= -120);
 1330              		.loc 1 229 0 discriminator 6
 1331 0066 97F90730 		ldrsb	r3, [r7, #7]
 1332 006a 13F1770F 		cmn	r3, #119
 1333 006e B4BF     		ite	lt
 1334 0070 0123     		movlt	r3, #1
ARM GAS  /tmp/ccSuvgbr.s 			page 27


 1335 0072 0023     		movge	r3, #0
 1336 0074 DBB2     		uxtb	r3, r3
 1337 0076 1A46     		mov	r2, r3
 1338 0078 034B     		ldr	r3, .L18+4
 1339 007a 1A70     		strb	r2, [r3]
 230:bluetooth_rxtx.c **** }
 1340              		.loc 1 230 0 discriminator 6
 1341 007c 0837     		adds	r7, r7, #8
 1342              		.cfi_def_cfa_offset 8
 1343 007e BD46     		mov	sp, r7
 1344              		.cfi_def_cfa_register 13
 1345              		@ sp needed
 1346 0080 80BD     		pop	{r7, pc}
 1347              	.L19:
 1348 0082 00BF     		.align	2
 1349              	.L18:
 1350 0084 00000000 		.word	cs_threshold_cur
 1351 0088 00000000 		.word	cs_no_squelch
 1352              		.cfi_endproc
 1353              	.LFE3:
 1355              		.section	.text.enqueue,"ax",%progbits
 1356              		.align	2
 1357              		.thumb
 1358              		.thumb_func
 1360              	enqueue:
 1361              	.LFB4:
 231:bluetooth_rxtx.c **** 
 232:bluetooth_rxtx.c **** static int enqueue(uint8_t type, uint8_t* buf)
 233:bluetooth_rxtx.c **** {
 1362              		.loc 1 233 0
 1363              		.cfi_startproc
 1364              		@ args = 0, pretend = 0, frame = 16
 1365              		@ frame_needed = 1, uses_anonymous_args = 0
 1366 0000 80B5     		push	{r7, lr}
 1367              		.cfi_def_cfa_offset 8
 1368              		.cfi_offset 7, -8
 1369              		.cfi_offset 14, -4
 1370 0002 84B0     		sub	sp, sp, #16
 1371              		.cfi_def_cfa_offset 24
 1372 0004 00AF     		add	r7, sp, #0
 1373              		.cfi_def_cfa_register 7
 1374 0006 0346     		mov	r3, r0
 1375 0008 3960     		str	r1, [r7]
 1376 000a FB71     		strb	r3, [r7, #7]
 234:bluetooth_rxtx.c **** 	usb_pkt_rx* f = usb_enqueue();
 1377              		.loc 1 234 0
 1378 000c FFF7FEFF 		bl	usb_enqueue
 1379 0010 F860     		str	r0, [r7, #12]
 235:bluetooth_rxtx.c **** 
 236:bluetooth_rxtx.c **** 	/* fail if queue is full */
 237:bluetooth_rxtx.c **** 	if (f == NULL) {
 1380              		.loc 1 237 0
 1381 0012 FB68     		ldr	r3, [r7, #12]
 1382 0014 002B     		cmp	r3, #0
 1383 0016 09D1     		bne	.L21
 238:bluetooth_rxtx.c **** 		status |= FIFO_OVERFLOW;
 1384              		.loc 1 238 0
ARM GAS  /tmp/ccSuvgbr.s 			page 28


 1385 0018 3C4B     		ldr	r3, .L29
 1386 001a 1B78     		ldrb	r3, [r3]
 1387 001c DBB2     		uxtb	r3, r3
 1388 001e 43F00403 		orr	r3, r3, #4
 1389 0022 DAB2     		uxtb	r2, r3
 1390 0024 394B     		ldr	r3, .L29
 1391 0026 1A70     		strb	r2, [r3]
 239:bluetooth_rxtx.c **** 		return 0;
 1392              		.loc 1 239 0
 1393 0028 0023     		movs	r3, #0
 1394 002a 6AE0     		b	.L22
 1395              	.L21:
 240:bluetooth_rxtx.c **** 	}
 241:bluetooth_rxtx.c **** 
 242:bluetooth_rxtx.c **** 	f->pkt_type = type;
 1396              		.loc 1 242 0
 1397 002c FB68     		ldr	r3, [r7, #12]
 1398 002e FA79     		ldrb	r2, [r7, #7]
 1399 0030 1A70     		strb	r2, [r3]
 243:bluetooth_rxtx.c **** 	if(type == SPECAN) {
 1400              		.loc 1 243 0
 1401 0032 FB79     		ldrb	r3, [r7, #7]	@ zero_extendqisi2
 1402 0034 042B     		cmp	r3, #4
 1403 0036 13D1     		bne	.L23
 244:bluetooth_rxtx.c **** 		f->clkn_high = (clkn >> 20) & 0xff;
 1404              		.loc 1 244 0
 1405 0038 354B     		ldr	r3, .L29+4
 1406 003a 1B68     		ldr	r3, [r3]
 1407 003c 1B0D     		lsrs	r3, r3, #20
 1408 003e DAB2     		uxtb	r2, r3
 1409 0040 FB68     		ldr	r3, [r7, #12]
 1410 0042 DA70     		strb	r2, [r3, #3]
 245:bluetooth_rxtx.c **** 		f->clk100ns = CLK100NS;
 1411              		.loc 1 245 0
 1412 0044 324B     		ldr	r3, .L29+4
 1413 0046 1B68     		ldr	r3, [r3]
 1414 0048 C3F31303 		ubfx	r3, r3, #0, #20
 1415 004c 40F63542 		movw	r2, #3125
 1416 0050 02FB03F2 		mul	r2, r2, r3
 1417 0054 2F4B     		ldr	r3, .L29+8
 1418 0056 1B68     		ldr	r3, [r3]
 1419 0058 1A44     		add	r2, r2, r3
 1420 005a FB68     		ldr	r3, [r7, #12]
 1421 005c 5A60     		str	r2, [r3, #4]
 1422 005e 40E0     		b	.L24
 1423              	.L23:
 246:bluetooth_rxtx.c **** 	} else {
 247:bluetooth_rxtx.c **** 		f->clkn_high = idle_buf_clkn_high;
 1424              		.loc 1 247 0
 1425 0060 2D4B     		ldr	r3, .L29+12
 1426 0062 1B78     		ldrb	r3, [r3]
 1427 0064 DAB2     		uxtb	r2, r3
 1428 0066 FB68     		ldr	r3, [r7, #12]
 1429 0068 DA70     		strb	r2, [r3, #3]
 248:bluetooth_rxtx.c **** 		f->clk100ns = idle_buf_clk100ns;
 1430              		.loc 1 248 0
 1431 006a 2C4B     		ldr	r3, .L29+16
ARM GAS  /tmp/ccSuvgbr.s 			page 29


 1432 006c 1A68     		ldr	r2, [r3]
 1433 006e FB68     		ldr	r3, [r7, #12]
 1434 0070 5A60     		str	r2, [r3, #4]
 249:bluetooth_rxtx.c **** 		f->channel = idle_buf_channel - 2402;
 1435              		.loc 1 249 0
 1436 0072 2B4B     		ldr	r3, .L29+20
 1437 0074 1B88     		ldrh	r3, [r3]	@ movhi
 1438 0076 9BB2     		uxth	r3, r3
 1439 0078 DBB2     		uxtb	r3, r3
 1440 007a 623B     		subs	r3, r3, #98
 1441 007c DAB2     		uxtb	r2, r3
 1442 007e FB68     		ldr	r3, [r7, #12]
 1443 0080 9A70     		strb	r2, [r3, #2]
 250:bluetooth_rxtx.c **** 		f->rssi_min = rssi_min;
 1444              		.loc 1 250 0
 1445 0082 284B     		ldr	r3, .L29+24
 1446 0084 1B78     		ldrb	r3, [r3]	@ zero_extendqisi2
 1447 0086 DAB2     		uxtb	r2, r3
 1448 0088 FB68     		ldr	r3, [r7, #12]
 1449 008a 5A72     		strb	r2, [r3, #9]
 251:bluetooth_rxtx.c **** 		f->rssi_max = rssi_max;
 1450              		.loc 1 251 0
 1451 008c 264B     		ldr	r3, .L29+28
 1452 008e 1B78     		ldrb	r3, [r3]	@ zero_extendqisi2
 1453 0090 DAB2     		uxtb	r2, r3
 1454 0092 FB68     		ldr	r3, [r7, #12]
 1455 0094 1A72     		strb	r2, [r3, #8]
 252:bluetooth_rxtx.c **** 		if (hop_mode != HOP_NONE)
 1456              		.loc 1 252 0
 1457 0096 254B     		ldr	r3, .L29+32
 1458 0098 1B78     		ldrb	r3, [r3]
 1459 009a DBB2     		uxtb	r3, r3
 1460 009c 002B     		cmp	r3, #0
 1461 009e 11D0     		beq	.L25
 253:bluetooth_rxtx.c **** 			f->rssi_avg = (int8_t)((rssi_iir[idle_buf_channel-2402] + 128)/256);
 1462              		.loc 1 253 0
 1463 00a0 1F4B     		ldr	r3, .L29+20
 1464 00a2 1B88     		ldrh	r3, [r3]	@ movhi
 1465 00a4 9BB2     		uxth	r3, r3
 1466 00a6 A3F66213 		subw	r3, r3, #2402
 1467 00aa 214A     		ldr	r2, .L29+36
 1468 00ac 32F81330 		ldrh	r3, [r2, r3, lsl #1]
 1469 00b0 1BB2     		sxth	r3, r3
 1470 00b2 8033     		adds	r3, r3, #128
 1471 00b4 002B     		cmp	r3, #0
 1472 00b6 00DA     		bge	.L26
 1473 00b8 FF33     		adds	r3, r3, #255
 1474              	.L26:
 1475 00ba 1B12     		asrs	r3, r3, #8
 1476 00bc DAB2     		uxtb	r2, r3
 1477 00be FB68     		ldr	r3, [r7, #12]
 1478 00c0 9A72     		strb	r2, [r3, #10]
 1479 00c2 0AE0     		b	.L27
 1480              	.L25:
 254:bluetooth_rxtx.c **** 		else
 255:bluetooth_rxtx.c **** 			f->rssi_avg = (int8_t)((rssi_iir[0] + 128)/256);
 1481              		.loc 1 255 0
ARM GAS  /tmp/ccSuvgbr.s 			page 30


 1482 00c4 1A4B     		ldr	r3, .L29+36
 1483 00c6 1B88     		ldrh	r3, [r3]
 1484 00c8 1BB2     		sxth	r3, r3
 1485 00ca 8033     		adds	r3, r3, #128
 1486 00cc 002B     		cmp	r3, #0
 1487 00ce 00DA     		bge	.L28
 1488 00d0 FF33     		adds	r3, r3, #255
 1489              	.L28:
 1490 00d2 1B12     		asrs	r3, r3, #8
 1491 00d4 DAB2     		uxtb	r2, r3
 1492 00d6 FB68     		ldr	r3, [r7, #12]
 1493 00d8 9A72     		strb	r2, [r3, #10]
 1494              	.L27:
 256:bluetooth_rxtx.c **** 		f->rssi_count = rssi_count;
 1495              		.loc 1 256 0
 1496 00da 164B     		ldr	r3, .L29+40
 1497 00dc 1A78     		ldrb	r2, [r3]	@ zero_extendqisi2
 1498 00de FB68     		ldr	r3, [r7, #12]
 1499 00e0 DA72     		strb	r2, [r3, #11]
 1500              	.L24:
 257:bluetooth_rxtx.c **** 	}
 258:bluetooth_rxtx.c **** 
 259:bluetooth_rxtx.c **** 	memcpy(f->data, buf, DMA_SIZE);
 1501              		.loc 1 259 0
 1502 00e2 FB68     		ldr	r3, [r7, #12]
 1503 00e4 0E33     		adds	r3, r3, #14
 1504 00e6 1846     		mov	r0, r3
 1505 00e8 3968     		ldr	r1, [r7]
 1506 00ea 3222     		movs	r2, #50
 1507 00ec FFF7FEFF 		bl	memcpy
 260:bluetooth_rxtx.c **** 
 261:bluetooth_rxtx.c **** 	f->status = status;
 1508              		.loc 1 261 0
 1509 00f0 064B     		ldr	r3, .L29
 1510 00f2 1B78     		ldrb	r3, [r3]
 1511 00f4 DAB2     		uxtb	r2, r3
 1512 00f6 FB68     		ldr	r3, [r7, #12]
 1513 00f8 5A70     		strb	r2, [r3, #1]
 262:bluetooth_rxtx.c **** 	status = 0;
 1514              		.loc 1 262 0
 1515 00fa 044B     		ldr	r3, .L29
 1516 00fc 0022     		movs	r2, #0
 1517 00fe 1A70     		strb	r2, [r3]
 263:bluetooth_rxtx.c **** 
 264:bluetooth_rxtx.c **** 	return 1;
 1518              		.loc 1 264 0
 1519 0100 0123     		movs	r3, #1
 1520              	.L22:
 265:bluetooth_rxtx.c **** }
 1521              		.loc 1 265 0
 1522 0102 1846     		mov	r0, r3
 1523 0104 1037     		adds	r7, r7, #16
 1524              		.cfi_def_cfa_offset 8
 1525 0106 BD46     		mov	sp, r7
 1526              		.cfi_def_cfa_register 13
 1527              		@ sp needed
 1528 0108 80BD     		pop	{r7, pc}
ARM GAS  /tmp/ccSuvgbr.s 			page 31


 1529              	.L30:
 1530 010a 00BF     		.align	2
 1531              	.L29:
 1532 010c 00000000 		.word	status
 1533 0110 00000000 		.word	clkn
 1534 0114 08400040 		.word	1073758216
 1535 0118 00000000 		.word	idle_buf_clkn_high
 1536 011c 00000000 		.word	idle_buf_clk100ns
 1537 0120 00000000 		.word	idle_buf_channel
 1538 0124 00000000 		.word	rssi_min
 1539 0128 00000000 		.word	rssi_max
 1540 012c 00000000 		.word	hop_mode
 1541 0130 00000000 		.word	rssi_iir
 1542 0134 00000000 		.word	rssi_count
 1543              		.cfi_endproc
 1544              	.LFE4:
 1546              		.section	.text.enqueue_with_ts,"ax",%progbits
 1547              		.align	2
 1548              		.global	enqueue_with_ts
 1549              		.thumb
 1550              		.thumb_func
 1552              	enqueue_with_ts:
 1553              	.LFB5:
 266:bluetooth_rxtx.c **** 
 267:bluetooth_rxtx.c **** int enqueue_with_ts(u8 type, u8 *buf, u32 ts)
 268:bluetooth_rxtx.c **** {
 1554              		.loc 1 268 0
 1555              		.cfi_startproc
 1556              		@ args = 0, pretend = 0, frame = 24
 1557              		@ frame_needed = 1, uses_anonymous_args = 0
 1558 0000 80B5     		push	{r7, lr}
 1559              		.cfi_def_cfa_offset 8
 1560              		.cfi_offset 7, -8
 1561              		.cfi_offset 14, -4
 1562 0002 86B0     		sub	sp, sp, #24
 1563              		.cfi_def_cfa_offset 32
 1564 0004 00AF     		add	r7, sp, #0
 1565              		.cfi_def_cfa_register 7
 1566 0006 0346     		mov	r3, r0
 1567 0008 B960     		str	r1, [r7, #8]
 1568 000a 7A60     		str	r2, [r7, #4]
 1569 000c FB73     		strb	r3, [r7, #15]
 269:bluetooth_rxtx.c **** 	usb_pkt_rx *f = usb_enqueue();
 1570              		.loc 1 269 0
 1571 000e FFF7FEFF 		bl	usb_enqueue
 1572 0012 7861     		str	r0, [r7, #20]
 270:bluetooth_rxtx.c **** 
 271:bluetooth_rxtx.c **** 	/* fail if queue is full */
 272:bluetooth_rxtx.c **** 	if (f == NULL) {
 1573              		.loc 1 272 0
 1574 0014 7B69     		ldr	r3, [r7, #20]
 1575 0016 002B     		cmp	r3, #0
 1576 0018 09D1     		bne	.L32
 273:bluetooth_rxtx.c **** 		status |= FIFO_OVERFLOW;
 1577              		.loc 1 273 0
 1578 001a 194B     		ldr	r3, .L34
 1579 001c 1B78     		ldrb	r3, [r3]
ARM GAS  /tmp/ccSuvgbr.s 			page 32


 1580 001e DBB2     		uxtb	r3, r3
 1581 0020 43F00403 		orr	r3, r3, #4
 1582 0024 DAB2     		uxtb	r2, r3
 1583 0026 164B     		ldr	r3, .L34
 1584 0028 1A70     		strb	r2, [r3]
 274:bluetooth_rxtx.c **** 		return 0;
 1585              		.loc 1 274 0
 1586 002a 0023     		movs	r3, #0
 1587 002c 23E0     		b	.L33
 1588              	.L32:
 275:bluetooth_rxtx.c **** 	}
 276:bluetooth_rxtx.c **** 
 277:bluetooth_rxtx.c **** 	f->clkn_high = 0;
 1589              		.loc 1 277 0
 1590 002e 7B69     		ldr	r3, [r7, #20]
 1591 0030 0022     		movs	r2, #0
 1592 0032 DA70     		strb	r2, [r3, #3]
 278:bluetooth_rxtx.c **** 	f->clk100ns = ts;
 1593              		.loc 1 278 0
 1594 0034 7B69     		ldr	r3, [r7, #20]
 1595 0036 7A68     		ldr	r2, [r7, #4]
 1596 0038 5A60     		str	r2, [r3, #4]
 279:bluetooth_rxtx.c **** 
 280:bluetooth_rxtx.c **** 	f->channel = channel - 2402;
 1597              		.loc 1 280 0
 1598 003a 124B     		ldr	r3, .L34+4
 1599 003c 1B88     		ldrh	r3, [r3]	@ movhi
 1600 003e 9BB2     		uxth	r3, r3
 1601 0040 DBB2     		uxtb	r3, r3
 1602 0042 623B     		subs	r3, r3, #98
 1603 0044 DAB2     		uxtb	r2, r3
 1604 0046 7B69     		ldr	r3, [r7, #20]
 1605 0048 9A70     		strb	r2, [r3, #2]
 281:bluetooth_rxtx.c **** 	f->rssi_avg = 0;
 1606              		.loc 1 281 0
 1607 004a 7B69     		ldr	r3, [r7, #20]
 1608 004c 0022     		movs	r2, #0
 1609 004e 9A72     		strb	r2, [r3, #10]
 282:bluetooth_rxtx.c **** 	f->rssi_count = 0;
 1610              		.loc 1 282 0
 1611 0050 7B69     		ldr	r3, [r7, #20]
 1612 0052 0022     		movs	r2, #0
 1613 0054 DA72     		strb	r2, [r3, #11]
 283:bluetooth_rxtx.c **** 
 284:bluetooth_rxtx.c **** 	memcpy(f->data, buf, DMA_SIZE);
 1614              		.loc 1 284 0
 1615 0056 7B69     		ldr	r3, [r7, #20]
 1616 0058 0E33     		adds	r3, r3, #14
 1617 005a 1846     		mov	r0, r3
 1618 005c B968     		ldr	r1, [r7, #8]
 1619 005e 3222     		movs	r2, #50
 1620 0060 FFF7FEFF 		bl	memcpy
 285:bluetooth_rxtx.c **** 
 286:bluetooth_rxtx.c **** 	f->status = status;
 1621              		.loc 1 286 0
 1622 0064 064B     		ldr	r3, .L34
 1623 0066 1B78     		ldrb	r3, [r3]
ARM GAS  /tmp/ccSuvgbr.s 			page 33


 1624 0068 DAB2     		uxtb	r2, r3
 1625 006a 7B69     		ldr	r3, [r7, #20]
 1626 006c 5A70     		strb	r2, [r3, #1]
 287:bluetooth_rxtx.c **** 	status = 0;
 1627              		.loc 1 287 0
 1628 006e 044B     		ldr	r3, .L34
 1629 0070 0022     		movs	r2, #0
 1630 0072 1A70     		strb	r2, [r3]
 288:bluetooth_rxtx.c **** 
 289:bluetooth_rxtx.c **** 	return 1;
 1631              		.loc 1 289 0
 1632 0074 0123     		movs	r3, #1
 1633              	.L33:
 290:bluetooth_rxtx.c **** }
 1634              		.loc 1 290 0
 1635 0076 1846     		mov	r0, r3
 1636 0078 1837     		adds	r7, r7, #24
 1637              		.cfi_def_cfa_offset 8
 1638 007a BD46     		mov	sp, r7
 1639              		.cfi_def_cfa_register 13
 1640              		@ sp needed
 1641 007c 80BD     		pop	{r7, pc}
 1642              	.L35:
 1643 007e 00BF     		.align	2
 1644              	.L34:
 1645 0080 00000000 		.word	status
 1646 0084 00000000 		.word	channel
 1647              		.cfi_endproc
 1648              	.LFE5:
 1650              		.section	.text.cs_threshold_calc_and_set,"ax",%progbits
 1651              		.align	2
 1652              		.thumb
 1653              		.thumb_func
 1655              	cs_threshold_calc_and_set:
 1656              	.LFB6:
 291:bluetooth_rxtx.c **** 
 292:bluetooth_rxtx.c **** static void cs_threshold_calc_and_set(void)
 293:bluetooth_rxtx.c **** {
 1657              		.loc 1 293 0
 1658              		.cfi_startproc
 1659              		@ args = 0, pretend = 0, frame = 8
 1660              		@ frame_needed = 1, uses_anonymous_args = 0
 1661 0000 80B5     		push	{r7, lr}
 1662              		.cfi_def_cfa_offset 8
 1663              		.cfi_offset 7, -8
 1664              		.cfi_offset 14, -4
 1665 0002 82B0     		sub	sp, sp, #8
 1666              		.cfi_def_cfa_offset 16
 1667 0004 00AF     		add	r7, sp, #0
 1668              		.cfi_def_cfa_register 7
 294:bluetooth_rxtx.c **** 	int8_t level;
 295:bluetooth_rxtx.c **** 
 296:bluetooth_rxtx.c **** 	/* If threshold is max/avg based (>0), reset here while rx is
 297:bluetooth_rxtx.c **** 	 * off.  TODO - max-to-iir only works in SWEEP mode, where the
 298:bluetooth_rxtx.c **** 	 * channel is known to be in the BT band, i.e., rssi_iir has a
 299:bluetooth_rxtx.c **** 	 * value for it. */
 300:bluetooth_rxtx.c **** 	if ((hop_mode > 0) && (cs_threshold_req > 0)) {
ARM GAS  /tmp/ccSuvgbr.s 			page 34


 1669              		.loc 1 300 0
 1670 0006 174B     		ldr	r3, .L40
 1671 0008 1B78     		ldrb	r3, [r3]
 1672 000a DBB2     		uxtb	r3, r3
 1673 000c 002B     		cmp	r3, #0
 1674 000e 1DD0     		beq	.L37
 1675              		.loc 1 300 0 is_stmt 0 discriminator 1
 1676 0010 154B     		ldr	r3, .L40+4
 1677 0012 1B78     		ldrb	r3, [r3]	@ zero_extendqisi2
 1678 0014 5BB2     		sxtb	r3, r3
 1679 0016 002B     		cmp	r3, #0
 1680 0018 18DD     		ble	.L37
 1681              	.LBB2:
 301:bluetooth_rxtx.c **** 		int8_t rssi = (int8_t)((rssi_iir[channel-2402] + 128)/256);
 1682              		.loc 1 301 0 is_stmt 1
 1683 001a 144B     		ldr	r3, .L40+8
 1684 001c 1B88     		ldrh	r3, [r3]	@ movhi
 1685 001e 9BB2     		uxth	r3, r3
 1686 0020 A3F66213 		subw	r3, r3, #2402
 1687 0024 124A     		ldr	r2, .L40+12
 1688 0026 32F81330 		ldrh	r3, [r2, r3, lsl #1]
 1689 002a 1BB2     		sxth	r3, r3
 1690 002c 8033     		adds	r3, r3, #128
 1691 002e 002B     		cmp	r3, #0
 1692 0030 00DA     		bge	.L38
 1693 0032 FF33     		adds	r3, r3, #255
 1694              	.L38:
 1695 0034 1B12     		asrs	r3, r3, #8
 1696 0036 BB71     		strb	r3, [r7, #6]
 302:bluetooth_rxtx.c **** 		level = rssi - 54 + cs_threshold_req;
 1697              		.loc 1 302 0
 1698 0038 BA79     		ldrb	r2, [r7, #6]	@ zero_extendqisi2
 1699 003a 0B4B     		ldr	r3, .L40+4
 1700 003c 1B78     		ldrb	r3, [r3]	@ zero_extendqisi2
 1701 003e DBB2     		uxtb	r3, r3
 1702 0040 1344     		add	r3, r3, r2
 1703 0042 DBB2     		uxtb	r3, r3
 1704 0044 363B     		subs	r3, r3, #54
 1705 0046 DBB2     		uxtb	r3, r3
 1706 0048 FB71     		strb	r3, [r7, #7]
 1707              	.LBE2:
 300:bluetooth_rxtx.c **** 		int8_t rssi = (int8_t)((rssi_iir[channel-2402] + 128)/256);
 1708              		.loc 1 300 0
 1709 004a 02E0     		b	.L39
 1710              	.L37:
 303:bluetooth_rxtx.c **** 	}
 304:bluetooth_rxtx.c **** 	else {
 305:bluetooth_rxtx.c **** 		level = cs_threshold_req;
 1711              		.loc 1 305 0
 1712 004c 064B     		ldr	r3, .L40+4
 1713 004e 1B78     		ldrb	r3, [r3]
 1714 0050 FB71     		strb	r3, [r7, #7]
 1715              	.L39:
 306:bluetooth_rxtx.c **** 	}
 307:bluetooth_rxtx.c **** 	cs_threshold_set(level, CS_SAMPLES_4);
 1716              		.loc 1 307 0
 1717 0052 97F90730 		ldrsb	r3, [r7, #7]
ARM GAS  /tmp/ccSuvgbr.s 			page 35


 1718 0056 1846     		mov	r0, r3
 1719 0058 0321     		movs	r1, #3
 1720 005a FFF7FEFF 		bl	cs_threshold_set
 308:bluetooth_rxtx.c **** }
 1721              		.loc 1 308 0
 1722 005e 0837     		adds	r7, r7, #8
 1723              		.cfi_def_cfa_offset 8
 1724 0060 BD46     		mov	sp, r7
 1725              		.cfi_def_cfa_register 13
 1726              		@ sp needed
 1727 0062 80BD     		pop	{r7, pc}
 1728              	.L41:
 1729              		.align	2
 1730              	.L40:
 1731 0064 00000000 		.word	hop_mode
 1732 0068 00000000 		.word	cs_threshold_req
 1733 006c 00000000 		.word	channel
 1734 0070 00000000 		.word	rssi_iir
 1735              		.cfi_endproc
 1736              	.LFE6:
 1738              		.section	.text.cs_trigger_enable,"ax",%progbits
 1739              		.align	2
 1740              		.thumb
 1741              		.thumb_func
 1743              	cs_trigger_enable:
 1744              	.LFB7:
 309:bluetooth_rxtx.c **** 
 310:bluetooth_rxtx.c **** /* CS comes from CC2400 GIO6, which is LPC P2.2, active low. GPIO
 311:bluetooth_rxtx.c ****  * triggers EINT3, which could be used for other things (but is not
 312:bluetooth_rxtx.c ****  * currently). TODO - EINT3 should be managed globally, not turned on
 313:bluetooth_rxtx.c ****  * and off here. */
 314:bluetooth_rxtx.c **** static void cs_trigger_enable(void)
 315:bluetooth_rxtx.c **** {
 1745              		.loc 1 315 0
 1746              		.cfi_startproc
 1747              		@ args = 0, pretend = 0, frame = 0
 1748              		@ frame_needed = 1, uses_anonymous_args = 0
 1749              		@ link register save eliminated.
 1750 0000 80B4     		push	{r7}
 1751              		.cfi_def_cfa_offset 4
 1752              		.cfi_offset 7, -4
 1753 0002 00AF     		add	r7, sp, #0
 1754              		.cfi_def_cfa_register 7
 316:bluetooth_rxtx.c **** 	cs_trigger = 0;
 1755              		.loc 1 316 0
 1756 0004 094B     		ldr	r3, .L43
 1757 0006 0022     		movs	r2, #0
 1758 0008 1A70     		strb	r2, [r3]
 317:bluetooth_rxtx.c **** 	ISER0 = ISER0_ISE_EINT3;
 1759              		.loc 1 317 0
 1760 000a 094B     		ldr	r3, .L43+4
 1761 000c 4FF40012 		mov	r2, #2097152
 1762 0010 1A60     		str	r2, [r3]
 318:bluetooth_rxtx.c **** 	IO2IntClr = PIN_GIO6;      // Clear pending
 1763              		.loc 1 318 0
 1764 0012 084B     		ldr	r3, .L43+8
 1765 0014 0422     		movs	r2, #4
ARM GAS  /tmp/ccSuvgbr.s 			page 36


 1766 0016 1A60     		str	r2, [r3]
 319:bluetooth_rxtx.c **** 	IO2IntEnF |= PIN_GIO6;     // Enable port 2.2 falling (CS active low)
 1767              		.loc 1 319 0
 1768 0018 074A     		ldr	r2, .L43+12
 1769 001a 074B     		ldr	r3, .L43+12
 1770 001c 1B68     		ldr	r3, [r3]
 1771 001e 43F00403 		orr	r3, r3, #4
 1772 0022 1360     		str	r3, [r2]
 320:bluetooth_rxtx.c **** }
 1773              		.loc 1 320 0
 1774 0024 BD46     		mov	sp, r7
 1775              		.cfi_def_cfa_register 13
 1776              		@ sp needed
 1777 0026 5DF8047B 		ldr	r7, [sp], #4
 1778              		.cfi_restore 7
 1779              		.cfi_def_cfa_offset 0
 1780 002a 7047     		bx	lr
 1781              	.L44:
 1782              		.align	2
 1783              	.L43:
 1784 002c 00000000 		.word	cs_trigger
 1785 0030 00E100E0 		.word	-536813312
 1786 0034 AC800240 		.word	1073905836
 1787 0038 B4800240 		.word	1073905844
 1788              		.cfi_endproc
 1789              	.LFE7:
 1791              		.section	.text.cs_trigger_disable,"ax",%progbits
 1792              		.align	2
 1793              		.thumb
 1794              		.thumb_func
 1796              	cs_trigger_disable:
 1797              	.LFB8:
 321:bluetooth_rxtx.c **** 
 322:bluetooth_rxtx.c **** static void cs_trigger_disable(void)
 323:bluetooth_rxtx.c **** {
 1798              		.loc 1 323 0
 1799              		.cfi_startproc
 1800              		@ args = 0, pretend = 0, frame = 0
 1801              		@ frame_needed = 1, uses_anonymous_args = 0
 1802              		@ link register save eliminated.
 1803 0000 80B4     		push	{r7}
 1804              		.cfi_def_cfa_offset 4
 1805              		.cfi_offset 7, -4
 1806 0002 00AF     		add	r7, sp, #0
 1807              		.cfi_def_cfa_register 7
 324:bluetooth_rxtx.c **** 	IO2IntEnF &= ~PIN_GIO6;    // Disable port 2.2 falling (CS active low)
 1808              		.loc 1 324 0
 1809 0004 094A     		ldr	r2, .L46
 1810 0006 094B     		ldr	r3, .L46
 1811 0008 1B68     		ldr	r3, [r3]
 1812 000a 23F00403 		bic	r3, r3, #4
 1813 000e 1360     		str	r3, [r2]
 325:bluetooth_rxtx.c **** 	IO2IntClr = PIN_GIO6;      // Clear pending
 1814              		.loc 1 325 0
 1815 0010 074B     		ldr	r3, .L46+4
 1816 0012 0422     		movs	r2, #4
 1817 0014 1A60     		str	r2, [r3]
ARM GAS  /tmp/ccSuvgbr.s 			page 37


 326:bluetooth_rxtx.c **** 	ICER0 = ICER0_ICE_EINT3;
 1818              		.loc 1 326 0
 1819 0016 074B     		ldr	r3, .L46+8
 1820 0018 4FF40012 		mov	r2, #2097152
 1821 001c 1A60     		str	r2, [r3]
 327:bluetooth_rxtx.c **** 	cs_trigger = 0;
 1822              		.loc 1 327 0
 1823 001e 064B     		ldr	r3, .L46+12
 1824 0020 0022     		movs	r2, #0
 1825 0022 1A70     		strb	r2, [r3]
 328:bluetooth_rxtx.c **** }
 1826              		.loc 1 328 0
 1827 0024 BD46     		mov	sp, r7
 1828              		.cfi_def_cfa_register 13
 1829              		@ sp needed
 1830 0026 5DF8047B 		ldr	r7, [sp], #4
 1831              		.cfi_restore 7
 1832              		.cfi_def_cfa_offset 0
 1833 002a 7047     		bx	lr
 1834              	.L47:
 1835              		.align	2
 1836              	.L46:
 1837 002c B4800240 		.word	1073905844
 1838 0030 AC800240 		.word	1073905836
 1839 0034 80E100E0 		.word	-536813184
 1840 0038 00000000 		.word	cs_trigger
 1841              		.cfi_endproc
 1842              	.LFE8:
 1844              		.section	.rodata
 1845 08bd 000000   		.align	2
 1846              	.LC3:
 1847 08c0 32303135 		.ascii	"2015-10-R1\000"
 1847      2D31302D 
 1847      523100
 1848              		.section	.text.vendor_request_handler,"ax",%progbits
 1849              		.align	2
 1850              		.thumb
 1851              		.thumb_func
 1853              	vendor_request_handler:
 1854              	.LFB9:
 329:bluetooth_rxtx.c **** 
 330:bluetooth_rxtx.c **** static int vendor_request_handler(u8 request, u16 *request_params, u8 *data, int *data_len)
 331:bluetooth_rxtx.c **** {
 1855              		.loc 1 331 0
 1856              		.cfi_startproc
 1857              		@ args = 0, pretend = 0, frame = 104
 1858              		@ frame_needed = 1, uses_anonymous_args = 0
 1859 0000 2DE9F04F 		push	{r4, r5, r6, r7, r8, r9, r10, fp, lr}
 1860              		.cfi_def_cfa_offset 36
 1861              		.cfi_offset 4, -36
 1862              		.cfi_offset 5, -32
 1863              		.cfi_offset 6, -28
 1864              		.cfi_offset 7, -24
 1865              		.cfi_offset 8, -20
 1866              		.cfi_offset 9, -16
 1867              		.cfi_offset 10, -12
 1868              		.cfi_offset 11, -8
ARM GAS  /tmp/ccSuvgbr.s 			page 38


 1869              		.cfi_offset 14, -4
 1870 0004 9BB0     		sub	sp, sp, #108
 1871              		.cfi_def_cfa_offset 144
 1872 0006 00AF     		add	r7, sp, #0
 1873              		.cfi_def_cfa_register 7
 1874 0008 B960     		str	r1, [r7, #8]
 1875 000a 7A60     		str	r2, [r7, #4]
 1876 000c 3B60     		str	r3, [r7]
 1877 000e 0346     		mov	r3, r0
 1878 0010 FB73     		strb	r3, [r7, #15]
 332:bluetooth_rxtx.c **** 	u32 command[5];
 333:bluetooth_rxtx.c **** 	u32 result[5];
 334:bluetooth_rxtx.c **** 	u64 ac_copy;
 335:bluetooth_rxtx.c **** 	u32 clock;
 336:bluetooth_rxtx.c **** 	int clock_offset;
 337:bluetooth_rxtx.c **** 	u8 length; // string length
 338:bluetooth_rxtx.c **** 	usb_pkt_rx *p = NULL;
 1879              		.loc 1 338 0
 1880 0012 0023     		movs	r3, #0
 1881 0014 BB64     		str	r3, [r7, #72]
 339:bluetooth_rxtx.c **** 	u16 reg_val;
 340:bluetooth_rxtx.c **** 
 341:bluetooth_rxtx.c **** 	switch (request) {
 1882              		.loc 1 341 0
 1883 0016 FB7B     		ldrb	r3, [r7, #15]	@ zero_extendqisi2
 1884 0018 3F2B     		cmp	r3, #63
 1885 001a 00F28785 		bhi	.L49
 1886 001e 01A2     		adr	r2, .L51
 1887 0020 52F823F0 		ldr	pc, [r2, r3, lsl #2]
 1888              		.p2align 2
 1889              	.L51:
 1890 0024 25010000 		.word	.L50+1
 1891 0028 2F010000 		.word	.L52+1
 1892 002c 2D0B0000 		.word	.L49+1
 1893 0030 3F010000 		.word	.L53+1
 1894 0034 61010000 		.word	.L54+1
 1895 0038 7D010000 		.word	.L55+1
 1896 003c 9F010000 		.word	.L56+1
 1897 0040 BB010000 		.word	.L57+1
 1898 0044 DD010000 		.word	.L58+1
 1899 0048 FD010000 		.word	.L59+1
 1900 004c 1F020000 		.word	.L60+1
 1901 0050 C3040000 		.word	.L61+1
 1902 0054 E9040000 		.word	.L62+1
 1903 0058 95020000 		.word	.L63+1
 1904 005c 9F020000 		.word	.L64+1
 1905 0060 3F020000 		.word	.L65+1
 1906 0064 7D030000 		.word	.L66+1
 1907 0068 9D030000 		.word	.L67+1
 1908 006c D5030000 		.word	.L68+1
 1909 0070 F5030000 		.word	.L69+1
 1910 0074 11040000 		.word	.L70+1
 1911 0078 9D040000 		.word	.L71+1
 1912 007c A5040000 		.word	.L72+1
 1913 0080 B7040000 		.word	.L73+1
 1914 0084 73050000 		.word	.L74+1
 1915 0088 91050000 		.word	.L75+1
ARM GAS  /tmp/ccSuvgbr.s 			page 39


 1916 008c 2D0B0000 		.word	.L49+1
 1917 0090 9D050000 		.word	.L76+1
 1918 0094 19040000 		.word	.L77+1
 1919 0098 35040000 		.word	.L78+1
 1920 009c 5D040000 		.word	.L79+1
 1921 00a0 55040000 		.word	.L80+1
 1922 00a4 65040000 		.word	.L81+1
 1923 00a8 61060000 		.word	.L82+1
 1924 00ac F9050000 		.word	.L83+1
 1925 00b0 D5060000 		.word	.L84+1
 1926 00b4 E3060000 		.word	.L85+1
 1927 00b8 F3060000 		.word	.L86+1
 1928 00bc 05070000 		.word	.L87+1
 1929 00c0 D5070000 		.word	.L88+1
 1930 00c4 4B080000 		.word	.L89+1
 1931 00c8 D9080000 		.word	.L90+1
 1932 00cc 61090000 		.word	.L91+1
 1933 00d0 83090000 		.word	.L92+1
 1934 00d4 B3090000 		.word	.L93+1
 1935 00d8 310B0000 		.word	.L154+1
 1936 00dc E5090000 		.word	.L95+1
 1937 00e0 FB090000 		.word	.L96+1
 1938 00e4 170A0000 		.word	.L97+1
 1939 00e8 2D0A0000 		.word	.L98+1
 1940 00ec 590A0000 		.word	.L99+1
 1941 00f0 7D080000 		.word	.L100+1
 1942 00f4 AF080000 		.word	.L101+1
 1943 00f8 750A0000 		.word	.L102+1
 1944 00fc B90A0000 		.word	.L103+1
 1945 0100 A3060000 		.word	.L104+1
 1946 0104 CB0A0000 		.word	.L105+1
 1947 0108 2D0B0000 		.word	.L49+1
 1948 010c A30A0000 		.word	.L106+1
 1949 0110 0F0B0000 		.word	.L107+1
 1950 0114 1B0B0000 		.word	.L108+1
 1951 0118 2D0B0000 		.word	.L49+1
 1952 011c 43080000 		.word	.L109+1
 1953 0120 45090000 		.word	.L110+1
 1954              		.p2align 1
 1955              	.L50:
 342:bluetooth_rxtx.c **** 
 343:bluetooth_rxtx.c **** 	case UBERTOOTH_PING:
 344:bluetooth_rxtx.c **** 		*data_len = 0;
 1956              		.loc 1 344 0
 1957 0124 3B68     		ldr	r3, [r7]
 1958 0126 0022     		movs	r2, #0
 1959 0128 1A60     		str	r2, [r3]
 345:bluetooth_rxtx.c **** 		break;
 1960              		.loc 1 345 0
 1961 012a 00F002BD 		b	.L111
 1962              	.L52:
 346:bluetooth_rxtx.c **** 
 347:bluetooth_rxtx.c **** 	case UBERTOOTH_RX_SYMBOLS:
 348:bluetooth_rxtx.c **** 		requested_mode = MODE_RX_SYMBOLS;
 1963              		.loc 1 348 0
 1964 012e A14B     		ldr	r3, .L155
 1965 0130 0122     		movs	r2, #1
ARM GAS  /tmp/ccSuvgbr.s 			page 40


 1966 0132 1A70     		strb	r2, [r3]
 349:bluetooth_rxtx.c **** 		*data_len = 0;
 1967              		.loc 1 349 0
 1968 0134 3B68     		ldr	r3, [r7]
 1969 0136 0022     		movs	r2, #0
 1970 0138 1A60     		str	r2, [r3]
 350:bluetooth_rxtx.c **** 		break;
 1971              		.loc 1 350 0
 1972 013a 00F0FABC 		b	.L111
 1973              	.L53:
 351:bluetooth_rxtx.c **** 
 352:bluetooth_rxtx.c **** 	case UBERTOOTH_GET_USRLED:
 353:bluetooth_rxtx.c **** 		data[0] = (USRLED) ? 1 : 0;
 1974              		.loc 1 353 0
 1975 013e 9E4B     		ldr	r3, .L155+4
 1976 0140 1B68     		ldr	r3, [r3]
 1977 0142 03F00203 		and	r3, r3, #2
 1978 0146 002B     		cmp	r3, #0
 1979 0148 14BF     		ite	ne
 1980 014a 0123     		movne	r3, #1
 1981 014c 0023     		moveq	r3, #0
 1982 014e DBB2     		uxtb	r3, r3
 1983 0150 1A46     		mov	r2, r3
 1984 0152 7B68     		ldr	r3, [r7, #4]
 1985 0154 1A70     		strb	r2, [r3]
 354:bluetooth_rxtx.c **** 		*data_len = 1;
 1986              		.loc 1 354 0
 1987 0156 3B68     		ldr	r3, [r7]
 1988 0158 0122     		movs	r2, #1
 1989 015a 1A60     		str	r2, [r3]
 355:bluetooth_rxtx.c **** 		break;
 1990              		.loc 1 355 0
 1991 015c 00F0E9BC 		b	.L111
 1992              	.L54:
 356:bluetooth_rxtx.c **** 
 357:bluetooth_rxtx.c **** 	case UBERTOOTH_SET_USRLED:
 358:bluetooth_rxtx.c **** 		if (request_params[0])
 1993              		.loc 1 358 0
 1994 0160 BB68     		ldr	r3, [r7, #8]
 1995 0162 1B88     		ldrh	r3, [r3]
 1996 0164 002B     		cmp	r3, #0
 1997 0166 04D0     		beq	.L112
 359:bluetooth_rxtx.c **** 			USRLED_SET;
 1998              		.loc 1 359 0
 1999 0168 944B     		ldr	r3, .L155+8
 2000 016a 0222     		movs	r2, #2
 2001 016c 1A60     		str	r2, [r3]
 360:bluetooth_rxtx.c **** 		else
 361:bluetooth_rxtx.c **** 			USRLED_CLR;
 362:bluetooth_rxtx.c **** 		break;
 2002              		.loc 1 362 0
 2003 016e 00F0E0BC 		b	.L111
 2004              	.L112:
 361:bluetooth_rxtx.c **** 		break;
 2005              		.loc 1 361 0
 2006 0172 934B     		ldr	r3, .L155+12
 2007 0174 0222     		movs	r2, #2
ARM GAS  /tmp/ccSuvgbr.s 			page 41


 2008 0176 1A60     		str	r2, [r3]
 2009              		.loc 1 362 0
 2010 0178 00F0DBBC 		b	.L111
 2011              	.L55:
 363:bluetooth_rxtx.c **** 
 364:bluetooth_rxtx.c **** 	case UBERTOOTH_GET_RXLED:
 365:bluetooth_rxtx.c **** 		data[0] = (RXLED) ? 1 : 0;
 2012              		.loc 1 365 0
 2013 017c 8E4B     		ldr	r3, .L155+4
 2014 017e 1B68     		ldr	r3, [r3]
 2015 0180 03F01003 		and	r3, r3, #16
 2016 0184 002B     		cmp	r3, #0
 2017 0186 14BF     		ite	ne
 2018 0188 0123     		movne	r3, #1
 2019 018a 0023     		moveq	r3, #0
 2020 018c DBB2     		uxtb	r3, r3
 2021 018e 1A46     		mov	r2, r3
 2022 0190 7B68     		ldr	r3, [r7, #4]
 2023 0192 1A70     		strb	r2, [r3]
 366:bluetooth_rxtx.c **** 		*data_len = 1;
 2024              		.loc 1 366 0
 2025 0194 3B68     		ldr	r3, [r7]
 2026 0196 0122     		movs	r2, #1
 2027 0198 1A60     		str	r2, [r3]
 367:bluetooth_rxtx.c **** 		break;
 2028              		.loc 1 367 0
 2029 019a 00F0CABC 		b	.L111
 2030              	.L56:
 368:bluetooth_rxtx.c **** 
 369:bluetooth_rxtx.c **** 	case UBERTOOTH_SET_RXLED:
 370:bluetooth_rxtx.c **** 		if (request_params[0])
 2031              		.loc 1 370 0
 2032 019e BB68     		ldr	r3, [r7, #8]
 2033 01a0 1B88     		ldrh	r3, [r3]
 2034 01a2 002B     		cmp	r3, #0
 2035 01a4 04D0     		beq	.L114
 371:bluetooth_rxtx.c **** 			RXLED_SET;
 2036              		.loc 1 371 0
 2037 01a6 854B     		ldr	r3, .L155+8
 2038 01a8 1022     		movs	r2, #16
 2039 01aa 1A60     		str	r2, [r3]
 372:bluetooth_rxtx.c **** 		else
 373:bluetooth_rxtx.c **** 			RXLED_CLR;
 374:bluetooth_rxtx.c **** 		break;
 2040              		.loc 1 374 0
 2041 01ac 00F0C1BC 		b	.L111
 2042              	.L114:
 373:bluetooth_rxtx.c **** 		break;
 2043              		.loc 1 373 0
 2044 01b0 834B     		ldr	r3, .L155+12
 2045 01b2 1022     		movs	r2, #16
 2046 01b4 1A60     		str	r2, [r3]
 2047              		.loc 1 374 0
 2048 01b6 00F0BCBC 		b	.L111
 2049              	.L57:
 375:bluetooth_rxtx.c **** 
 376:bluetooth_rxtx.c **** 	case UBERTOOTH_GET_TXLED:
ARM GAS  /tmp/ccSuvgbr.s 			page 42


 377:bluetooth_rxtx.c **** 		data[0] = (TXLED) ? 1 : 0;
 2050              		.loc 1 377 0
 2051 01ba 7F4B     		ldr	r3, .L155+4
 2052 01bc 1B68     		ldr	r3, [r3]
 2053 01be 03F48073 		and	r3, r3, #256
 2054 01c2 002B     		cmp	r3, #0
 2055 01c4 14BF     		ite	ne
 2056 01c6 0123     		movne	r3, #1
 2057 01c8 0023     		moveq	r3, #0
 2058 01ca DBB2     		uxtb	r3, r3
 2059 01cc 1A46     		mov	r2, r3
 2060 01ce 7B68     		ldr	r3, [r7, #4]
 2061 01d0 1A70     		strb	r2, [r3]
 378:bluetooth_rxtx.c **** 		*data_len = 1;
 2062              		.loc 1 378 0
 2063 01d2 3B68     		ldr	r3, [r7]
 2064 01d4 0122     		movs	r2, #1
 2065 01d6 1A60     		str	r2, [r3]
 379:bluetooth_rxtx.c **** 		break;
 2066              		.loc 1 379 0
 2067 01d8 00F0ABBC 		b	.L111
 2068              	.L58:
 380:bluetooth_rxtx.c **** 
 381:bluetooth_rxtx.c **** 	case UBERTOOTH_SET_TXLED:
 382:bluetooth_rxtx.c **** 		if (request_params[0])
 2069              		.loc 1 382 0
 2070 01dc BB68     		ldr	r3, [r7, #8]
 2071 01de 1B88     		ldrh	r3, [r3]
 2072 01e0 002B     		cmp	r3, #0
 2073 01e2 05D0     		beq	.L116
 383:bluetooth_rxtx.c **** 			TXLED_SET;
 2074              		.loc 1 383 0
 2075 01e4 754B     		ldr	r3, .L155+8
 2076 01e6 4FF48072 		mov	r2, #256
 2077 01ea 1A60     		str	r2, [r3]
 384:bluetooth_rxtx.c **** 		else
 385:bluetooth_rxtx.c **** 			TXLED_CLR;
 386:bluetooth_rxtx.c **** 		break;
 2078              		.loc 1 386 0
 2079 01ec 00F0A1BC 		b	.L111
 2080              	.L116:
 385:bluetooth_rxtx.c **** 		break;
 2081              		.loc 1 385 0
 2082 01f0 734B     		ldr	r3, .L155+12
 2083 01f2 4FF48072 		mov	r2, #256
 2084 01f6 1A60     		str	r2, [r3]
 2085              		.loc 1 386 0
 2086 01f8 00F09BBC 		b	.L111
 2087              	.L59:
 387:bluetooth_rxtx.c **** 
 388:bluetooth_rxtx.c **** 	case UBERTOOTH_GET_1V8:
 389:bluetooth_rxtx.c **** 		data[0] = (CC1V8) ? 1 : 0;
 2088              		.loc 1 389 0
 2089 01fc 6E4B     		ldr	r3, .L155+4
 2090 01fe 1B68     		ldr	r3, [r3]
 2091 0200 03F40073 		and	r3, r3, #512
 2092 0204 002B     		cmp	r3, #0
ARM GAS  /tmp/ccSuvgbr.s 			page 43


 2093 0206 14BF     		ite	ne
 2094 0208 0123     		movne	r3, #1
 2095 020a 0023     		moveq	r3, #0
 2096 020c DBB2     		uxtb	r3, r3
 2097 020e 1A46     		mov	r2, r3
 2098 0210 7B68     		ldr	r3, [r7, #4]
 2099 0212 1A70     		strb	r2, [r3]
 390:bluetooth_rxtx.c **** 		*data_len = 1;
 2100              		.loc 1 390 0
 2101 0214 3B68     		ldr	r3, [r7]
 2102 0216 0122     		movs	r2, #1
 2103 0218 1A60     		str	r2, [r3]
 391:bluetooth_rxtx.c **** 		break;
 2104              		.loc 1 391 0
 2105 021a 00F08ABC 		b	.L111
 2106              	.L60:
 392:bluetooth_rxtx.c **** 
 393:bluetooth_rxtx.c **** 	case UBERTOOTH_SET_1V8:
 394:bluetooth_rxtx.c **** 		if (request_params[0])
 2107              		.loc 1 394 0
 2108 021e BB68     		ldr	r3, [r7, #8]
 2109 0220 1B88     		ldrh	r3, [r3]
 2110 0222 002B     		cmp	r3, #0
 2111 0224 05D0     		beq	.L118
 395:bluetooth_rxtx.c **** 			CC1V8_SET;
 2112              		.loc 1 395 0
 2113 0226 654B     		ldr	r3, .L155+8
 2114 0228 4FF40072 		mov	r2, #512
 2115 022c 1A60     		str	r2, [r3]
 396:bluetooth_rxtx.c **** 		else
 397:bluetooth_rxtx.c **** 			CC1V8_CLR;
 398:bluetooth_rxtx.c **** 		break;
 2116              		.loc 1 398 0
 2117 022e 00F080BC 		b	.L111
 2118              	.L118:
 397:bluetooth_rxtx.c **** 		break;
 2119              		.loc 1 397 0
 2120 0232 634B     		ldr	r3, .L155+12
 2121 0234 4FF40072 		mov	r2, #512
 2122 0238 1A60     		str	r2, [r3]
 2123              		.loc 1 398 0
 2124 023a 00F07ABC 		b	.L111
 2125              	.L65:
 399:bluetooth_rxtx.c **** 
 400:bluetooth_rxtx.c **** 	case UBERTOOTH_GET_PARTNUM:
 401:bluetooth_rxtx.c **** 		command[0] = 54; /* read part number */
 2126              		.loc 1 401 0
 2127 023e 3623     		movs	r3, #54
 2128 0240 BB62     		str	r3, [r7, #40]
 402:bluetooth_rxtx.c **** 		iap_entry(command, result);
 2129              		.loc 1 402 0
 2130 0242 604B     		ldr	r3, .L155+16
 2131 0244 1B68     		ldr	r3, [r3]
 2132 0246 07F12801 		add	r1, r7, #40
 2133 024a 07F11402 		add	r2, r7, #20
 2134 024e 0846     		mov	r0, r1
 2135 0250 1146     		mov	r1, r2
ARM GAS  /tmp/ccSuvgbr.s 			page 44


 2136 0252 9847     		blx	r3
 403:bluetooth_rxtx.c **** 		data[0] = result[0] & 0xFF; /* status */
 2137              		.loc 1 403 0
 2138 0254 7B69     		ldr	r3, [r7, #20]
 2139 0256 DAB2     		uxtb	r2, r3
 2140 0258 7B68     		ldr	r3, [r7, #4]
 2141 025a 1A70     		strb	r2, [r3]
 404:bluetooth_rxtx.c **** 		data[1] = result[1] & 0xFF;
 2142              		.loc 1 404 0
 2143 025c 7B68     		ldr	r3, [r7, #4]
 2144 025e 0133     		adds	r3, r3, #1
 2145 0260 BA69     		ldr	r2, [r7, #24]
 2146 0262 D2B2     		uxtb	r2, r2
 2147 0264 1A70     		strb	r2, [r3]
 405:bluetooth_rxtx.c **** 		data[2] = (result[1] >> 8) & 0xFF;
 2148              		.loc 1 405 0
 2149 0266 7B68     		ldr	r3, [r7, #4]
 2150 0268 0233     		adds	r3, r3, #2
 2151 026a BA69     		ldr	r2, [r7, #24]
 2152 026c 120A     		lsrs	r2, r2, #8
 2153 026e D2B2     		uxtb	r2, r2
 2154 0270 1A70     		strb	r2, [r3]
 406:bluetooth_rxtx.c **** 		data[3] = (result[1] >> 16) & 0xFF;
 2155              		.loc 1 406 0
 2156 0272 7B68     		ldr	r3, [r7, #4]
 2157 0274 0333     		adds	r3, r3, #3
 2158 0276 BA69     		ldr	r2, [r7, #24]
 2159 0278 120C     		lsrs	r2, r2, #16
 2160 027a D2B2     		uxtb	r2, r2
 2161 027c 1A70     		strb	r2, [r3]
 407:bluetooth_rxtx.c **** 		data[4] = (result[1] >> 24) & 0xFF;
 2162              		.loc 1 407 0
 2163 027e 7B68     		ldr	r3, [r7, #4]
 2164 0280 0433     		adds	r3, r3, #4
 2165 0282 BA69     		ldr	r2, [r7, #24]
 2166 0284 120E     		lsrs	r2, r2, #24
 2167 0286 D2B2     		uxtb	r2, r2
 2168 0288 1A70     		strb	r2, [r3]
 408:bluetooth_rxtx.c **** 		*data_len = 5;
 2169              		.loc 1 408 0
 2170 028a 3B68     		ldr	r3, [r7]
 2171 028c 0522     		movs	r2, #5
 2172 028e 1A60     		str	r2, [r3]
 409:bluetooth_rxtx.c **** 		break;
 2173              		.loc 1 409 0
 2174 0290 00F04FBC 		b	.L111
 2175              	.L63:
 410:bluetooth_rxtx.c **** 
 411:bluetooth_rxtx.c **** 	case UBERTOOTH_RESET:
 412:bluetooth_rxtx.c **** 		requested_mode = MODE_RESET;
 2176              		.loc 1 412 0
 2177 0294 474B     		ldr	r3, .L155
 2178 0296 0B22     		movs	r2, #11
 2179 0298 1A70     		strb	r2, [r3]
 413:bluetooth_rxtx.c **** 		break;
 2180              		.loc 1 413 0
 2181 029a 00F04ABC 		b	.L111
ARM GAS  /tmp/ccSuvgbr.s 			page 45


 2182              	.L64:
 414:bluetooth_rxtx.c **** 
 415:bluetooth_rxtx.c **** 	case UBERTOOTH_GET_SERIAL:
 416:bluetooth_rxtx.c **** 		command[0] = 58; /* read device serial number */
 2183              		.loc 1 416 0
 2184 029e 3A23     		movs	r3, #58
 2185 02a0 BB62     		str	r3, [r7, #40]
 417:bluetooth_rxtx.c **** 		iap_entry(command, result);
 2186              		.loc 1 417 0
 2187 02a2 484B     		ldr	r3, .L155+16
 2188 02a4 1B68     		ldr	r3, [r3]
 2189 02a6 07F12801 		add	r1, r7, #40
 2190 02aa 07F11402 		add	r2, r7, #20
 2191 02ae 0846     		mov	r0, r1
 2192 02b0 1146     		mov	r1, r2
 2193 02b2 9847     		blx	r3
 418:bluetooth_rxtx.c **** 		data[0] = result[0] & 0xFF; /* status */
 2194              		.loc 1 418 0
 2195 02b4 7B69     		ldr	r3, [r7, #20]
 2196 02b6 DAB2     		uxtb	r2, r3
 2197 02b8 7B68     		ldr	r3, [r7, #4]
 2198 02ba 1A70     		strb	r2, [r3]
 419:bluetooth_rxtx.c **** 		data[1] = result[1] & 0xFF;
 2199              		.loc 1 419 0
 2200 02bc 7B68     		ldr	r3, [r7, #4]
 2201 02be 0133     		adds	r3, r3, #1
 2202 02c0 BA69     		ldr	r2, [r7, #24]
 2203 02c2 D2B2     		uxtb	r2, r2
 2204 02c4 1A70     		strb	r2, [r3]
 420:bluetooth_rxtx.c **** 		data[2] = (result[1] >> 8) & 0xFF;
 2205              		.loc 1 420 0
 2206 02c6 7B68     		ldr	r3, [r7, #4]
 2207 02c8 0233     		adds	r3, r3, #2
 2208 02ca BA69     		ldr	r2, [r7, #24]
 2209 02cc 120A     		lsrs	r2, r2, #8
 2210 02ce D2B2     		uxtb	r2, r2
 2211 02d0 1A70     		strb	r2, [r3]
 421:bluetooth_rxtx.c **** 		data[3] = (result[1] >> 16) & 0xFF;
 2212              		.loc 1 421 0
 2213 02d2 7B68     		ldr	r3, [r7, #4]
 2214 02d4 0333     		adds	r3, r3, #3
 2215 02d6 BA69     		ldr	r2, [r7, #24]
 2216 02d8 120C     		lsrs	r2, r2, #16
 2217 02da D2B2     		uxtb	r2, r2
 2218 02dc 1A70     		strb	r2, [r3]
 422:bluetooth_rxtx.c **** 		data[4] = (result[1] >> 24) & 0xFF;
 2219              		.loc 1 422 0
 2220 02de 7B68     		ldr	r3, [r7, #4]
 2221 02e0 0433     		adds	r3, r3, #4
 2222 02e2 BA69     		ldr	r2, [r7, #24]
 2223 02e4 120E     		lsrs	r2, r2, #24
 2224 02e6 D2B2     		uxtb	r2, r2
 2225 02e8 1A70     		strb	r2, [r3]
 423:bluetooth_rxtx.c **** 		data[5] = result[2] & 0xFF;
 2226              		.loc 1 423 0
 2227 02ea 7B68     		ldr	r3, [r7, #4]
 2228 02ec 0533     		adds	r3, r3, #5
ARM GAS  /tmp/ccSuvgbr.s 			page 46


 2229 02ee FA69     		ldr	r2, [r7, #28]
 2230 02f0 D2B2     		uxtb	r2, r2
 2231 02f2 1A70     		strb	r2, [r3]
 424:bluetooth_rxtx.c **** 		data[6] = (result[2] >> 8) & 0xFF;
 2232              		.loc 1 424 0
 2233 02f4 7B68     		ldr	r3, [r7, #4]
 2234 02f6 0633     		adds	r3, r3, #6
 2235 02f8 FA69     		ldr	r2, [r7, #28]
 2236 02fa 120A     		lsrs	r2, r2, #8
 2237 02fc D2B2     		uxtb	r2, r2
 2238 02fe 1A70     		strb	r2, [r3]
 425:bluetooth_rxtx.c **** 		data[7] = (result[2] >> 16) & 0xFF;
 2239              		.loc 1 425 0
 2240 0300 7B68     		ldr	r3, [r7, #4]
 2241 0302 0733     		adds	r3, r3, #7
 2242 0304 FA69     		ldr	r2, [r7, #28]
 2243 0306 120C     		lsrs	r2, r2, #16
 2244 0308 D2B2     		uxtb	r2, r2
 2245 030a 1A70     		strb	r2, [r3]
 426:bluetooth_rxtx.c **** 		data[8] = (result[2] >> 24) & 0xFF;
 2246              		.loc 1 426 0
 2247 030c 7B68     		ldr	r3, [r7, #4]
 2248 030e 0833     		adds	r3, r3, #8
 2249 0310 FA69     		ldr	r2, [r7, #28]
 2250 0312 120E     		lsrs	r2, r2, #24
 2251 0314 D2B2     		uxtb	r2, r2
 2252 0316 1A70     		strb	r2, [r3]
 427:bluetooth_rxtx.c **** 		data[9] = result[3] & 0xFF;
 2253              		.loc 1 427 0
 2254 0318 7B68     		ldr	r3, [r7, #4]
 2255 031a 0933     		adds	r3, r3, #9
 2256 031c 3A6A     		ldr	r2, [r7, #32]
 2257 031e D2B2     		uxtb	r2, r2
 2258 0320 1A70     		strb	r2, [r3]
 428:bluetooth_rxtx.c **** 		data[10] = (result[3] >> 8) & 0xFF;
 2259              		.loc 1 428 0
 2260 0322 7B68     		ldr	r3, [r7, #4]
 2261 0324 0A33     		adds	r3, r3, #10
 2262 0326 3A6A     		ldr	r2, [r7, #32]
 2263 0328 120A     		lsrs	r2, r2, #8
 2264 032a D2B2     		uxtb	r2, r2
 2265 032c 1A70     		strb	r2, [r3]
 429:bluetooth_rxtx.c **** 		data[11] = (result[3] >> 16) & 0xFF;
 2266              		.loc 1 429 0
 2267 032e 7B68     		ldr	r3, [r7, #4]
 2268 0330 0B33     		adds	r3, r3, #11
 2269 0332 3A6A     		ldr	r2, [r7, #32]
 2270 0334 120C     		lsrs	r2, r2, #16
 2271 0336 D2B2     		uxtb	r2, r2
 2272 0338 1A70     		strb	r2, [r3]
 430:bluetooth_rxtx.c **** 		data[12] = (result[3] >> 24) & 0xFF;
 2273              		.loc 1 430 0
 2274 033a 7B68     		ldr	r3, [r7, #4]
 2275 033c 0C33     		adds	r3, r3, #12
 2276 033e 3A6A     		ldr	r2, [r7, #32]
 2277 0340 120E     		lsrs	r2, r2, #24
 2278 0342 D2B2     		uxtb	r2, r2
ARM GAS  /tmp/ccSuvgbr.s 			page 47


 2279 0344 1A70     		strb	r2, [r3]
 431:bluetooth_rxtx.c **** 		data[13] = result[4] & 0xFF;
 2280              		.loc 1 431 0
 2281 0346 7B68     		ldr	r3, [r7, #4]
 2282 0348 0D33     		adds	r3, r3, #13
 2283 034a 7A6A     		ldr	r2, [r7, #36]
 2284 034c D2B2     		uxtb	r2, r2
 2285 034e 1A70     		strb	r2, [r3]
 432:bluetooth_rxtx.c **** 		data[14] = (result[4] >> 8) & 0xFF;
 2286              		.loc 1 432 0
 2287 0350 7B68     		ldr	r3, [r7, #4]
 2288 0352 0E33     		adds	r3, r3, #14
 2289 0354 7A6A     		ldr	r2, [r7, #36]
 2290 0356 120A     		lsrs	r2, r2, #8
 2291 0358 D2B2     		uxtb	r2, r2
 2292 035a 1A70     		strb	r2, [r3]
 433:bluetooth_rxtx.c **** 		data[15] = (result[4] >> 16) & 0xFF;
 2293              		.loc 1 433 0
 2294 035c 7B68     		ldr	r3, [r7, #4]
 2295 035e 0F33     		adds	r3, r3, #15
 2296 0360 7A6A     		ldr	r2, [r7, #36]
 2297 0362 120C     		lsrs	r2, r2, #16
 2298 0364 D2B2     		uxtb	r2, r2
 2299 0366 1A70     		strb	r2, [r3]
 434:bluetooth_rxtx.c **** 		data[16] = (result[4] >> 24) & 0xFF;
 2300              		.loc 1 434 0
 2301 0368 7B68     		ldr	r3, [r7, #4]
 2302 036a 1033     		adds	r3, r3, #16
 2303 036c 7A6A     		ldr	r2, [r7, #36]
 2304 036e 120E     		lsrs	r2, r2, #24
 2305 0370 D2B2     		uxtb	r2, r2
 2306 0372 1A70     		strb	r2, [r3]
 435:bluetooth_rxtx.c **** 		*data_len = 17;
 2307              		.loc 1 435 0
 2308 0374 3B68     		ldr	r3, [r7]
 2309 0376 1122     		movs	r2, #17
 2310 0378 1A60     		str	r2, [r3]
 436:bluetooth_rxtx.c **** 		break;
 2311              		.loc 1 436 0
 2312 037a DAE3     		b	.L111
 2313              	.L66:
 437:bluetooth_rxtx.c **** 
 438:bluetooth_rxtx.c **** #ifdef UBERTOOTH_ONE
 439:bluetooth_rxtx.c **** 	case UBERTOOTH_GET_PAEN:
 440:bluetooth_rxtx.c **** 		data[0] = (PAEN) ? 1 : 0;
 2314              		.loc 1 440 0
 2315 037c 124B     		ldr	r3, .L155+20
 2316 037e 1B68     		ldr	r3, [r3]
 2317 0380 03F08003 		and	r3, r3, #128
 2318 0384 002B     		cmp	r3, #0
 2319 0386 14BF     		ite	ne
 2320 0388 0123     		movne	r3, #1
 2321 038a 0023     		moveq	r3, #0
 2322 038c DBB2     		uxtb	r3, r3
 2323 038e 1A46     		mov	r2, r3
 2324 0390 7B68     		ldr	r3, [r7, #4]
 2325 0392 1A70     		strb	r2, [r3]
ARM GAS  /tmp/ccSuvgbr.s 			page 48


 441:bluetooth_rxtx.c **** 		*data_len = 1;
 2326              		.loc 1 441 0
 2327 0394 3B68     		ldr	r3, [r7]
 2328 0396 0122     		movs	r2, #1
 2329 0398 1A60     		str	r2, [r3]
 442:bluetooth_rxtx.c **** 		break;
 2330              		.loc 1 442 0
 2331 039a CAE3     		b	.L111
 2332              	.L67:
 443:bluetooth_rxtx.c **** 
 444:bluetooth_rxtx.c **** 	case UBERTOOTH_SET_PAEN:
 445:bluetooth_rxtx.c **** 		if (request_params[0])
 2333              		.loc 1 445 0
 2334 039c BB68     		ldr	r3, [r7, #8]
 2335 039e 1B88     		ldrh	r3, [r3]
 2336 03a0 002B     		cmp	r3, #0
 2337 03a2 03D0     		beq	.L120
 446:bluetooth_rxtx.c **** 			PAEN_SET;
 2338              		.loc 1 446 0
 2339 03a4 094B     		ldr	r3, .L155+24
 2340 03a6 8022     		movs	r2, #128
 2341 03a8 1A60     		str	r2, [r3]
 447:bluetooth_rxtx.c **** 		else
 448:bluetooth_rxtx.c **** 			PAEN_CLR;
 449:bluetooth_rxtx.c **** 		break;
 2342              		.loc 1 449 0
 2343 03aa C2E3     		b	.L111
 2344              	.L120:
 448:bluetooth_rxtx.c **** 		break;
 2345              		.loc 1 448 0
 2346 03ac 084B     		ldr	r3, .L155+28
 2347 03ae 8022     		movs	r2, #128
 2348 03b0 1A60     		str	r2, [r3]
 2349              		.loc 1 449 0
 2350 03b2 BEE3     		b	.L111
 2351              	.L156:
 2352              		.align	2
 2353              	.L155:
 2354 03b4 00000000 		.word	requested_mode
 2355 03b8 34C00920 		.word	537509940
 2356 03bc 38C00920 		.word	537509944
 2357 03c0 3CC00920 		.word	537509948
 2358 03c4 00000000 		.word	iap_entry
 2359 03c8 54C00920 		.word	537509972
 2360 03cc 58C00920 		.word	537509976
 2361 03d0 5CC00920 		.word	537509980
 2362              	.L68:
 450:bluetooth_rxtx.c **** 
 451:bluetooth_rxtx.c **** 	case UBERTOOTH_GET_HGM:
 452:bluetooth_rxtx.c **** 		data[0] = (HGM) ? 1 : 0;
 2363              		.loc 1 452 0
 2364 03d4 924B     		ldr	r3, .L157
 2365 03d6 1B68     		ldr	r3, [r3]
 2366 03d8 03F48073 		and	r3, r3, #256
 2367 03dc 002B     		cmp	r3, #0
 2368 03de 14BF     		ite	ne
 2369 03e0 0123     		movne	r3, #1
ARM GAS  /tmp/ccSuvgbr.s 			page 49


 2370 03e2 0023     		moveq	r3, #0
 2371 03e4 DBB2     		uxtb	r3, r3
 2372 03e6 1A46     		mov	r2, r3
 2373 03e8 7B68     		ldr	r3, [r7, #4]
 2374 03ea 1A70     		strb	r2, [r3]
 453:bluetooth_rxtx.c **** 		*data_len = 1;
 2375              		.loc 1 453 0
 2376 03ec 3B68     		ldr	r3, [r7]
 2377 03ee 0122     		movs	r2, #1
 2378 03f0 1A60     		str	r2, [r3]
 454:bluetooth_rxtx.c **** 		break;
 2379              		.loc 1 454 0
 2380 03f2 9EE3     		b	.L111
 2381              	.L69:
 455:bluetooth_rxtx.c **** 
 456:bluetooth_rxtx.c **** 	case UBERTOOTH_SET_HGM:
 457:bluetooth_rxtx.c **** 		if (request_params[0])
 2382              		.loc 1 457 0
 2383 03f4 BB68     		ldr	r3, [r7, #8]
 2384 03f6 1B88     		ldrh	r3, [r3]
 2385 03f8 002B     		cmp	r3, #0
 2386 03fa 04D0     		beq	.L122
 458:bluetooth_rxtx.c **** 			HGM_SET;
 2387              		.loc 1 458 0
 2388 03fc 894B     		ldr	r3, .L157+4
 2389 03fe 4FF48072 		mov	r2, #256
 2390 0402 1A60     		str	r2, [r3]
 459:bluetooth_rxtx.c **** 		else
 460:bluetooth_rxtx.c **** 			HGM_CLR;
 461:bluetooth_rxtx.c **** 		break;
 2391              		.loc 1 461 0
 2392 0404 95E3     		b	.L111
 2393              	.L122:
 460:bluetooth_rxtx.c **** 		break;
 2394              		.loc 1 460 0
 2395 0406 884B     		ldr	r3, .L157+8
 2396 0408 4FF48072 		mov	r2, #256
 2397 040c 1A60     		str	r2, [r3]
 2398              		.loc 1 461 0
 2399 040e 90E3     		b	.L111
 2400              	.L70:
 462:bluetooth_rxtx.c **** #endif
 463:bluetooth_rxtx.c **** 
 464:bluetooth_rxtx.c **** #ifdef TX_ENABLE
 465:bluetooth_rxtx.c **** 	case UBERTOOTH_TX_TEST:
 466:bluetooth_rxtx.c **** 		requested_mode = MODE_TX_TEST;
 2401              		.loc 1 466 0
 2402 0410 864B     		ldr	r3, .L157+12
 2403 0412 0322     		movs	r2, #3
 2404 0414 1A70     		strb	r2, [r3]
 467:bluetooth_rxtx.c **** 		break;
 2405              		.loc 1 467 0
 2406 0416 8CE3     		b	.L111
 2407              	.L77:
 468:bluetooth_rxtx.c **** 
 469:bluetooth_rxtx.c **** 	case UBERTOOTH_GET_PALEVEL:
 470:bluetooth_rxtx.c **** 		data[0] = cc2400_get(FREND) & 0x7;
ARM GAS  /tmp/ccSuvgbr.s 			page 50


 2408              		.loc 1 470 0
 2409 0418 0520     		movs	r0, #5
 2410 041a FFF7FEFF 		bl	cc2400_get
 2411 041e 0346     		mov	r3, r0
 2412 0420 DBB2     		uxtb	r3, r3
 2413 0422 03F00703 		and	r3, r3, #7
 2414 0426 DAB2     		uxtb	r2, r3
 2415 0428 7B68     		ldr	r3, [r7, #4]
 2416 042a 1A70     		strb	r2, [r3]
 471:bluetooth_rxtx.c **** 		*data_len = 1;
 2417              		.loc 1 471 0
 2418 042c 3B68     		ldr	r3, [r7]
 2419 042e 0122     		movs	r2, #1
 2420 0430 1A60     		str	r2, [r3]
 472:bluetooth_rxtx.c **** 		break;
 2421              		.loc 1 472 0
 2422 0432 7EE3     		b	.L111
 2423              	.L78:
 473:bluetooth_rxtx.c **** 
 474:bluetooth_rxtx.c **** 	case UBERTOOTH_SET_PALEVEL:
 475:bluetooth_rxtx.c **** 		if( request_params[0] < 8 ) {
 2424              		.loc 1 475 0
 2425 0434 BB68     		ldr	r3, [r7, #8]
 2426 0436 1B88     		ldrh	r3, [r3]
 2427 0438 072B     		cmp	r3, #7
 2428 043a 09D8     		bhi	.L124
 476:bluetooth_rxtx.c **** 			cc2400_set(FREND, 8 | request_params[0]);
 2429              		.loc 1 476 0
 2430 043c BB68     		ldr	r3, [r7, #8]
 2431 043e 1B88     		ldrh	r3, [r3]
 2432 0440 43F00803 		orr	r3, r3, #8
 2433 0444 9BB2     		uxth	r3, r3
 2434 0446 0520     		movs	r0, #5
 2435 0448 1946     		mov	r1, r3
 2436 044a FFF7FEFF 		bl	cc2400_set
 477:bluetooth_rxtx.c **** 		} else {
 478:bluetooth_rxtx.c **** 			return 0;
 479:bluetooth_rxtx.c **** 		}
 480:bluetooth_rxtx.c **** 		break;
 2437              		.loc 1 480 0
 2438 044e 70E3     		b	.L111
 2439              	.L124:
 478:bluetooth_rxtx.c **** 		}
 2440              		.loc 1 478 0
 2441 0450 0023     		movs	r3, #0
 2442 0452 6FE3     		b	.L153
 2443              	.L80:
 481:bluetooth_rxtx.c **** 
 482:bluetooth_rxtx.c **** 	case UBERTOOTH_RANGE_TEST:
 483:bluetooth_rxtx.c **** 		requested_mode = MODE_RANGE_TEST;
 2444              		.loc 1 483 0
 2445 0454 754B     		ldr	r3, .L157+12
 2446 0456 0522     		movs	r2, #5
 2447 0458 1A70     		strb	r2, [r3]
 484:bluetooth_rxtx.c **** 		break;
 2448              		.loc 1 484 0
 2449 045a 6AE3     		b	.L111
ARM GAS  /tmp/ccSuvgbr.s 			page 51


 2450              	.L79:
 485:bluetooth_rxtx.c **** 
 486:bluetooth_rxtx.c **** 	case UBERTOOTH_REPEATER:
 487:bluetooth_rxtx.c **** 		requested_mode = MODE_REPEATER;
 2451              		.loc 1 487 0
 2452 045c 734B     		ldr	r3, .L157+12
 2453 045e 0622     		movs	r2, #6
 2454 0460 1A70     		strb	r2, [r3]
 488:bluetooth_rxtx.c **** 		break;
 2455              		.loc 1 488 0
 2456 0462 66E3     		b	.L111
 2457              	.L81:
 489:bluetooth_rxtx.c **** #endif
 490:bluetooth_rxtx.c **** 
 491:bluetooth_rxtx.c **** 	case UBERTOOTH_RANGE_CHECK:
 492:bluetooth_rxtx.c **** 		data[0] = rr.valid;
 2458              		.loc 1 492 0
 2459 0464 724B     		ldr	r3, .L157+16
 2460 0466 1A78     		ldrb	r2, [r3]	@ zero_extendqisi2
 2461 0468 7B68     		ldr	r3, [r7, #4]
 2462 046a 1A70     		strb	r2, [r3]
 493:bluetooth_rxtx.c **** 		data[1] = rr.request_pa;
 2463              		.loc 1 493 0
 2464 046c 7B68     		ldr	r3, [r7, #4]
 2465 046e 0133     		adds	r3, r3, #1
 2466 0470 6F4A     		ldr	r2, .L157+16
 2467 0472 5278     		ldrb	r2, [r2, #1]	@ zero_extendqisi2
 2468 0474 1A70     		strb	r2, [r3]
 494:bluetooth_rxtx.c **** 		data[2] = rr.request_num;
 2469              		.loc 1 494 0
 2470 0476 7B68     		ldr	r3, [r7, #4]
 2471 0478 0233     		adds	r3, r3, #2
 2472 047a 6D4A     		ldr	r2, .L157+16
 2473 047c 9278     		ldrb	r2, [r2, #2]	@ zero_extendqisi2
 2474 047e 1A70     		strb	r2, [r3]
 495:bluetooth_rxtx.c **** 		data[3] = rr.reply_pa;
 2475              		.loc 1 495 0
 2476 0480 7B68     		ldr	r3, [r7, #4]
 2477 0482 0333     		adds	r3, r3, #3
 2478 0484 6A4A     		ldr	r2, .L157+16
 2479 0486 D278     		ldrb	r2, [r2, #3]	@ zero_extendqisi2
 2480 0488 1A70     		strb	r2, [r3]
 496:bluetooth_rxtx.c **** 		data[4] = rr.reply_num;
 2481              		.loc 1 496 0
 2482 048a 7B68     		ldr	r3, [r7, #4]
 2483 048c 0433     		adds	r3, r3, #4
 2484 048e 684A     		ldr	r2, .L157+16
 2485 0490 1279     		ldrb	r2, [r2, #4]	@ zero_extendqisi2
 2486 0492 1A70     		strb	r2, [r3]
 497:bluetooth_rxtx.c **** 		*data_len = 5;
 2487              		.loc 1 497 0
 2488 0494 3B68     		ldr	r3, [r7]
 2489 0496 0522     		movs	r2, #5
 2490 0498 1A60     		str	r2, [r3]
 498:bluetooth_rxtx.c **** 		break;
 2491              		.loc 1 498 0
 2492 049a 4AE3     		b	.L111
ARM GAS  /tmp/ccSuvgbr.s 			page 52


 2493              	.L71:
 499:bluetooth_rxtx.c **** 
 500:bluetooth_rxtx.c **** 	case UBERTOOTH_STOP:
 501:bluetooth_rxtx.c **** 		requested_mode = MODE_IDLE;
 2494              		.loc 1 501 0
 2495 049c 634B     		ldr	r3, .L157+12
 2496 049e 0022     		movs	r2, #0
 2497 04a0 1A70     		strb	r2, [r3]
 502:bluetooth_rxtx.c **** 		break;
 2498              		.loc 1 502 0
 2499 04a2 46E3     		b	.L111
 2500              	.L72:
 503:bluetooth_rxtx.c **** 
 504:bluetooth_rxtx.c **** 	case UBERTOOTH_GET_MOD:
 505:bluetooth_rxtx.c **** 		data[0] = modulation;
 2501              		.loc 1 505 0
 2502 04a4 634B     		ldr	r3, .L157+20
 2503 04a6 1B78     		ldrb	r3, [r3]
 2504 04a8 DAB2     		uxtb	r2, r3
 2505 04aa 7B68     		ldr	r3, [r7, #4]
 2506 04ac 1A70     		strb	r2, [r3]
 506:bluetooth_rxtx.c **** 		*data_len = 1;
 2507              		.loc 1 506 0
 2508 04ae 3B68     		ldr	r3, [r7]
 2509 04b0 0122     		movs	r2, #1
 2510 04b2 1A60     		str	r2, [r3]
 507:bluetooth_rxtx.c **** 		break;
 2511              		.loc 1 507 0
 2512 04b4 3DE3     		b	.L111
 2513              	.L73:
 508:bluetooth_rxtx.c **** 
 509:bluetooth_rxtx.c **** 	case UBERTOOTH_SET_MOD:
 510:bluetooth_rxtx.c **** 		modulation = request_params[0];
 2514              		.loc 1 510 0
 2515 04b6 BB68     		ldr	r3, [r7, #8]
 2516 04b8 1B88     		ldrh	r3, [r3]
 2517 04ba DAB2     		uxtb	r2, r3
 2518 04bc 5D4B     		ldr	r3, .L157+20
 2519 04be 1A70     		strb	r2, [r3]
 511:bluetooth_rxtx.c **** 		break;
 2520              		.loc 1 511 0
 2521 04c0 37E3     		b	.L111
 2522              	.L61:
 512:bluetooth_rxtx.c **** 
 513:bluetooth_rxtx.c **** 	case UBERTOOTH_GET_CHANNEL:
 514:bluetooth_rxtx.c **** 		data[0] = channel & 0xFF;
 2523              		.loc 1 514 0
 2524 04c2 5D4B     		ldr	r3, .L157+24
 2525 04c4 1B88     		ldrh	r3, [r3]	@ movhi
 2526 04c6 9BB2     		uxth	r3, r3
 2527 04c8 DAB2     		uxtb	r2, r3
 2528 04ca 7B68     		ldr	r3, [r7, #4]
 2529 04cc 1A70     		strb	r2, [r3]
 515:bluetooth_rxtx.c **** 		data[1] = (channel >> 8) & 0xFF;
 2530              		.loc 1 515 0
 2531 04ce 7B68     		ldr	r3, [r7, #4]
 2532 04d0 0133     		adds	r3, r3, #1
ARM GAS  /tmp/ccSuvgbr.s 			page 53


 2533 04d2 594A     		ldr	r2, .L157+24
 2534 04d4 1288     		ldrh	r2, [r2]	@ movhi
 2535 04d6 92B2     		uxth	r2, r2
 2536 04d8 120A     		lsrs	r2, r2, #8
 2537 04da 92B2     		uxth	r2, r2
 2538 04dc D2B2     		uxtb	r2, r2
 2539 04de 1A70     		strb	r2, [r3]
 516:bluetooth_rxtx.c **** 		*data_len = 2;
 2540              		.loc 1 516 0
 2541 04e0 3B68     		ldr	r3, [r7]
 2542 04e2 0222     		movs	r2, #2
 2543 04e4 1A60     		str	r2, [r3]
 517:bluetooth_rxtx.c **** 		break;
 2544              		.loc 1 517 0
 2545 04e6 24E3     		b	.L111
 2546              	.L62:
 518:bluetooth_rxtx.c **** 
 519:bluetooth_rxtx.c **** 	case UBERTOOTH_SET_CHANNEL:
 520:bluetooth_rxtx.c **** 		requested_channel = request_params[0];
 2547              		.loc 1 520 0
 2548 04e8 BB68     		ldr	r3, [r7, #8]
 2549 04ea 1A88     		ldrh	r2, [r3]
 2550 04ec 534B     		ldr	r3, .L157+28
 2551 04ee 1A80     		strh	r2, [r3]	@ movhi
 521:bluetooth_rxtx.c **** 		/* bluetooth band sweep mode, start at channel 2402 */
 522:bluetooth_rxtx.c **** 		if (requested_channel > MAX_FREQ) {
 2552              		.loc 1 522 0
 2553 04f0 524B     		ldr	r3, .L157+28
 2554 04f2 1B88     		ldrh	r3, [r3]	@ movhi
 2555 04f4 9BB2     		uxth	r3, r3
 2556 04f6 40F6EA22 		movw	r2, #2794
 2557 04fa 9342     		cmp	r3, r2
 2558 04fc 07D9     		bls	.L127
 523:bluetooth_rxtx.c **** 			hop_mode = HOP_SWEEP;
 2559              		.loc 1 523 0
 2560 04fe 504B     		ldr	r3, .L157+32
 2561 0500 0122     		movs	r2, #1
 2562 0502 1A70     		strb	r2, [r3]
 524:bluetooth_rxtx.c **** 			requested_channel = 2402;
 2563              		.loc 1 524 0
 2564 0504 4D4B     		ldr	r3, .L157+28
 2565 0506 40F66212 		movw	r2, #2402
 2566 050a 1A80     		strh	r2, [r3]	@ movhi
 2567 050c 20E0     		b	.L128
 2568              	.L127:
 525:bluetooth_rxtx.c **** 		}
 526:bluetooth_rxtx.c **** 		/* fixed channel mode, can be outside bluetooth band */
 527:bluetooth_rxtx.c **** 		else {
 528:bluetooth_rxtx.c **** 			hop_mode = HOP_NONE;
 2569              		.loc 1 528 0
 2570 050e 4C4B     		ldr	r3, .L157+32
 2571 0510 0022     		movs	r2, #0
 2572 0512 1A70     		strb	r2, [r3]
 529:bluetooth_rxtx.c **** 			requested_channel = MAX(requested_channel, MIN_FREQ);
 2573              		.loc 1 529 0
 2574 0514 494B     		ldr	r3, .L157+28
 2575 0516 1B88     		ldrh	r3, [r3]	@ movhi
ARM GAS  /tmp/ccSuvgbr.s 			page 54


 2576 0518 9BB2     		uxth	r3, r3
 2577 051a 40F6DC02 		movw	r2, #2268
 2578 051e 9342     		cmp	r3, r2
 2579 0520 03D9     		bls	.L129
 2580              		.loc 1 529 0 is_stmt 0 discriminator 1
 2581 0522 464B     		ldr	r3, .L157+28
 2582 0524 1B88     		ldrh	r3, [r3]	@ movhi
 2583 0526 9BB2     		uxth	r3, r3
 2584 0528 01E0     		b	.L130
 2585              	.L129:
 2586              		.loc 1 529 0 discriminator 2
 2587 052a 40F6DC03 		movw	r3, #2268
 2588              	.L130:
 2589              		.loc 1 529 0 discriminator 4
 2590 052e 434A     		ldr	r2, .L157+28
 2591 0530 1380     		strh	r3, [r2]	@ movhi
 530:bluetooth_rxtx.c **** 			requested_channel = MIN(requested_channel, MAX_FREQ);
 2592              		.loc 1 530 0 is_stmt 1 discriminator 4
 2593 0532 424B     		ldr	r3, .L157+28
 2594 0534 1B88     		ldrh	r3, [r3]	@ movhi
 2595 0536 9BB2     		uxth	r3, r3
 2596 0538 40F6E922 		movw	r2, #2793
 2597 053c 9342     		cmp	r3, r2
 2598 053e 03D8     		bhi	.L131
 2599              		.loc 1 530 0 is_stmt 0 discriminator 1
 2600 0540 3E4B     		ldr	r3, .L157+28
 2601 0542 1B88     		ldrh	r3, [r3]	@ movhi
 2602 0544 9BB2     		uxth	r3, r3
 2603 0546 01E0     		b	.L132
 2604              	.L131:
 2605              		.loc 1 530 0 discriminator 2
 2606 0548 40F6EA23 		movw	r3, #2794
 2607              	.L132:
 2608              		.loc 1 530 0 discriminator 4
 2609 054c 3B4A     		ldr	r2, .L157+28
 2610 054e 1380     		strh	r3, [r2]	@ movhi
 2611              	.L128:
 531:bluetooth_rxtx.c **** 		}
 532:bluetooth_rxtx.c **** 
 533:bluetooth_rxtx.c **** 		if (mode != MODE_BT_FOLLOW_LE) {
 2612              		.loc 1 533 0 is_stmt 1
 2613 0550 3C4B     		ldr	r3, .L157+36
 2614 0552 1B78     		ldrb	r3, [r3]
 2615 0554 DBB2     		uxtb	r3, r3
 2616 0556 092B     		cmp	r3, #9
 2617 0558 0AD0     		beq	.L133
 534:bluetooth_rxtx.c **** 			channel = requested_channel;
 2618              		.loc 1 534 0
 2619 055a 384B     		ldr	r3, .L157+28
 2620 055c 1B88     		ldrh	r3, [r3]	@ movhi
 2621 055e 9AB2     		uxth	r2, r3
 2622 0560 354B     		ldr	r3, .L157+24
 2623 0562 1A80     		strh	r2, [r3]	@ movhi
 535:bluetooth_rxtx.c **** 			requested_channel = 0;
 2624              		.loc 1 535 0
 2625 0564 354B     		ldr	r3, .L157+28
 2626 0566 0022     		movs	r2, #0
ARM GAS  /tmp/ccSuvgbr.s 			page 55


 2627 0568 1A80     		strh	r2, [r3]	@ movhi
 536:bluetooth_rxtx.c **** 
 537:bluetooth_rxtx.c **** 			/* CS threshold is mode-dependent. Update it after
 538:bluetooth_rxtx.c **** 			 * possible mode change. TODO - kludgy. */
 539:bluetooth_rxtx.c **** 			cs_threshold_calc_and_set();
 2628              		.loc 1 539 0
 2629 056a FFF7FEFF 		bl	cs_threshold_calc_and_set
 540:bluetooth_rxtx.c **** 		}
 541:bluetooth_rxtx.c **** 		break;
 2630              		.loc 1 541 0
 2631 056e E0E2     		b	.L111
 2632              	.L133:
 2633 0570 DFE2     		b	.L111
 2634              	.L74:
 542:bluetooth_rxtx.c **** 
 543:bluetooth_rxtx.c **** 	case UBERTOOTH_SET_ISP:
 544:bluetooth_rxtx.c **** 		command[0] = 57;
 2635              		.loc 1 544 0
 2636 0572 3923     		movs	r3, #57
 2637 0574 BB62     		str	r3, [r7, #40]
 545:bluetooth_rxtx.c **** 		iap_entry(command, result);
 2638              		.loc 1 545 0
 2639 0576 344B     		ldr	r3, .L157+40
 2640 0578 1B68     		ldr	r3, [r3]
 2641 057a 07F12801 		add	r1, r7, #40
 2642 057e 07F11402 		add	r2, r7, #20
 2643 0582 0846     		mov	r0, r1
 2644 0584 1146     		mov	r1, r2
 2645 0586 9847     		blx	r3
 546:bluetooth_rxtx.c **** 		*data_len = 0; /* should never return */
 2646              		.loc 1 546 0
 2647 0588 3B68     		ldr	r3, [r7]
 2648 058a 0022     		movs	r2, #0
 2649 058c 1A60     		str	r2, [r3]
 547:bluetooth_rxtx.c **** 		break;
 2650              		.loc 1 547 0
 2651 058e D0E2     		b	.L111
 2652              	.L75:
 548:bluetooth_rxtx.c **** 
 549:bluetooth_rxtx.c **** 	case UBERTOOTH_FLASH:
 550:bluetooth_rxtx.c **** 		bootloader_ctrl = DFU_MODE;
 2653              		.loc 1 550 0
 2654 0590 2E4B     		ldr	r3, .L157+44
 2655 0592 2F4A     		ldr	r2, .L157+48
 2656 0594 1A60     		str	r2, [r3]
 551:bluetooth_rxtx.c **** 		reset();
 2657              		.loc 1 551 0
 2658 0596 FFF7FEFF 		bl	reset
 552:bluetooth_rxtx.c **** 		break;
 2659              		.loc 1 552 0
 2660 059a CAE2     		b	.L111
 2661              	.L76:
 553:bluetooth_rxtx.c **** 
 554:bluetooth_rxtx.c **** 	case UBERTOOTH_SPECAN:
 555:bluetooth_rxtx.c **** 		if (request_params[0] < 2049 || request_params[0] > 3072 ||
 2662              		.loc 1 555 0
 2663 059c BB68     		ldr	r3, [r7, #8]
ARM GAS  /tmp/ccSuvgbr.s 			page 56


 2664 059e 1B88     		ldrh	r3, [r3]
 2665 05a0 B3F5006F 		cmp	r3, #2048
 2666 05a4 17D9     		bls	.L134
 2667              		.loc 1 555 0 is_stmt 0 discriminator 1
 2668 05a6 BB68     		ldr	r3, [r7, #8]
 2669 05a8 1B88     		ldrh	r3, [r3]
 2670 05aa B3F5406F 		cmp	r3, #3072
 2671 05ae 12D8     		bhi	.L134
 556:bluetooth_rxtx.c **** 				request_params[1] < 2049 || request_params[1] > 3072 ||
 2672              		.loc 1 556 0 is_stmt 1 discriminator 2
 2673 05b0 BB68     		ldr	r3, [r7, #8]
 2674 05b2 0233     		adds	r3, r3, #2
 2675 05b4 1B88     		ldrh	r3, [r3]
 555:bluetooth_rxtx.c **** 				request_params[1] < 2049 || request_params[1] > 3072 ||
 2676              		.loc 1 555 0 discriminator 2
 2677 05b6 B3F5006F 		cmp	r3, #2048
 2678 05ba 0CD9     		bls	.L134
 2679              		.loc 1 556 0
 2680 05bc BB68     		ldr	r3, [r7, #8]
 2681 05be 0233     		adds	r3, r3, #2
 2682 05c0 1B88     		ldrh	r3, [r3]
 2683 05c2 B3F5406F 		cmp	r3, #3072
 2684 05c6 06D8     		bhi	.L134
 557:bluetooth_rxtx.c **** 				request_params[1] < request_params[0])
 2685              		.loc 1 557 0 discriminator 1
 2686 05c8 BB68     		ldr	r3, [r7, #8]
 2687 05ca 0233     		adds	r3, r3, #2
 2688 05cc 1A88     		ldrh	r2, [r3]
 2689 05ce BB68     		ldr	r3, [r7, #8]
 2690 05d0 1B88     		ldrh	r3, [r3]
 556:bluetooth_rxtx.c **** 				request_params[1] < 2049 || request_params[1] > 3072 ||
 2691              		.loc 1 556 0 discriminator 1
 2692 05d2 9A42     		cmp	r2, r3
 2693 05d4 01D2     		bcs	.L135
 2694              	.L134:
 558:bluetooth_rxtx.c **** 			return 0;
 2695              		.loc 1 558 0
 2696 05d6 0023     		movs	r3, #0
 2697 05d8 ACE2     		b	.L153
 2698              	.L135:
 559:bluetooth_rxtx.c **** 		low_freq = request_params[0];
 2699              		.loc 1 559 0
 2700 05da BB68     		ldr	r3, [r7, #8]
 2701 05dc 1A88     		ldrh	r2, [r3]
 2702 05de 1D4B     		ldr	r3, .L157+52
 2703 05e0 1A80     		strh	r2, [r3]	@ movhi
 560:bluetooth_rxtx.c **** 		high_freq = request_params[1];
 2704              		.loc 1 560 0
 2705 05e2 BB68     		ldr	r3, [r7, #8]
 2706 05e4 5A88     		ldrh	r2, [r3, #2]
 2707 05e6 1C4B     		ldr	r3, .L157+56
 2708 05e8 1A80     		strh	r2, [r3]	@ movhi
 561:bluetooth_rxtx.c **** 		requested_mode = MODE_SPECAN;
 2709              		.loc 1 561 0
 2710 05ea 104B     		ldr	r3, .L157+12
 2711 05ec 0422     		movs	r2, #4
 2712 05ee 1A70     		strb	r2, [r3]
ARM GAS  /tmp/ccSuvgbr.s 			page 57


 562:bluetooth_rxtx.c **** 		*data_len = 0;
 2713              		.loc 1 562 0
 2714 05f0 3B68     		ldr	r3, [r7]
 2715 05f2 0022     		movs	r2, #0
 2716 05f4 1A60     		str	r2, [r3]
 563:bluetooth_rxtx.c **** 		break;
 2717              		.loc 1 563 0
 2718 05f6 9CE2     		b	.L111
 2719              	.L83:
 564:bluetooth_rxtx.c **** 
 565:bluetooth_rxtx.c **** 	case UBERTOOTH_LED_SPECAN:
 566:bluetooth_rxtx.c **** 		if (request_params[0] > 256)
 2720              		.loc 1 566 0
 2721 05f8 BB68     		ldr	r3, [r7, #8]
 2722 05fa 1B88     		ldrh	r3, [r3]
 2723 05fc B3F5807F 		cmp	r3, #256
 2724 0600 01D9     		bls	.L136
 567:bluetooth_rxtx.c **** 			return 0;
 2725              		.loc 1 567 0
 2726 0602 0023     		movs	r3, #0
 2727 0604 96E2     		b	.L153
 2728              	.L136:
 568:bluetooth_rxtx.c **** 		rssi_threshold = (int8_t)request_params[0];
 2729              		.loc 1 568 0
 2730 0606 BB68     		ldr	r3, [r7, #8]
 2731 0608 1B88     		ldrh	r3, [r3]
 2732 060a DAB2     		uxtb	r2, r3
 2733 060c 134B     		ldr	r3, .L157+60
 2734 060e 1A70     		strb	r2, [r3]
 569:bluetooth_rxtx.c **** 		requested_mode = MODE_LED_SPECAN;
 2735              		.loc 1 569 0
 2736 0610 064B     		ldr	r3, .L157+12
 2737 0612 0722     		movs	r2, #7
 2738 0614 1A70     		strb	r2, [r3]
 570:bluetooth_rxtx.c **** 		*data_len = 0;
 2739              		.loc 1 570 0
 2740 0616 3B68     		ldr	r3, [r7]
 2741 0618 0022     		movs	r2, #0
 2742 061a 1A60     		str	r2, [r3]
 571:bluetooth_rxtx.c **** 		break;
 2743              		.loc 1 571 0
 2744 061c 89E2     		b	.L111
 2745              	.L158:
 2746 061e 00BF     		.align	2
 2747              	.L157:
 2748 0620 54C00920 		.word	537509972
 2749 0624 58C00920 		.word	537509976
 2750 0628 5CC00920 		.word	537509980
 2751 062c 00000000 		.word	requested_mode
 2752 0630 00000000 		.word	rr
 2753 0634 00000000 		.word	modulation
 2754 0638 00000000 		.word	channel
 2755 063c 00000000 		.word	requested_channel
 2756 0640 00000000 		.word	hop_mode
 2757 0644 00000000 		.word	mode
 2758 0648 00000000 		.word	iap_entry
 2759 064c 00000000 		.word	bootloader_ctrl
ARM GAS  /tmp/ccSuvgbr.s 			page 58


 2760 0650 21BB0543 		.word	1124449057
 2761 0654 00000000 		.word	low_freq
 2762 0658 00000000 		.word	high_freq
 2763 065c 00000000 		.word	rssi_threshold
 2764              	.L82:
 572:bluetooth_rxtx.c **** 
 573:bluetooth_rxtx.c **** 	case UBERTOOTH_GET_REV_NUM:
 574:bluetooth_rxtx.c **** 		data[0] = 0x00;
 2765              		.loc 1 574 0
 2766 0660 7B68     		ldr	r3, [r7, #4]
 2767 0662 0022     		movs	r2, #0
 2768 0664 1A70     		strb	r2, [r3]
 575:bluetooth_rxtx.c **** 		data[1] = 0x00;
 2769              		.loc 1 575 0
 2770 0666 7B68     		ldr	r3, [r7, #4]
 2771 0668 0133     		adds	r3, r3, #1
 2772 066a 0022     		movs	r2, #0
 2773 066c 1A70     		strb	r2, [r3]
 576:bluetooth_rxtx.c **** 
 577:bluetooth_rxtx.c **** 		length = (u8)strlen(GIT_REVISION);
 2774              		.loc 1 577 0
 2775 066e A748     		ldr	r0, .L159
 2776 0670 FFF7FEFF 		bl	strlen
 2777 0674 0346     		mov	r3, r0
 2778 0676 87F84730 		strb	r3, [r7, #71]
 578:bluetooth_rxtx.c **** 		data[2] = length;
 2779              		.loc 1 578 0
 2780 067a 7B68     		ldr	r3, [r7, #4]
 2781 067c 0233     		adds	r3, r3, #2
 2782 067e 97F84720 		ldrb	r2, [r7, #71]
 2783 0682 1A70     		strb	r2, [r3]
 579:bluetooth_rxtx.c **** 
 580:bluetooth_rxtx.c **** 		memcpy(&data[3], GIT_REVISION, length);
 2784              		.loc 1 580 0
 2785 0684 7B68     		ldr	r3, [r7, #4]
 2786 0686 DA1C     		adds	r2, r3, #3
 2787 0688 97F84730 		ldrb	r3, [r7, #71]	@ zero_extendqisi2
 2788 068c 1046     		mov	r0, r2
 2789 068e 9F49     		ldr	r1, .L159
 2790 0690 1A46     		mov	r2, r3
 2791 0692 FFF7FEFF 		bl	memcpy
 581:bluetooth_rxtx.c **** 
 582:bluetooth_rxtx.c **** 		*data_len = 2 + 1 + length;
 2792              		.loc 1 582 0
 2793 0696 97F84730 		ldrb	r3, [r7, #71]	@ zero_extendqisi2
 2794 069a DA1C     		adds	r2, r3, #3
 2795 069c 3B68     		ldr	r3, [r7]
 2796 069e 1A60     		str	r2, [r3]
 583:bluetooth_rxtx.c **** 		break;
 2797              		.loc 1 583 0
 2798 06a0 47E2     		b	.L111
 2799              	.L104:
 584:bluetooth_rxtx.c **** 
 585:bluetooth_rxtx.c **** 	case UBERTOOTH_GET_COMPILE_INFO:
 586:bluetooth_rxtx.c **** 		length = (u8)strlen(compile_info);
 2800              		.loc 1 586 0
 2801 06a2 9B48     		ldr	r0, .L159+4
ARM GAS  /tmp/ccSuvgbr.s 			page 59


 2802 06a4 FFF7FEFF 		bl	strlen
 2803 06a8 0346     		mov	r3, r0
 2804 06aa 87F84730 		strb	r3, [r7, #71]
 587:bluetooth_rxtx.c **** 		data[0] = length;
 2805              		.loc 1 587 0
 2806 06ae 7B68     		ldr	r3, [r7, #4]
 2807 06b0 97F84720 		ldrb	r2, [r7, #71]
 2808 06b4 1A70     		strb	r2, [r3]
 588:bluetooth_rxtx.c **** 		memcpy(&data[1], compile_info, length);
 2809              		.loc 1 588 0
 2810 06b6 7B68     		ldr	r3, [r7, #4]
 2811 06b8 5A1C     		adds	r2, r3, #1
 2812 06ba 97F84730 		ldrb	r3, [r7, #71]	@ zero_extendqisi2
 2813 06be 1046     		mov	r0, r2
 2814 06c0 9349     		ldr	r1, .L159+4
 2815 06c2 1A46     		mov	r2, r3
 2816 06c4 FFF7FEFF 		bl	memcpy
 589:bluetooth_rxtx.c **** 		*data_len = 1 + length;
 2817              		.loc 1 589 0
 2818 06c8 97F84730 		ldrb	r3, [r7, #71]	@ zero_extendqisi2
 2819 06cc 5A1C     		adds	r2, r3, #1
 2820 06ce 3B68     		ldr	r3, [r7]
 2821 06d0 1A60     		str	r2, [r3]
 590:bluetooth_rxtx.c **** 		break;
 2822              		.loc 1 590 0
 2823 06d2 2EE2     		b	.L111
 2824              	.L84:
 591:bluetooth_rxtx.c **** 
 592:bluetooth_rxtx.c **** 	case UBERTOOTH_GET_BOARD_ID:
 593:bluetooth_rxtx.c **** 		data[0] = BOARD_ID;
 2825              		.loc 1 593 0
 2826 06d4 7B68     		ldr	r3, [r7, #4]
 2827 06d6 0122     		movs	r2, #1
 2828 06d8 1A70     		strb	r2, [r3]
 594:bluetooth_rxtx.c **** 		*data_len = 1;
 2829              		.loc 1 594 0
 2830 06da 3B68     		ldr	r3, [r7]
 2831 06dc 0122     		movs	r2, #1
 2832 06de 1A60     		str	r2, [r3]
 595:bluetooth_rxtx.c **** 		break;
 2833              		.loc 1 595 0
 2834 06e0 27E2     		b	.L111
 2835              	.L85:
 596:bluetooth_rxtx.c **** 
 597:bluetooth_rxtx.c **** 	case UBERTOOTH_SET_SQUELCH:
 598:bluetooth_rxtx.c **** 		cs_threshold_req = (int8_t)request_params[0];
 2836              		.loc 1 598 0
 2837 06e2 BB68     		ldr	r3, [r7, #8]
 2838 06e4 1B88     		ldrh	r3, [r3]
 2839 06e6 DAB2     		uxtb	r2, r3
 2840 06e8 8A4B     		ldr	r3, .L159+8
 2841 06ea 1A70     		strb	r2, [r3]
 599:bluetooth_rxtx.c **** 		cs_threshold_calc_and_set();
 2842              		.loc 1 599 0
 2843 06ec FFF7FEFF 		bl	cs_threshold_calc_and_set
 600:bluetooth_rxtx.c **** 		break;
 2844              		.loc 1 600 0
ARM GAS  /tmp/ccSuvgbr.s 			page 60


 2845 06f0 1FE2     		b	.L111
 2846              	.L86:
 601:bluetooth_rxtx.c **** 
 602:bluetooth_rxtx.c **** 	case UBERTOOTH_GET_SQUELCH:
 603:bluetooth_rxtx.c **** 		data[0] = cs_threshold_req;
 2847              		.loc 1 603 0
 2848 06f2 884B     		ldr	r3, .L159+8
 2849 06f4 1B78     		ldrb	r3, [r3]	@ zero_extendqisi2
 2850 06f6 DAB2     		uxtb	r2, r3
 2851 06f8 7B68     		ldr	r3, [r7, #4]
 2852 06fa 1A70     		strb	r2, [r3]
 604:bluetooth_rxtx.c **** 		*data_len = 1;
 2853              		.loc 1 604 0
 2854 06fc 3B68     		ldr	r3, [r7]
 2855 06fe 0122     		movs	r2, #1
 2856 0700 1A60     		str	r2, [r3]
 605:bluetooth_rxtx.c **** 		break;
 2857              		.loc 1 605 0
 2858 0702 16E2     		b	.L111
 2859              	.L87:
 606:bluetooth_rxtx.c **** 
 607:bluetooth_rxtx.c **** 	case UBERTOOTH_SET_BDADDR:
 608:bluetooth_rxtx.c **** 		target.address = 0;
 2860              		.loc 1 608 0
 2861 0704 8449     		ldr	r1, .L159+12
 2862 0706 4FF00002 		mov	r2, #0
 2863 070a 4FF00003 		mov	r3, #0
 2864 070e C1E90023 		strd	r2, [r1]
 609:bluetooth_rxtx.c **** 		target.access_code = 0;
 2865              		.loc 1 609 0
 2866 0712 8149     		ldr	r1, .L159+12
 2867 0714 4FF00002 		mov	r2, #0
 2868 0718 4FF00003 		mov	r3, #0
 2869 071c C1E90223 		strd	r2, [r1, #8]
 2870              	.LBB3:
 610:bluetooth_rxtx.c **** 		for(int i=0; i < 8; i++) {
 2871              		.loc 1 610 0
 2872 0720 0023     		movs	r3, #0
 2873 0722 7B66     		str	r3, [r7, #100]
 2874 0724 25E0     		b	.L137
 2875              	.L138:
 611:bluetooth_rxtx.c **** 			target.address |= (uint64_t)data[i] << 8*i;
 2876              		.loc 1 611 0 discriminator 3
 2877 0726 7C4B     		ldr	r3, .L159+12
 2878 0728 D3E900AB 		ldrd	r10, [r3]
 2879 072c 7B6E     		ldr	r3, [r7, #100]
 2880 072e 7A68     		ldr	r2, [r7, #4]
 2881 0730 1344     		add	r3, r3, r2
 2882 0732 1B78     		ldrb	r3, [r3]	@ zero_extendqisi2
 2883 0734 DAB2     		uxtb	r2, r3
 2884 0736 4FF00003 		mov	r3, #0
 2885 073a 796E     		ldr	r1, [r7, #100]
 2886 073c C900     		lsls	r1, r1, #3
 2887 073e A1F12006 		sub	r6, r1, #32
 2888 0742 C1F12000 		rsb	r0, r1, #32
 2889 0746 03FA01F9 		lsl	r9, r3, r1
 2890 074a 02FA06F6 		lsl	r6, r2, r6
ARM GAS  /tmp/ccSuvgbr.s 			page 61


 2891 074e 49EA0609 		orr	r9, r9, r6
 2892 0752 22FA00F0 		lsr	r0, r2, r0
 2893 0756 49EA0009 		orr	r9, r9, r0
 2894 075a 02FA01F8 		lsl	r8, r2, r1
 2895 075e 4AEA0802 		orr	r2, r10, r8
 2896 0762 4BEA0903 		orr	r3, fp, r9
 2897 0766 6C49     		ldr	r1, .L159+12
 2898 0768 C1E90023 		strd	r2, [r1]
 610:bluetooth_rxtx.c **** 		for(int i=0; i < 8; i++) {
 2899              		.loc 1 610 0 discriminator 3
 2900 076c 7B6E     		ldr	r3, [r7, #100]
 2901 076e 0133     		adds	r3, r3, #1
 2902 0770 7B66     		str	r3, [r7, #100]
 2903              	.L137:
 610:bluetooth_rxtx.c **** 		for(int i=0; i < 8; i++) {
 2904              		.loc 1 610 0 is_stmt 0 discriminator 1
 2905 0772 7B6E     		ldr	r3, [r7, #100]
 2906 0774 072B     		cmp	r3, #7
 2907 0776 D6DD     		ble	.L138
 2908              	.LBE3:
 2909              	.LBB4:
 612:bluetooth_rxtx.c **** 		}
 613:bluetooth_rxtx.c **** 		for(int i=0; i < 8; i++) {
 2910              		.loc 1 613 0 is_stmt 1
 2911 0778 0023     		movs	r3, #0
 2912 077a 3B66     		str	r3, [r7, #96]
 2913 077c 24E0     		b	.L139
 2914              	.L140:
 614:bluetooth_rxtx.c **** 			target.access_code |= (uint64_t)data[i+8] << 8*i;
 2915              		.loc 1 614 0 discriminator 3
 2916 077e 664B     		ldr	r3, .L159+12
 2917 0780 D3E90289 		ldrd	r8, [r3, #8]
 2918 0784 3B6E     		ldr	r3, [r7, #96]
 2919 0786 0833     		adds	r3, r3, #8
 2920 0788 7A68     		ldr	r2, [r7, #4]
 2921 078a 1344     		add	r3, r3, r2
 2922 078c 1B78     		ldrb	r3, [r3]	@ zero_extendqisi2
 2923 078e DAB2     		uxtb	r2, r3
 2924 0790 4FF00003 		mov	r3, #0
 2925 0794 396E     		ldr	r1, [r7, #96]
 2926 0796 C900     		lsls	r1, r1, #3
 2927 0798 A1F12006 		sub	r6, r1, #32
 2928 079c C1F12000 		rsb	r0, r1, #32
 2929 07a0 03FA01F5 		lsl	r5, r3, r1
 2930 07a4 02FA06F6 		lsl	r6, r2, r6
 2931 07a8 3543     		orrs	r5, r5, r6
 2932 07aa 22FA00F0 		lsr	r0, r2, r0
 2933 07ae 0543     		orrs	r5, r5, r0
 2934 07b0 02FA01F4 		lsl	r4, r2, r1
 2935 07b4 48EA0402 		orr	r2, r8, r4
 2936 07b8 49EA0503 		orr	r3, r9, r5
 2937 07bc 5649     		ldr	r1, .L159+12
 2938 07be C1E90223 		strd	r2, [r1, #8]
 613:bluetooth_rxtx.c **** 			target.access_code |= (uint64_t)data[i+8] << 8*i;
 2939              		.loc 1 613 0 discriminator 3
 2940 07c2 3B6E     		ldr	r3, [r7, #96]
 2941 07c4 0133     		adds	r3, r3, #1
ARM GAS  /tmp/ccSuvgbr.s 			page 62


 2942 07c6 3B66     		str	r3, [r7, #96]
 2943              	.L139:
 613:bluetooth_rxtx.c **** 			target.access_code |= (uint64_t)data[i+8] << 8*i;
 2944              		.loc 1 613 0 is_stmt 0 discriminator 1
 2945 07c8 3B6E     		ldr	r3, [r7, #96]
 2946 07ca 072B     		cmp	r3, #7
 2947 07cc D7DD     		ble	.L140
 2948              	.LBE4:
 615:bluetooth_rxtx.c **** 		}
 616:bluetooth_rxtx.c **** 		precalc();
 2949              		.loc 1 616 0 is_stmt 1
 2950 07ce FFF7FEFF 		bl	precalc
 617:bluetooth_rxtx.c **** 		break;
 2951              		.loc 1 617 0
 2952 07d2 AEE1     		b	.L111
 2953              	.L88:
 618:bluetooth_rxtx.c **** 
 619:bluetooth_rxtx.c **** 	case UBERTOOTH_START_HOPPING:
 620:bluetooth_rxtx.c **** 		clkn_offset = 0;
 2954              		.loc 1 620 0
 2955 07d4 514B     		ldr	r3, .L159+16
 2956 07d6 0022     		movs	r2, #0
 2957 07d8 1A60     		str	r2, [r3]
 2958              	.LBB5:
 621:bluetooth_rxtx.c **** 		for(int i=0; i < 4; i++) {
 2959              		.loc 1 621 0
 2960 07da 0023     		movs	r3, #0
 2961 07dc FB65     		str	r3, [r7, #92]
 2962 07de 11E0     		b	.L141
 2963              	.L142:
 622:bluetooth_rxtx.c **** 			clkn_offset <<= 8;
 2964              		.loc 1 622 0 discriminator 3
 2965 07e0 4E4B     		ldr	r3, .L159+16
 2966 07e2 1B68     		ldr	r3, [r3]
 2967 07e4 1B02     		lsls	r3, r3, #8
 2968 07e6 4D4A     		ldr	r2, .L159+16
 2969 07e8 1360     		str	r3, [r2]
 623:bluetooth_rxtx.c **** 			clkn_offset |= data[i];
 2970              		.loc 1 623 0 discriminator 3
 2971 07ea FB6D     		ldr	r3, [r7, #92]
 2972 07ec 7A68     		ldr	r2, [r7, #4]
 2973 07ee 1344     		add	r3, r3, r2
 2974 07f0 1B78     		ldrb	r3, [r3]	@ zero_extendqisi2
 2975 07f2 1A46     		mov	r2, r3
 2976 07f4 494B     		ldr	r3, .L159+16
 2977 07f6 1B68     		ldr	r3, [r3]
 2978 07f8 1343     		orrs	r3, r3, r2
 2979 07fa 484A     		ldr	r2, .L159+16
 2980 07fc 1360     		str	r3, [r2]
 621:bluetooth_rxtx.c **** 		for(int i=0; i < 4; i++) {
 2981              		.loc 1 621 0 discriminator 3
 2982 07fe FB6D     		ldr	r3, [r7, #92]
 2983 0800 0133     		adds	r3, r3, #1
 2984 0802 FB65     		str	r3, [r7, #92]
 2985              	.L141:
 621:bluetooth_rxtx.c **** 		for(int i=0; i < 4; i++) {
 2986              		.loc 1 621 0 is_stmt 0 discriminator 1
ARM GAS  /tmp/ccSuvgbr.s 			page 63


 2987 0804 FB6D     		ldr	r3, [r7, #92]
 2988 0806 032B     		cmp	r3, #3
 2989 0808 EADD     		ble	.L142
 2990              	.LBE5:
 624:bluetooth_rxtx.c **** 		}
 625:bluetooth_rxtx.c **** 		hop_mode = HOP_BLUETOOTH;
 2991              		.loc 1 625 0 is_stmt 1
 2992 080a 454B     		ldr	r3, .L159+20
 2993 080c 0222     		movs	r2, #2
 2994 080e 1A70     		strb	r2, [r3]
 626:bluetooth_rxtx.c **** 		dma_discard = 1;
 2995              		.loc 1 626 0
 2996 0810 444B     		ldr	r3, .L159+24
 2997 0812 0122     		movs	r2, #1
 2998 0814 1A70     		strb	r2, [r3]
 627:bluetooth_rxtx.c **** 		DIO_SSEL_SET;
 2999              		.loc 1 627 0
 3000 0816 444B     		ldr	r3, .L159+28
 3001 0818 4FF08052 		mov	r2, #268435456
 3002 081c 1A60     		str	r2, [r3]
 628:bluetooth_rxtx.c **** 		clk100ns_offset = (data[4] << 8) | (data[5] << 0);
 3003              		.loc 1 628 0
 3004 081e 7B68     		ldr	r3, [r7, #4]
 3005 0820 0433     		adds	r3, r3, #4
 3006 0822 1B78     		ldrb	r3, [r3]	@ zero_extendqisi2
 3007 0824 1B02     		lsls	r3, r3, #8
 3008 0826 9AB2     		uxth	r2, r3
 3009 0828 7B68     		ldr	r3, [r7, #4]
 3010 082a 0533     		adds	r3, r3, #5
 3011 082c 1B78     		ldrb	r3, [r3]	@ zero_extendqisi2
 3012 082e 9BB2     		uxth	r3, r3
 3013 0830 1343     		orrs	r3, r3, r2
 3014 0832 9BB2     		uxth	r3, r3
 3015 0834 9AB2     		uxth	r2, r3
 3016 0836 3D4B     		ldr	r3, .L159+32
 3017 0838 1A80     		strh	r2, [r3]	@ movhi
 629:bluetooth_rxtx.c **** 		requested_mode = MODE_BT_FOLLOW;
 3018              		.loc 1 629 0
 3019 083a 3D4B     		ldr	r3, .L159+36
 3020 083c 0822     		movs	r2, #8
 3021 083e 1A70     		strb	r2, [r3]
 630:bluetooth_rxtx.c **** 		break;
 3022              		.loc 1 630 0
 3023 0840 77E1     		b	.L111
 3024              	.L109:
 631:bluetooth_rxtx.c **** /*
 632:bluetooth_rxtx.c **** 	case UBERTOOTH_AFH:
 633:bluetooth_rxtx.c **** 		hop_mode = HOP_AFH;
 634:bluetooth_rxtx.c **** 		requested_mode = MODE_AFH;
 635:bluetooth_rxtx.c **** 
 636:bluetooth_rxtx.c **** 		for(int i=0; i < 10; i++) {
 637:bluetooth_rxtx.c **** 			afh_map[i] = 0;
 638:bluetooth_rxtx.c **** 		}
 639:bluetooth_rxtx.c **** 		used_channels = 0;
 640:bluetooth_rxtx.c **** 		afh_enabled = 1;
 641:bluetooth_rxtx.c **** 		break;
 642:bluetooth_rxtx.c **** */
ARM GAS  /tmp/ccSuvgbr.s 			page 64


 643:bluetooth_rxtx.c **** 	case UBERTOOTH_HOP:
 644:bluetooth_rxtx.c **** 		do_hop = 1;
 3025              		.loc 1 644 0
 3026 0842 3C4B     		ldr	r3, .L159+40
 3027 0844 0122     		movs	r2, #1
 3028 0846 1A70     		strb	r2, [r3]
 645:bluetooth_rxtx.c **** 		break;
 3029              		.loc 1 645 0
 3030 0848 73E1     		b	.L111
 3031              	.L89:
 646:bluetooth_rxtx.c **** 
 647:bluetooth_rxtx.c **** 	case UBERTOOTH_SET_CLOCK:
 648:bluetooth_rxtx.c **** 		clock = data[0] | data[1] << 8 | data[2] << 16 | data[3] << 24;
 3032              		.loc 1 648 0
 3033 084a 7B68     		ldr	r3, [r7, #4]
 3034 084c 1B78     		ldrb	r3, [r3]	@ zero_extendqisi2
 3035 084e 1A46     		mov	r2, r3
 3036 0850 7B68     		ldr	r3, [r7, #4]
 3037 0852 0133     		adds	r3, r3, #1
 3038 0854 1B78     		ldrb	r3, [r3]	@ zero_extendqisi2
 3039 0856 1B02     		lsls	r3, r3, #8
 3040 0858 1A43     		orrs	r2, r2, r3
 3041 085a 7B68     		ldr	r3, [r7, #4]
 3042 085c 0233     		adds	r3, r3, #2
 3043 085e 1B78     		ldrb	r3, [r3]	@ zero_extendqisi2
 3044 0860 1B04     		lsls	r3, r3, #16
 3045 0862 1A43     		orrs	r2, r2, r3
 3046 0864 7B68     		ldr	r3, [r7, #4]
 3047 0866 0333     		adds	r3, r3, #3
 3048 0868 1B78     		ldrb	r3, [r3]	@ zero_extendqisi2
 3049 086a 1B06     		lsls	r3, r3, #24
 3050 086c 1343     		orrs	r3, r3, r2
 3051 086e 3B64     		str	r3, [r7, #64]
 649:bluetooth_rxtx.c **** 		clkn = clock;
 3052              		.loc 1 649 0
 3053 0870 314A     		ldr	r2, .L159+44
 3054 0872 3B6C     		ldr	r3, [r7, #64]
 3055 0874 1360     		str	r3, [r2]
 650:bluetooth_rxtx.c **** 		cs_threshold_calc_and_set();
 3056              		.loc 1 650 0
 3057 0876 FFF7FEFF 		bl	cs_threshold_calc_and_set
 651:bluetooth_rxtx.c **** 		break;
 3058              		.loc 1 651 0
 3059 087a 5AE1     		b	.L111
 3060              	.L100:
 3061              	.LBB6:
 652:bluetooth_rxtx.c **** 
 653:bluetooth_rxtx.c **** 	case UBERTOOTH_SET_AFHMAP:
 654:bluetooth_rxtx.c **** 		for(int i=0; i < 10; i++) {
 3062              		.loc 1 654 0
 3063 087c 0023     		movs	r3, #0
 3064 087e BB65     		str	r3, [r7, #88]
 3065 0880 0BE0     		b	.L143
 3066              	.L144:
 655:bluetooth_rxtx.c **** 			afh_map[i] = data[i];
 3067              		.loc 1 655 0 discriminator 3
 3068 0882 BB6D     		ldr	r3, [r7, #88]
ARM GAS  /tmp/ccSuvgbr.s 			page 65


 3069 0884 7A68     		ldr	r2, [r7, #4]
 3070 0886 1344     		add	r3, r3, r2
 3071 0888 1978     		ldrb	r1, [r3]	@ zero_extendqisi2
 3072 088a 2C4A     		ldr	r2, .L159+48
 3073 088c BB6D     		ldr	r3, [r7, #88]
 3074 088e 1344     		add	r3, r3, r2
 3075 0890 0A46     		mov	r2, r1
 3076 0892 1A70     		strb	r2, [r3]
 654:bluetooth_rxtx.c **** 			afh_map[i] = data[i];
 3077              		.loc 1 654 0 discriminator 3
 3078 0894 BB6D     		ldr	r3, [r7, #88]
 3079 0896 0133     		adds	r3, r3, #1
 3080 0898 BB65     		str	r3, [r7, #88]
 3081              	.L143:
 654:bluetooth_rxtx.c **** 			afh_map[i] = data[i];
 3082              		.loc 1 654 0 is_stmt 0 discriminator 1
 3083 089a BB6D     		ldr	r3, [r7, #88]
 3084 089c 092B     		cmp	r3, #9
 3085 089e F0DD     		ble	.L144
 3086              	.LBE6:
 656:bluetooth_rxtx.c **** 		}
 657:bluetooth_rxtx.c **** 		afh_enabled = 1;
 3087              		.loc 1 657 0 is_stmt 1
 3088 08a0 274B     		ldr	r3, .L159+52
 3089 08a2 0122     		movs	r2, #1
 3090 08a4 1A70     		strb	r2, [r3]
 658:bluetooth_rxtx.c **** 		*data_len = 10;
 3091              		.loc 1 658 0
 3092 08a6 3B68     		ldr	r3, [r7]
 3093 08a8 0A22     		movs	r2, #10
 3094 08aa 1A60     		str	r2, [r3]
 659:bluetooth_rxtx.c **** 		break;
 3095              		.loc 1 659 0
 3096 08ac 41E1     		b	.L111
 3097              	.L101:
 3098              	.LBB7:
 660:bluetooth_rxtx.c **** 
 661:bluetooth_rxtx.c **** 	case UBERTOOTH_CLEAR_AFHMAP:
 662:bluetooth_rxtx.c **** 		for(int i=0; i < 10; i++) {
 3099              		.loc 1 662 0
 3100 08ae 0023     		movs	r3, #0
 3101 08b0 7B65     		str	r3, [r7, #84]
 3102 08b2 07E0     		b	.L145
 3103              	.L146:
 663:bluetooth_rxtx.c **** 			afh_map[i] = 0;
 3104              		.loc 1 663 0 discriminator 3
 3105 08b4 214A     		ldr	r2, .L159+48
 3106 08b6 7B6D     		ldr	r3, [r7, #84]
 3107 08b8 1344     		add	r3, r3, r2
 3108 08ba 0022     		movs	r2, #0
 3109 08bc 1A70     		strb	r2, [r3]
 662:bluetooth_rxtx.c **** 			afh_map[i] = 0;
 3110              		.loc 1 662 0 discriminator 3
 3111 08be 7B6D     		ldr	r3, [r7, #84]
 3112 08c0 0133     		adds	r3, r3, #1
 3113 08c2 7B65     		str	r3, [r7, #84]
 3114              	.L145:
ARM GAS  /tmp/ccSuvgbr.s 			page 66


 662:bluetooth_rxtx.c **** 			afh_map[i] = 0;
 3115              		.loc 1 662 0 is_stmt 0 discriminator 1
 3116 08c4 7B6D     		ldr	r3, [r7, #84]
 3117 08c6 092B     		cmp	r3, #9
 3118 08c8 F4DD     		ble	.L146
 3119              	.LBE7:
 664:bluetooth_rxtx.c **** 		}
 665:bluetooth_rxtx.c **** 		afh_enabled = 0;
 3120              		.loc 1 665 0 is_stmt 1
 3121 08ca 1D4B     		ldr	r3, .L159+52
 3122 08cc 0022     		movs	r2, #0
 3123 08ce 1A70     		strb	r2, [r3]
 666:bluetooth_rxtx.c **** 		*data_len = 10;
 3124              		.loc 1 666 0
 3125 08d0 3B68     		ldr	r3, [r7]
 3126 08d2 0A22     		movs	r2, #10
 3127 08d4 1A60     		str	r2, [r3]
 667:bluetooth_rxtx.c **** 		break;
 3128              		.loc 1 667 0
 3129 08d6 2CE1     		b	.L111
 3130              	.L90:
 668:bluetooth_rxtx.c **** 
 669:bluetooth_rxtx.c **** 	case UBERTOOTH_GET_CLOCK:
 670:bluetooth_rxtx.c **** 		clock = clkn;
 3131              		.loc 1 670 0
 3132 08d8 174B     		ldr	r3, .L159+44
 3133 08da 1B68     		ldr	r3, [r3]
 3134 08dc 3B64     		str	r3, [r7, #64]
 3135              	.LBB8:
 671:bluetooth_rxtx.c **** 		for(int i=0; i < 4; i++) {
 3136              		.loc 1 671 0
 3137 08de 0023     		movs	r3, #0
 3138 08e0 3B65     		str	r3, [r7, #80]
 3139 08e2 0CE0     		b	.L147
 3140              	.L148:
 672:bluetooth_rxtx.c **** 			data[i] = (clock >> (8*i)) & 0xff;
 3141              		.loc 1 672 0 discriminator 3
 3142 08e4 3B6D     		ldr	r3, [r7, #80]
 3143 08e6 7A68     		ldr	r2, [r7, #4]
 3144 08e8 1344     		add	r3, r3, r2
 3145 08ea 3A6D     		ldr	r2, [r7, #80]
 3146 08ec D200     		lsls	r2, r2, #3
 3147 08ee 396C     		ldr	r1, [r7, #64]
 3148 08f0 21FA02F2 		lsr	r2, r1, r2
 3149 08f4 D2B2     		uxtb	r2, r2
 3150 08f6 1A70     		strb	r2, [r3]
 671:bluetooth_rxtx.c **** 		for(int i=0; i < 4; i++) {
 3151              		.loc 1 671 0 discriminator 3
 3152 08f8 3B6D     		ldr	r3, [r7, #80]
 3153 08fa 0133     		adds	r3, r3, #1
 3154 08fc 3B65     		str	r3, [r7, #80]
 3155              	.L147:
 671:bluetooth_rxtx.c **** 		for(int i=0; i < 4; i++) {
 3156              		.loc 1 671 0 is_stmt 0 discriminator 1
 3157 08fe 3B6D     		ldr	r3, [r7, #80]
 3158 0900 032B     		cmp	r3, #3
 3159 0902 EFDD     		ble	.L148
ARM GAS  /tmp/ccSuvgbr.s 			page 67


 3160              	.LBE8:
 673:bluetooth_rxtx.c **** 		}
 674:bluetooth_rxtx.c **** 		*data_len = 4;
 3161              		.loc 1 674 0 is_stmt 1
 3162 0904 3B68     		ldr	r3, [r7]
 3163 0906 0422     		movs	r2, #4
 3164 0908 1A60     		str	r2, [r3]
 675:bluetooth_rxtx.c **** 		break;
 3165              		.loc 1 675 0
 3166 090a 12E1     		b	.L111
 3167              	.L160:
 3168              		.align	2
 3169              	.L159:
 3170 090c C0080000 		.word	.LC3
 3171 0910 00000000 		.word	compile_info
 3172 0914 00000000 		.word	cs_threshold_req
 3173 0918 00000000 		.word	target
 3174 091c 00000000 		.word	clkn_offset
 3175 0920 00000000 		.word	hop_mode
 3176 0924 00000000 		.word	dma_discard
 3177 0928 98C00920 		.word	537510040
 3178 092c 00000000 		.word	clk100ns_offset
 3179 0930 00000000 		.word	requested_mode
 3180 0934 00000000 		.word	do_hop
 3181 0938 00000000 		.word	clkn
 3182 093c 00000000 		.word	afh_map
 3183 0940 00000000 		.word	afh_enabled
 3184              	.L110:
 676:bluetooth_rxtx.c **** 
 677:bluetooth_rxtx.c **** 	case UBERTOOTH_TRIM_CLOCK:
 678:bluetooth_rxtx.c **** 		clk100ns_offset = (data[0] << 8) | (data[1] << 0);
 3185              		.loc 1 678 0
 3186 0944 7B68     		ldr	r3, [r7, #4]
 3187 0946 1B78     		ldrb	r3, [r3]	@ zero_extendqisi2
 3188 0948 1B02     		lsls	r3, r3, #8
 3189 094a 9AB2     		uxth	r2, r3
 3190 094c 7B68     		ldr	r3, [r7, #4]
 3191 094e 0133     		adds	r3, r3, #1
 3192 0950 1B78     		ldrb	r3, [r3]	@ zero_extendqisi2
 3193 0952 9BB2     		uxth	r3, r3
 3194 0954 1343     		orrs	r3, r3, r2
 3195 0956 9BB2     		uxth	r3, r3
 3196 0958 9AB2     		uxth	r2, r3
 3197 095a 794B     		ldr	r3, .L161
 3198 095c 1A80     		strh	r2, [r3]	@ movhi
 679:bluetooth_rxtx.c **** 		break;
 3199              		.loc 1 679 0
 3200 095e E8E0     		b	.L111
 3201              	.L91:
 680:bluetooth_rxtx.c **** 
 681:bluetooth_rxtx.c **** 	case UBERTOOTH_BTLE_SNIFFING:
 682:bluetooth_rxtx.c **** 		*data_len = 0;
 3202              		.loc 1 682 0
 3203 0960 3B68     		ldr	r3, [r7]
 3204 0962 0022     		movs	r2, #0
 3205 0964 1A60     		str	r2, [r3]
 683:bluetooth_rxtx.c **** 
ARM GAS  /tmp/ccSuvgbr.s 			page 68


 684:bluetooth_rxtx.c **** 		do_hop = 0;
 3206              		.loc 1 684 0
 3207 0966 774B     		ldr	r3, .L161+4
 3208 0968 0022     		movs	r2, #0
 3209 096a 1A70     		strb	r2, [r3]
 685:bluetooth_rxtx.c **** 		hop_mode = HOP_BTLE;
 3210              		.loc 1 685 0
 3211 096c 764B     		ldr	r3, .L161+8
 3212 096e 0322     		movs	r2, #3
 3213 0970 1A70     		strb	r2, [r3]
 686:bluetooth_rxtx.c **** 		requested_mode = MODE_BT_FOLLOW_LE;
 3214              		.loc 1 686 0
 3215 0972 764B     		ldr	r3, .L161+12
 3216 0974 0922     		movs	r2, #9
 3217 0976 1A70     		strb	r2, [r3]
 687:bluetooth_rxtx.c **** 
 688:bluetooth_rxtx.c **** 		queue_init();
 3218              		.loc 1 688 0
 3219 0978 FFF7FEFF 		bl	queue_init
 689:bluetooth_rxtx.c **** 		cs_threshold_calc_and_set();
 3220              		.loc 1 689 0
 3221 097c FFF7FEFF 		bl	cs_threshold_calc_and_set
 690:bluetooth_rxtx.c **** 		break;
 3222              		.loc 1 690 0
 3223 0980 D7E0     		b	.L111
 3224              	.L92:
 3225              	.LBB9:
 691:bluetooth_rxtx.c **** 
 692:bluetooth_rxtx.c **** 	case UBERTOOTH_GET_ACCESS_ADDRESS:
 693:bluetooth_rxtx.c **** 		for(int i=0; i < 4; i++) {
 3226              		.loc 1 693 0
 3227 0982 0023     		movs	r3, #0
 3228 0984 FB64     		str	r3, [r7, #76]
 3229 0986 0DE0     		b	.L149
 3230              	.L150:
 694:bluetooth_rxtx.c **** 			data[i] = (le.access_address >> (8*i)) & 0xff;
 3231              		.loc 1 694 0 discriminator 3
 3232 0988 FB6C     		ldr	r3, [r7, #76]
 3233 098a 7A68     		ldr	r2, [r7, #4]
 3234 098c 1344     		add	r3, r3, r2
 3235 098e 704A     		ldr	r2, .L161+16
 3236 0990 1168     		ldr	r1, [r2]
 3237 0992 FA6C     		ldr	r2, [r7, #76]
 3238 0994 D200     		lsls	r2, r2, #3
 3239 0996 21FA02F2 		lsr	r2, r1, r2
 3240 099a D2B2     		uxtb	r2, r2
 3241 099c 1A70     		strb	r2, [r3]
 693:bluetooth_rxtx.c **** 			data[i] = (le.access_address >> (8*i)) & 0xff;
 3242              		.loc 1 693 0 discriminator 3
 3243 099e FB6C     		ldr	r3, [r7, #76]
 3244 09a0 0133     		adds	r3, r3, #1
 3245 09a2 FB64     		str	r3, [r7, #76]
 3246              	.L149:
 693:bluetooth_rxtx.c **** 			data[i] = (le.access_address >> (8*i)) & 0xff;
 3247              		.loc 1 693 0 is_stmt 0 discriminator 1
 3248 09a4 FB6C     		ldr	r3, [r7, #76]
 3249 09a6 032B     		cmp	r3, #3
ARM GAS  /tmp/ccSuvgbr.s 			page 69


 3250 09a8 EEDD     		ble	.L150
 3251              	.LBE9:
 695:bluetooth_rxtx.c **** 		}
 696:bluetooth_rxtx.c **** 		*data_len = 4;
 3252              		.loc 1 696 0 is_stmt 1
 3253 09aa 3B68     		ldr	r3, [r7]
 3254 09ac 0422     		movs	r2, #4
 3255 09ae 1A60     		str	r2, [r3]
 697:bluetooth_rxtx.c **** 		break;
 3256              		.loc 1 697 0
 3257 09b0 BFE0     		b	.L111
 3258              	.L93:
 698:bluetooth_rxtx.c **** 
 699:bluetooth_rxtx.c **** 	case UBERTOOTH_SET_ACCESS_ADDRESS:
 700:bluetooth_rxtx.c **** 		le_set_access_address(data[0] | data[1] << 8 | data[2] << 16 | data[3] << 24);
 3259              		.loc 1 700 0
 3260 09b2 7B68     		ldr	r3, [r7, #4]
 3261 09b4 1B78     		ldrb	r3, [r3]	@ zero_extendqisi2
 3262 09b6 1A46     		mov	r2, r3
 3263 09b8 7B68     		ldr	r3, [r7, #4]
 3264 09ba 0133     		adds	r3, r3, #1
 3265 09bc 1B78     		ldrb	r3, [r3]	@ zero_extendqisi2
 3266 09be 1B02     		lsls	r3, r3, #8
 3267 09c0 1A43     		orrs	r2, r2, r3
 3268 09c2 7B68     		ldr	r3, [r7, #4]
 3269 09c4 0233     		adds	r3, r3, #2
 3270 09c6 1B78     		ldrb	r3, [r3]	@ zero_extendqisi2
 3271 09c8 1B04     		lsls	r3, r3, #16
 3272 09ca 1A43     		orrs	r2, r2, r3
 3273 09cc 7B68     		ldr	r3, [r7, #4]
 3274 09ce 0333     		adds	r3, r3, #3
 3275 09d0 1B78     		ldrb	r3, [r3]	@ zero_extendqisi2
 3276 09d2 1B06     		lsls	r3, r3, #24
 3277 09d4 1343     		orrs	r3, r3, r2
 3278 09d6 1846     		mov	r0, r3
 3279 09d8 FFF7FEFF 		bl	le_set_access_address
 701:bluetooth_rxtx.c **** 		le.target_set = 1;
 3280              		.loc 1 701 0
 3281 09dc 5C4B     		ldr	r3, .L161+16
 3282 09de 0122     		movs	r2, #1
 3283 09e0 DA63     		str	r2, [r3, #60]
 702:bluetooth_rxtx.c **** 		break;
 3284              		.loc 1 702 0
 3285 09e2 A6E0     		b	.L111
 3286              	.L95:
 703:bluetooth_rxtx.c **** 
 704:bluetooth_rxtx.c **** 	case UBERTOOTH_DO_SOMETHING:
 705:bluetooth_rxtx.c **** 		// do something! just don't commit anything here
 706:bluetooth_rxtx.c **** 		break;
 707:bluetooth_rxtx.c **** 
 708:bluetooth_rxtx.c **** 	case UBERTOOTH_DO_SOMETHING_REPLY:
 709:bluetooth_rxtx.c **** 		// after you do something, tell me what you did!
 710:bluetooth_rxtx.c **** 		// don't commit here please
 711:bluetooth_rxtx.c **** 		data[0] = 0x13;
 3287              		.loc 1 711 0
 3288 09e4 7B68     		ldr	r3, [r7, #4]
 3289 09e6 1322     		movs	r2, #19
ARM GAS  /tmp/ccSuvgbr.s 			page 70


 3290 09e8 1A70     		strb	r2, [r3]
 712:bluetooth_rxtx.c **** 		data[1] = 0x37;
 3291              		.loc 1 712 0
 3292 09ea 7B68     		ldr	r3, [r7, #4]
 3293 09ec 0133     		adds	r3, r3, #1
 3294 09ee 3722     		movs	r2, #55
 3295 09f0 1A70     		strb	r2, [r3]
 713:bluetooth_rxtx.c **** 		*data_len = 2;
 3296              		.loc 1 713 0
 3297 09f2 3B68     		ldr	r3, [r7]
 3298 09f4 0222     		movs	r2, #2
 3299 09f6 1A60     		str	r2, [r3]
 714:bluetooth_rxtx.c **** 		break;
 3300              		.loc 1 714 0
 3301 09f8 9BE0     		b	.L111
 3302              	.L96:
 715:bluetooth_rxtx.c **** 
 716:bluetooth_rxtx.c **** 	case UBERTOOTH_GET_CRC_VERIFY:
 717:bluetooth_rxtx.c **** 		data[0] = le.crc_verify ? 1 : 0;
 3303              		.loc 1 717 0
 3304 09fa 554B     		ldr	r3, .L161+16
 3305 09fc 1B69     		ldr	r3, [r3, #16]
 3306 09fe 002B     		cmp	r3, #0
 3307 0a00 14BF     		ite	ne
 3308 0a02 0123     		movne	r3, #1
 3309 0a04 0023     		moveq	r3, #0
 3310 0a06 DBB2     		uxtb	r3, r3
 3311 0a08 1A46     		mov	r2, r3
 3312 0a0a 7B68     		ldr	r3, [r7, #4]
 3313 0a0c 1A70     		strb	r2, [r3]
 718:bluetooth_rxtx.c **** 		*data_len = 1;
 3314              		.loc 1 718 0
 3315 0a0e 3B68     		ldr	r3, [r7]
 3316 0a10 0122     		movs	r2, #1
 3317 0a12 1A60     		str	r2, [r3]
 719:bluetooth_rxtx.c **** 		break;
 3318              		.loc 1 719 0
 3319 0a14 8DE0     		b	.L111
 3320              	.L97:
 720:bluetooth_rxtx.c **** 
 721:bluetooth_rxtx.c **** 	case UBERTOOTH_SET_CRC_VERIFY:
 722:bluetooth_rxtx.c **** 		le.crc_verify = request_params[0] ? 1 : 0;
 3321              		.loc 1 722 0
 3322 0a16 BB68     		ldr	r3, [r7, #8]
 3323 0a18 1B88     		ldrh	r3, [r3]
 3324 0a1a 002B     		cmp	r3, #0
 3325 0a1c 14BF     		ite	ne
 3326 0a1e 0123     		movne	r3, #1
 3327 0a20 0023     		moveq	r3, #0
 3328 0a22 DBB2     		uxtb	r3, r3
 3329 0a24 1A46     		mov	r2, r3
 3330 0a26 4A4B     		ldr	r3, .L161+16
 3331 0a28 1A61     		str	r2, [r3, #16]
 723:bluetooth_rxtx.c **** 		break;
 3332              		.loc 1 723 0
 3333 0a2a 82E0     		b	.L111
 3334              	.L98:
ARM GAS  /tmp/ccSuvgbr.s 			page 71


 724:bluetooth_rxtx.c **** 
 725:bluetooth_rxtx.c **** 	case UBERTOOTH_POLL:
 726:bluetooth_rxtx.c **** 		p = dequeue();
 3335              		.loc 1 726 0
 3336 0a2c FFF7FEFF 		bl	dequeue
 3337 0a30 B864     		str	r0, [r7, #72]
 727:bluetooth_rxtx.c **** 		if (p != NULL) {
 3338              		.loc 1 727 0
 3339 0a32 BB6C     		ldr	r3, [r7, #72]
 3340 0a34 002B     		cmp	r3, #0
 3341 0a36 08D0     		beq	.L151
 728:bluetooth_rxtx.c **** 			memcpy(data, (void *)p, sizeof(usb_pkt_rx));
 3342              		.loc 1 728 0
 3343 0a38 7868     		ldr	r0, [r7, #4]
 3344 0a3a B96C     		ldr	r1, [r7, #72]
 3345 0a3c 4022     		movs	r2, #64
 3346 0a3e FFF7FEFF 		bl	memcpy
 729:bluetooth_rxtx.c **** 			*data_len = sizeof(usb_pkt_rx);
 3347              		.loc 1 729 0
 3348 0a42 3B68     		ldr	r3, [r7]
 3349 0a44 4022     		movs	r2, #64
 3350 0a46 1A60     		str	r2, [r3]
 730:bluetooth_rxtx.c **** 		} else {
 731:bluetooth_rxtx.c **** 			data[0] = 0;
 732:bluetooth_rxtx.c **** 			*data_len = 1;
 733:bluetooth_rxtx.c **** 		}
 734:bluetooth_rxtx.c **** 		break;
 3351              		.loc 1 734 0
 3352 0a48 73E0     		b	.L111
 3353              	.L151:
 731:bluetooth_rxtx.c **** 			*data_len = 1;
 3354              		.loc 1 731 0
 3355 0a4a 7B68     		ldr	r3, [r7, #4]
 3356 0a4c 0022     		movs	r2, #0
 3357 0a4e 1A70     		strb	r2, [r3]
 732:bluetooth_rxtx.c **** 		}
 3358              		.loc 1 732 0
 3359 0a50 3B68     		ldr	r3, [r7]
 3360 0a52 0122     		movs	r2, #1
 3361 0a54 1A60     		str	r2, [r3]
 3362              		.loc 1 734 0
 3363 0a56 6CE0     		b	.L111
 3364              	.L99:
 735:bluetooth_rxtx.c **** 
 736:bluetooth_rxtx.c **** 	case UBERTOOTH_BTLE_PROMISC:
 737:bluetooth_rxtx.c **** 		*data_len = 0;
 3365              		.loc 1 737 0
 3366 0a58 3B68     		ldr	r3, [r7]
 3367 0a5a 0022     		movs	r2, #0
 3368 0a5c 1A60     		str	r2, [r3]
 738:bluetooth_rxtx.c **** 
 739:bluetooth_rxtx.c **** 		hop_mode = HOP_NONE;
 3369              		.loc 1 739 0
 3370 0a5e 3A4B     		ldr	r3, .L161+8
 3371 0a60 0022     		movs	r2, #0
 3372 0a62 1A70     		strb	r2, [r3]
 740:bluetooth_rxtx.c **** 		requested_mode = MODE_BT_PROMISC_LE;
ARM GAS  /tmp/ccSuvgbr.s 			page 72


 3373              		.loc 1 740 0
 3374 0a64 394B     		ldr	r3, .L161+12
 3375 0a66 0A22     		movs	r2, #10
 3376 0a68 1A70     		strb	r2, [r3]
 741:bluetooth_rxtx.c **** 
 742:bluetooth_rxtx.c **** 		queue_init();
 3377              		.loc 1 742 0
 3378 0a6a FFF7FEFF 		bl	queue_init
 743:bluetooth_rxtx.c **** 		cs_threshold_calc_and_set();
 3379              		.loc 1 743 0
 3380 0a6e FFF7FEFF 		bl	cs_threshold_calc_and_set
 744:bluetooth_rxtx.c **** 		break;
 3381              		.loc 1 744 0
 3382 0a72 5EE0     		b	.L111
 3383              	.L102:
 745:bluetooth_rxtx.c **** 
 746:bluetooth_rxtx.c **** 	case UBERTOOTH_READ_REGISTER:
 747:bluetooth_rxtx.c **** 		reg_val = cc2400_get(request_params[0]);
 3384              		.loc 1 747 0
 3385 0a74 BB68     		ldr	r3, [r7, #8]
 3386 0a76 1B88     		ldrh	r3, [r3]
 3387 0a78 DBB2     		uxtb	r3, r3
 3388 0a7a 1846     		mov	r0, r3
 3389 0a7c FFF7FEFF 		bl	cc2400_get
 3390 0a80 0346     		mov	r3, r0
 3391 0a82 FB87     		strh	r3, [r7, #62]	@ movhi
 748:bluetooth_rxtx.c **** 		data[0] = (reg_val >> 8) & 0xff;
 3392              		.loc 1 748 0
 3393 0a84 FB8F     		ldrh	r3, [r7, #62]
 3394 0a86 1B0A     		lsrs	r3, r3, #8
 3395 0a88 9BB2     		uxth	r3, r3
 3396 0a8a DAB2     		uxtb	r2, r3
 3397 0a8c 7B68     		ldr	r3, [r7, #4]
 3398 0a8e 1A70     		strb	r2, [r3]
 749:bluetooth_rxtx.c **** 		data[1] = reg_val & 0xff;
 3399              		.loc 1 749 0
 3400 0a90 7B68     		ldr	r3, [r7, #4]
 3401 0a92 0133     		adds	r3, r3, #1
 3402 0a94 FA8F     		ldrh	r2, [r7, #62]	@ movhi
 3403 0a96 D2B2     		uxtb	r2, r2
 3404 0a98 1A70     		strb	r2, [r3]
 750:bluetooth_rxtx.c **** 		*data_len = 2;
 3405              		.loc 1 750 0
 3406 0a9a 3B68     		ldr	r3, [r7]
 3407 0a9c 0222     		movs	r2, #2
 3408 0a9e 1A60     		str	r2, [r3]
 751:bluetooth_rxtx.c **** 		break;
 3409              		.loc 1 751 0
 3410 0aa0 47E0     		b	.L111
 3411              	.L106:
 752:bluetooth_rxtx.c **** 
 753:bluetooth_rxtx.c **** 	case UBERTOOTH_WRITE_REGISTER:
 754:bluetooth_rxtx.c **** 		cc2400_set(request_params[0] & 0xff, request_params[1]);
 3412              		.loc 1 754 0
 3413 0aa2 BB68     		ldr	r3, [r7, #8]
 3414 0aa4 1B88     		ldrh	r3, [r3]
 3415 0aa6 DAB2     		uxtb	r2, r3
ARM GAS  /tmp/ccSuvgbr.s 			page 73


 3416 0aa8 BB68     		ldr	r3, [r7, #8]
 3417 0aaa 0233     		adds	r3, r3, #2
 3418 0aac 1B88     		ldrh	r3, [r3]
 3419 0aae 1046     		mov	r0, r2
 3420 0ab0 1946     		mov	r1, r3
 3421 0ab2 FFF7FEFF 		bl	cc2400_set
 755:bluetooth_rxtx.c **** 		break;
 3422              		.loc 1 755 0
 3423 0ab6 3CE0     		b	.L111
 3424              	.L103:
 756:bluetooth_rxtx.c **** 
 757:bluetooth_rxtx.c **** 	case UBERTOOTH_BTLE_SLAVE:
 758:bluetooth_rxtx.c **** 		memcpy(slave_mac_address, data, 6);
 3425              		.loc 1 758 0
 3426 0ab8 2648     		ldr	r0, .L161+20
 3427 0aba 7968     		ldr	r1, [r7, #4]
 3428 0abc 0622     		movs	r2, #6
 3429 0abe FFF7FEFF 		bl	memcpy
 759:bluetooth_rxtx.c **** 		requested_mode = MODE_BT_SLAVE_LE;
 3430              		.loc 1 759 0
 3431 0ac2 224B     		ldr	r3, .L161+12
 3432 0ac4 0C22     		movs	r2, #12
 3433 0ac6 1A70     		strb	r2, [r3]
 760:bluetooth_rxtx.c **** 		break;
 3434              		.loc 1 760 0
 3435 0ac8 33E0     		b	.L111
 3436              	.L105:
 761:bluetooth_rxtx.c **** 
 762:bluetooth_rxtx.c **** 	case UBERTOOTH_BTLE_SET_TARGET:
 763:bluetooth_rxtx.c **** 		// Addresses appear in packets in reverse-octet order.
 764:bluetooth_rxtx.c **** 		// Store the target address in reverse order so that we can do a simple memcmp later
 765:bluetooth_rxtx.c **** 		le.target[0] = data[5];
 3437              		.loc 1 765 0
 3438 0aca 7B68     		ldr	r3, [r7, #4]
 3439 0acc 5A79     		ldrb	r2, [r3, #5]	@ zero_extendqisi2
 3440 0ace 204B     		ldr	r3, .L161+16
 3441 0ad0 83F83420 		strb	r2, [r3, #52]
 766:bluetooth_rxtx.c **** 		le.target[1] = data[4];
 3442              		.loc 1 766 0
 3443 0ad4 7B68     		ldr	r3, [r7, #4]
 3444 0ad6 1A79     		ldrb	r2, [r3, #4]	@ zero_extendqisi2
 3445 0ad8 1D4B     		ldr	r3, .L161+16
 3446 0ada 83F83520 		strb	r2, [r3, #53]
 767:bluetooth_rxtx.c **** 		le.target[2] = data[3];
 3447              		.loc 1 767 0
 3448 0ade 7B68     		ldr	r3, [r7, #4]
 3449 0ae0 DA78     		ldrb	r2, [r3, #3]	@ zero_extendqisi2
 3450 0ae2 1B4B     		ldr	r3, .L161+16
 3451 0ae4 83F83620 		strb	r2, [r3, #54]
 768:bluetooth_rxtx.c **** 		le.target[3] = data[2];
 3452              		.loc 1 768 0
 3453 0ae8 7B68     		ldr	r3, [r7, #4]
 3454 0aea 9A78     		ldrb	r2, [r3, #2]	@ zero_extendqisi2
 3455 0aec 184B     		ldr	r3, .L161+16
 3456 0aee 83F83720 		strb	r2, [r3, #55]
 769:bluetooth_rxtx.c **** 		le.target[4] = data[1];
 3457              		.loc 1 769 0
ARM GAS  /tmp/ccSuvgbr.s 			page 74


 3458 0af2 7B68     		ldr	r3, [r7, #4]
 3459 0af4 5A78     		ldrb	r2, [r3, #1]	@ zero_extendqisi2
 3460 0af6 164B     		ldr	r3, .L161+16
 3461 0af8 83F83820 		strb	r2, [r3, #56]
 770:bluetooth_rxtx.c **** 		le.target[5] = data[0];
 3462              		.loc 1 770 0
 3463 0afc 7B68     		ldr	r3, [r7, #4]
 3464 0afe 1A78     		ldrb	r2, [r3]	@ zero_extendqisi2
 3465 0b00 134B     		ldr	r3, .L161+16
 3466 0b02 83F83920 		strb	r2, [r3, #57]
 771:bluetooth_rxtx.c **** 		le.target_set = 1;
 3467              		.loc 1 771 0
 3468 0b06 124B     		ldr	r3, .L161+16
 3469 0b08 0122     		movs	r2, #1
 3470 0b0a DA63     		str	r2, [r3, #60]
 772:bluetooth_rxtx.c **** 		break;
 3471              		.loc 1 772 0
 3472 0b0c 11E0     		b	.L111
 3473              	.L107:
 773:bluetooth_rxtx.c **** 
 774:bluetooth_rxtx.c **** #ifdef TX_ENABLE
 775:bluetooth_rxtx.c **** 	case UBERTOOTH_JAM_MODE:
 776:bluetooth_rxtx.c **** 		jam_mode = request_params[0];
 3474              		.loc 1 776 0
 3475 0b0e BB68     		ldr	r3, [r7, #8]
 3476 0b10 1B88     		ldrh	r3, [r3]
 3477 0b12 DAB2     		uxtb	r2, r3
 3478 0b14 104B     		ldr	r3, .L161+24
 3479 0b16 1A70     		strb	r2, [r3]
 777:bluetooth_rxtx.c **** 		break;
 3480              		.loc 1 777 0
 3481 0b18 0BE0     		b	.L111
 3482              	.L108:
 778:bluetooth_rxtx.c **** #endif
 779:bluetooth_rxtx.c **** 
 780:bluetooth_rxtx.c **** 	case UBERTOOTH_EGO:
 781:bluetooth_rxtx.c **** #ifndef TX_ENABLE
 782:bluetooth_rxtx.c **** 		if (ego_mode == EGO_JAM)
 783:bluetooth_rxtx.c **** 			return 0;
 784:bluetooth_rxtx.c **** #endif
 785:bluetooth_rxtx.c **** 		requested_mode = MODE_EGO;
 3483              		.loc 1 785 0
 3484 0b1a 0C4B     		ldr	r3, .L161+12
 3485 0b1c 0D22     		movs	r2, #13
 3486 0b1e 1A70     		strb	r2, [r3]
 786:bluetooth_rxtx.c **** 		ego_mode = request_params[0];
 3487              		.loc 1 786 0
 3488 0b20 BB68     		ldr	r3, [r7, #8]
 3489 0b22 1B88     		ldrh	r3, [r3]
 3490 0b24 DAB2     		uxtb	r2, r3
 3491 0b26 0D4B     		ldr	r3, .L161+28
 3492 0b28 1A70     		strb	r2, [r3]
 787:bluetooth_rxtx.c **** 		break;
 3493              		.loc 1 787 0
 3494 0b2a 02E0     		b	.L111
 3495              	.L49:
 788:bluetooth_rxtx.c **** 
ARM GAS  /tmp/ccSuvgbr.s 			page 75


 789:bluetooth_rxtx.c **** 	default:
 790:bluetooth_rxtx.c **** 		return 0;
 3496              		.loc 1 790 0
 3497 0b2c 0023     		movs	r3, #0
 3498 0b2e 01E0     		b	.L153
 3499              	.L154:
 706:bluetooth_rxtx.c **** 
 3500              		.loc 1 706 0
 3501 0b30 00BF     		nop
 3502              	.L111:
 791:bluetooth_rxtx.c **** 	}
 792:bluetooth_rxtx.c **** 	return 1;
 3503              		.loc 1 792 0
 3504 0b32 0123     		movs	r3, #1
 3505              	.L153:
 793:bluetooth_rxtx.c **** }
 3506              		.loc 1 793 0 discriminator 1
 3507 0b34 1846     		mov	r0, r3
 3508 0b36 6C37     		adds	r7, r7, #108
 3509              		.cfi_def_cfa_offset 36
 3510 0b38 BD46     		mov	sp, r7
 3511              		.cfi_def_cfa_register 13
 3512              		@ sp needed
 3513 0b3a BDE8F08F 		pop	{r4, r5, r6, r7, r8, r9, r10, fp, pc}
 3514              	.L162:
 3515 0b3e 00BF     		.align	2
 3516              	.L161:
 3517 0b40 00000000 		.word	clk100ns_offset
 3518 0b44 00000000 		.word	do_hop
 3519 0b48 00000000 		.word	hop_mode
 3520 0b4c 00000000 		.word	requested_mode
 3521 0b50 00000000 		.word	le
 3522 0b54 00000000 		.word	slave_mac_address
 3523 0b58 00000000 		.word	jam_mode
 3524 0b5c 00000000 		.word	ego_mode
 3525              		.cfi_endproc
 3526              	.LFE9:
 3528              		.section	.text.clkn_init,"ax",%progbits
 3529              		.align	2
 3530              		.thumb
 3531              		.thumb_func
 3533              	clkn_init:
 3534              	.LFB10:
 794:bluetooth_rxtx.c **** 
 795:bluetooth_rxtx.c **** static void clkn_init()
 796:bluetooth_rxtx.c **** {
 3535              		.loc 1 796 0
 3536              		.cfi_startproc
 3537              		@ args = 0, pretend = 0, frame = 0
 3538              		@ frame_needed = 1, uses_anonymous_args = 0
 3539              		@ link register save eliminated.
 3540 0000 80B4     		push	{r7}
 3541              		.cfi_def_cfa_offset 4
 3542              		.cfi_offset 7, -4
 3543 0002 00AF     		add	r7, sp, #0
 3544              		.cfi_def_cfa_register 7
 797:bluetooth_rxtx.c **** 	/*
ARM GAS  /tmp/ccSuvgbr.s 			page 76


 798:bluetooth_rxtx.c **** 	 * Because these are reset defaults, we're assuming TIMER0 is powered on
 799:bluetooth_rxtx.c **** 	 * and in timer mode.  The TIMER0 peripheral clock should have been set by
 800:bluetooth_rxtx.c **** 	 * clock_start().
 801:bluetooth_rxtx.c **** 	 */
 802:bluetooth_rxtx.c **** 
 803:bluetooth_rxtx.c **** 	/* stop and reset the timer to zero */
 804:bluetooth_rxtx.c **** 	T0TCR = TCR_Counter_Reset;
 3545              		.loc 1 804 0
 3546 0004 0C4B     		ldr	r3, .L164
 3547 0006 0222     		movs	r2, #2
 3548 0008 1A60     		str	r2, [r3]
 805:bluetooth_rxtx.c **** 	clkn = 0;
 3549              		.loc 1 805 0
 3550 000a 0C4B     		ldr	r3, .L164+4
 3551 000c 0022     		movs	r2, #0
 3552 000e 1A60     		str	r2, [r3]
 806:bluetooth_rxtx.c **** 
 807:bluetooth_rxtx.c **** #ifdef TC13BADGE
 808:bluetooth_rxtx.c **** 	/*
 809:bluetooth_rxtx.c **** 	 * The peripheral clock has a period of 33.3ns.  3 pclk periods makes one
 810:bluetooth_rxtx.c **** 	 * CLK100NS period (100 ns).
 811:bluetooth_rxtx.c **** 	 */
 812:bluetooth_rxtx.c **** 	T0PR = 2;
 813:bluetooth_rxtx.c **** #else
 814:bluetooth_rxtx.c **** 	/*
 815:bluetooth_rxtx.c **** 	 * The peripheral clock has a period of 20ns.  5 pclk periods
 816:bluetooth_rxtx.c **** 	 * makes one CLK100NS period (100 ns).
 817:bluetooth_rxtx.c **** 	 */
 818:bluetooth_rxtx.c **** 	T0PR = 4;
 3553              		.loc 1 818 0
 3554 0010 0B4B     		ldr	r3, .L164+8
 3555 0012 0422     		movs	r2, #4
 3556 0014 1A60     		str	r2, [r3]
 819:bluetooth_rxtx.c **** #endif
 820:bluetooth_rxtx.c **** 	/* 3125 * 100 ns = 312.5 us, the Bluetooth clock (CLKN). */
 821:bluetooth_rxtx.c **** 	T0MR0 = 3124;
 3557              		.loc 1 821 0
 3558 0016 0B4B     		ldr	r3, .L164+12
 3559 0018 40F63442 		movw	r2, #3124
 3560 001c 1A60     		str	r2, [r3]
 822:bluetooth_rxtx.c **** 	T0MCR = TMCR_MR0R | TMCR_MR0I;
 3561              		.loc 1 822 0
 3562 001e 0A4B     		ldr	r3, .L164+16
 3563 0020 0322     		movs	r2, #3
 3564 0022 1A60     		str	r2, [r3]
 823:bluetooth_rxtx.c **** 	ISER0 = ISER0_ISE_TIMER0;
 3565              		.loc 1 823 0
 3566 0024 094B     		ldr	r3, .L164+20
 3567 0026 0222     		movs	r2, #2
 3568 0028 1A60     		str	r2, [r3]
 824:bluetooth_rxtx.c **** 
 825:bluetooth_rxtx.c **** 	/* start timer */
 826:bluetooth_rxtx.c **** 	T0TCR = TCR_Counter_Enable;
 3569              		.loc 1 826 0
 3570 002a 034B     		ldr	r3, .L164
 3571 002c 0122     		movs	r2, #1
 3572 002e 1A60     		str	r2, [r3]
ARM GAS  /tmp/ccSuvgbr.s 			page 77


 827:bluetooth_rxtx.c **** }
 3573              		.loc 1 827 0
 3574 0030 BD46     		mov	sp, r7
 3575              		.cfi_def_cfa_register 13
 3576              		@ sp needed
 3577 0032 5DF8047B 		ldr	r7, [sp], #4
 3578              		.cfi_restore 7
 3579              		.cfi_def_cfa_offset 0
 3580 0036 7047     		bx	lr
 3581              	.L165:
 3582              		.align	2
 3583              	.L164:
 3584 0038 04400040 		.word	1073758212
 3585 003c 00000000 		.word	clkn
 3586 0040 0C400040 		.word	1073758220
 3587 0044 18400040 		.word	1073758232
 3588 0048 14400040 		.word	1073758228
 3589 004c 00E100E0 		.word	-536813312
 3590              		.cfi_endproc
 3591              	.LFE10:
 3593              		.section	.text.TIMER0_IRQHandler,"ax",%progbits
 3594              		.align	2
 3595              		.global	TIMER0_IRQHandler
 3596              		.thumb
 3597              		.thumb_func
 3599              	TIMER0_IRQHandler:
 3600              	.LFB11:
 828:bluetooth_rxtx.c **** 
 829:bluetooth_rxtx.c **** /* Update CLKN. */
 830:bluetooth_rxtx.c **** void TIMER0_IRQHandler()
 831:bluetooth_rxtx.c **** {
 3601              		.loc 1 831 0
 3602              		.cfi_startproc
 3603              		@ args = 0, pretend = 0, frame = 8
 3604              		@ frame_needed = 1, uses_anonymous_args = 0
 3605              		@ link register save eliminated.
 3606 0000 80B4     		push	{r7}
 3607              		.cfi_def_cfa_offset 4
 3608              		.cfi_offset 7, -4
 3609 0002 83B0     		sub	sp, sp, #12
 3610              		.cfi_def_cfa_offset 16
 3611 0004 00AF     		add	r7, sp, #0
 3612              		.cfi_def_cfa_register 7
 832:bluetooth_rxtx.c **** 	if (T0IR & TIR_MR0_Interrupt) {
 3613              		.loc 1 832 0
 3614 0006 4FF04023 		mov	r3, #1073758208
 3615 000a 1B68     		ldr	r3, [r3]
 3616 000c 03F00103 		and	r3, r3, #1
 3617 0010 002B     		cmp	r3, #0
 3618 0012 00F08480 		beq	.L166
 3619              	.LBB10:
 833:bluetooth_rxtx.c **** 
 834:bluetooth_rxtx.c **** 		clkn += clkn_offset + 1;
 3620              		.loc 1 834 0
 3621 0016 444B     		ldr	r3, .L177
 3622 0018 1B68     		ldr	r3, [r3]
 3623 001a 5A1C     		adds	r2, r3, #1
ARM GAS  /tmp/ccSuvgbr.s 			page 78


 3624 001c 434B     		ldr	r3, .L177+4
 3625 001e 1B68     		ldr	r3, [r3]
 3626 0020 1344     		add	r3, r3, r2
 3627 0022 424A     		ldr	r2, .L177+4
 3628 0024 1360     		str	r3, [r2]
 835:bluetooth_rxtx.c **** 		clkn_offset = 0;
 3629              		.loc 1 835 0
 3630 0026 404B     		ldr	r3, .L177
 3631 0028 0022     		movs	r2, #0
 3632 002a 1A60     		str	r2, [r3]
 836:bluetooth_rxtx.c **** 
 837:bluetooth_rxtx.c **** 		uint32_t le_clk = (clkn - le.conn_epoch) & 0x03;
 3633              		.loc 1 837 0
 3634 002c 3F4B     		ldr	r3, .L177+4
 3635 002e 1A68     		ldr	r2, [r3]
 3636 0030 3F4B     		ldr	r3, .L177+8
 3637 0032 9B69     		ldr	r3, [r3, #24]
 3638 0034 D31A     		subs	r3, r2, r3
 3639 0036 03F00303 		and	r3, r3, #3
 3640 003a 7B60     		str	r3, [r7, #4]
 838:bluetooth_rxtx.c **** 
 839:bluetooth_rxtx.c **** 		/* Trigger hop based on mode */
 840:bluetooth_rxtx.c **** 
 841:bluetooth_rxtx.c **** 		/* NONE or SWEEP -> 25 Hz */
 842:bluetooth_rxtx.c **** 		if (hop_mode == HOP_NONE || hop_mode == HOP_SWEEP) {
 3641              		.loc 1 842 0
 3642 003c 3D4B     		ldr	r3, .L177+12
 3643 003e 1B78     		ldrb	r3, [r3]
 3644 0040 DBB2     		uxtb	r3, r3
 3645 0042 002B     		cmp	r3, #0
 3646 0044 04D0     		beq	.L168
 3647              		.loc 1 842 0 is_stmt 0 discriminator 1
 3648 0046 3B4B     		ldr	r3, .L177+12
 3649 0048 1B78     		ldrb	r3, [r3]
 3650 004a DBB2     		uxtb	r3, r3
 3651 004c 012B     		cmp	r3, #1
 3652 004e 0AD1     		bne	.L169
 3653              	.L168:
 843:bluetooth_rxtx.c **** 			if ((clkn & 0x7f) == 0)
 3654              		.loc 1 843 0 is_stmt 1
 3655 0050 364B     		ldr	r3, .L177+4
 3656 0052 1B68     		ldr	r3, [r3]
 3657 0054 03F07F03 		and	r3, r3, #127
 3658 0058 002B     		cmp	r3, #0
 3659 005a 03D1     		bne	.L170
 844:bluetooth_rxtx.c **** 				do_hop = 1;
 3660              		.loc 1 844 0
 3661 005c 364B     		ldr	r3, .L177+16
 3662 005e 0122     		movs	r2, #1
 3663 0060 1A70     		strb	r2, [r3]
 843:bluetooth_rxtx.c **** 			if ((clkn & 0x7f) == 0)
 3664              		.loc 1 843 0
 3665 0062 4EE0     		b	.L171
 3666              	.L170:
 3667 0064 4DE0     		b	.L171
 3668              	.L169:
 845:bluetooth_rxtx.c **** 		}
ARM GAS  /tmp/ccSuvgbr.s 			page 79


 846:bluetooth_rxtx.c **** 		/* BLUETOOTH -> 1600 Hz */
 847:bluetooth_rxtx.c **** 		else if (hop_mode == HOP_BLUETOOTH) {
 3669              		.loc 1 847 0
 3670 0066 334B     		ldr	r3, .L177+12
 3671 0068 1B78     		ldrb	r3, [r3]
 3672 006a DBB2     		uxtb	r3, r3
 3673 006c 022B     		cmp	r3, #2
 3674 006e 09D1     		bne	.L172
 848:bluetooth_rxtx.c **** 			if ((clkn & 0x1) == 0)
 3675              		.loc 1 848 0
 3676 0070 2E4B     		ldr	r3, .L177+4
 3677 0072 1B68     		ldr	r3, [r3]
 3678 0074 03F00103 		and	r3, r3, #1
 3679 0078 002B     		cmp	r3, #0
 3680 007a 42D1     		bne	.L171
 849:bluetooth_rxtx.c **** 				do_hop = 1;
 3681              		.loc 1 849 0
 3682 007c 2E4B     		ldr	r3, .L177+16
 3683 007e 0122     		movs	r2, #1
 3684 0080 1A70     		strb	r2, [r3]
 3685 0082 3EE0     		b	.L171
 3686              	.L172:
 850:bluetooth_rxtx.c **** 		}
 851:bluetooth_rxtx.c **** 		/* BLUETOOTH Low Energy -> 7.5ms - 4.0s in multiples of 1.25 ms */
 852:bluetooth_rxtx.c **** 		else if (hop_mode == HOP_BTLE) {
 3687              		.loc 1 852 0
 3688 0084 2B4B     		ldr	r3, .L177+12
 3689 0086 1B78     		ldrb	r3, [r3]
 3690 0088 DBB2     		uxtb	r3, r3
 3691 008a 032B     		cmp	r3, #3
 3692 008c 26D1     		bne	.L174
 853:bluetooth_rxtx.c **** 			// Only hop if connected
 854:bluetooth_rxtx.c **** 			if (le.link_state == LINK_CONNECTED && le_clk == 0) {
 3693              		.loc 1 854 0
 3694 008e 284B     		ldr	r3, .L177+8
 3695 0090 1B7D     		ldrb	r3, [r3, #20]	@ zero_extendqisi2
 3696 0092 032B     		cmp	r3, #3
 3697 0094 35D1     		bne	.L171
 3698              		.loc 1 854 0 is_stmt 0 discriminator 1
 3699 0096 7B68     		ldr	r3, [r7, #4]
 3700 0098 002B     		cmp	r3, #0
 3701 009a 32D1     		bne	.L171
 855:bluetooth_rxtx.c **** 				--le.interval_timer;
 3702              		.loc 1 855 0 is_stmt 1
 3703 009c 244B     		ldr	r3, .L177+8
 3704 009e 9B8B     		ldrh	r3, [r3, #28]	@ movhi
 3705 00a0 9BB2     		uxth	r3, r3
 3706 00a2 013B     		subs	r3, r3, #1
 3707 00a4 9AB2     		uxth	r2, r3
 3708 00a6 224B     		ldr	r3, .L177+8
 3709 00a8 9A83     		strh	r2, [r3, #28]	@ movhi
 856:bluetooth_rxtx.c **** 				if (le.interval_timer == 0) {
 3710              		.loc 1 856 0
 3711 00aa 214B     		ldr	r3, .L177+8
 3712 00ac 9B8B     		ldrh	r3, [r3, #28]	@ movhi
 3713 00ae 9BB2     		uxth	r3, r3
 3714 00b0 002B     		cmp	r3, #0
ARM GAS  /tmp/ccSuvgbr.s 			page 80


 3715 00b2 0ED1     		bne	.L176
 857:bluetooth_rxtx.c **** 					do_hop = 1;
 3716              		.loc 1 857 0
 3717 00b4 204B     		ldr	r3, .L177+16
 3718 00b6 0122     		movs	r2, #1
 3719 00b8 1A70     		strb	r2, [r3]
 858:bluetooth_rxtx.c **** 					++le.conn_count;
 3720              		.loc 1 858 0
 3721 00ba 1D4B     		ldr	r3, .L177+8
 3722 00bc 1B8C     		ldrh	r3, [r3, #32]	@ movhi
 3723 00be 9BB2     		uxth	r3, r3
 3724 00c0 0133     		adds	r3, r3, #1
 3725 00c2 9AB2     		uxth	r2, r3
 3726 00c4 1A4B     		ldr	r3, .L177+8
 3727 00c6 1A84     		strh	r2, [r3, #32]	@ movhi
 859:bluetooth_rxtx.c **** 					le.interval_timer = le.conn_interval;
 3728              		.loc 1 859 0
 3729 00c8 194B     		ldr	r3, .L177+8
 3730 00ca DA8B     		ldrh	r2, [r3, #30]
 3731 00cc 184B     		ldr	r3, .L177+8
 3732 00ce 9A83     		strh	r2, [r3, #28]	@ movhi
 3733 00d0 17E0     		b	.L171
 3734              	.L176:
 860:bluetooth_rxtx.c **** 				} else {
 861:bluetooth_rxtx.c **** 					TXLED_CLR; // hack!
 3735              		.loc 1 861 0
 3736 00d2 1A4B     		ldr	r3, .L177+20
 3737 00d4 4FF48072 		mov	r2, #256
 3738 00d8 1A60     		str	r2, [r3]
 3739 00da 12E0     		b	.L171
 3740              	.L174:
 862:bluetooth_rxtx.c **** 				}
 863:bluetooth_rxtx.c **** 			}
 864:bluetooth_rxtx.c **** 		}
 865:bluetooth_rxtx.c **** 		else if (hop_mode == HOP_AFH) {
 3741              		.loc 1 865 0
 3742 00dc 154B     		ldr	r3, .L177+12
 3743 00de 1B78     		ldrb	r3, [r3]
 3744 00e0 DBB2     		uxtb	r3, r3
 3745 00e2 052B     		cmp	r3, #5
 3746 00e4 0DD1     		bne	.L171
 866:bluetooth_rxtx.c **** 			if( (last_hop + hop_timeout) == clkn ) {
 3747              		.loc 1 866 0
 3748 00e6 164B     		ldr	r3, .L177+24
 3749 00e8 1B88     		ldrh	r3, [r3]	@ movhi
 3750 00ea 9BB2     		uxth	r3, r3
 3751 00ec 1A46     		mov	r2, r3
 3752 00ee 154B     		ldr	r3, .L177+28
 3753 00f0 1B68     		ldr	r3, [r3]
 3754 00f2 1A44     		add	r2, r2, r3
 3755 00f4 0D4B     		ldr	r3, .L177+4
 3756 00f6 1B68     		ldr	r3, [r3]
 3757 00f8 9A42     		cmp	r2, r3
 3758 00fa 02D1     		bne	.L171
 867:bluetooth_rxtx.c **** 				do_hop = 1;
 3759              		.loc 1 867 0
 3760 00fc 0E4B     		ldr	r3, .L177+16
ARM GAS  /tmp/ccSuvgbr.s 			page 81


 3761 00fe 0122     		movs	r2, #1
 3762 0100 1A70     		strb	r2, [r3]
 3763              	.L171:
 868:bluetooth_rxtx.c **** 			}
 869:bluetooth_rxtx.c **** 		}
 870:bluetooth_rxtx.c **** 
 871:bluetooth_rxtx.c **** 		T0MR0 = 3124 + clk100ns_offset;
 3764              		.loc 1 871 0
 3765 0102 114B     		ldr	r3, .L177+32
 3766 0104 114A     		ldr	r2, .L177+36
 3767 0106 1288     		ldrh	r2, [r2]	@ movhi
 3768 0108 92B2     		uxth	r2, r2
 3769 010a 02F63442 		addw	r2, r2, #3124
 3770 010e 1A60     		str	r2, [r3]
 872:bluetooth_rxtx.c **** 		clk100ns_offset = 0;
 3771              		.loc 1 872 0
 3772 0110 0E4B     		ldr	r3, .L177+36
 3773 0112 0022     		movs	r2, #0
 3774 0114 1A80     		strh	r2, [r3]	@ movhi
 873:bluetooth_rxtx.c **** 
 874:bluetooth_rxtx.c **** 		/* Ack interrupt */
 875:bluetooth_rxtx.c **** 		T0IR = TIR_MR0_Interrupt;
 3775              		.loc 1 875 0
 3776 0116 4FF04023 		mov	r3, #1073758208
 3777 011a 0122     		movs	r2, #1
 3778 011c 1A60     		str	r2, [r3]
 3779              	.L166:
 3780              	.LBE10:
 876:bluetooth_rxtx.c **** 	}
 877:bluetooth_rxtx.c **** }
 3781              		.loc 1 877 0
 3782 011e 0C37     		adds	r7, r7, #12
 3783              		.cfi_def_cfa_offset 4
 3784 0120 BD46     		mov	sp, r7
 3785              		.cfi_def_cfa_register 13
 3786              		@ sp needed
 3787 0122 5DF8047B 		ldr	r7, [sp], #4
 3788              		.cfi_restore 7
 3789              		.cfi_def_cfa_offset 0
 3790 0126 7047     		bx	lr
 3791              	.L178:
 3792              		.align	2
 3793              	.L177:
 3794 0128 00000000 		.word	clkn_offset
 3795 012c 00000000 		.word	clkn
 3796 0130 00000000 		.word	le
 3797 0134 00000000 		.word	hop_mode
 3798 0138 00000000 		.word	do_hop
 3799 013c 3CC00920 		.word	537509948
 3800 0140 00000000 		.word	hop_timeout
 3801 0144 00000000 		.word	last_hop
 3802 0148 18400040 		.word	1073758232
 3803 014c 00000000 		.word	clk100ns_offset
 3804              		.cfi_endproc
 3805              	.LFE11:
 3807              		.section	.text.EINT3_IRQHandler,"ax",%progbits
 3808              		.align	2
ARM GAS  /tmp/ccSuvgbr.s 			page 82


 3809              		.global	EINT3_IRQHandler
 3810              		.thumb
 3811              		.thumb_func
 3813              	EINT3_IRQHandler:
 3814              	.LFB12:
 878:bluetooth_rxtx.c **** 
 879:bluetooth_rxtx.c **** /* EINT3 handler is also defined in ubertooth.c for TC13BADGE. */
 880:bluetooth_rxtx.c **** #ifndef TC13BADGE
 881:bluetooth_rxtx.c **** //static volatile u8 txledstate = 1;
 882:bluetooth_rxtx.c **** void EINT3_IRQHandler()
 883:bluetooth_rxtx.c **** {
 3815              		.loc 1 883 0
 3816              		.cfi_startproc
 3817              		@ args = 0, pretend = 0, frame = 0
 3818              		@ frame_needed = 1, uses_anonymous_args = 0
 3819              		@ link register save eliminated.
 3820 0000 80B4     		push	{r7}
 3821              		.cfi_def_cfa_offset 4
 3822              		.cfi_offset 7, -4
 3823 0002 00AF     		add	r7, sp, #0
 3824              		.cfi_def_cfa_register 7
 884:bluetooth_rxtx.c **** 	/* TODO - check specific source of shared interrupt */
 885:bluetooth_rxtx.c **** 	IO2IntClr   = PIN_GIO6; // clear interrupt
 3825              		.loc 1 885 0
 3826 0004 0A4B     		ldr	r3, .L181
 3827 0006 0422     		movs	r2, #4
 3828 0008 1A60     		str	r2, [r3]
 886:bluetooth_rxtx.c **** 	DIO_SSEL_CLR;           // enable SPI
 3829              		.loc 1 886 0
 3830 000a 0A4B     		ldr	r3, .L181+4
 3831 000c 4FF08052 		mov	r2, #268435456
 3832 0010 1A60     		str	r2, [r3]
 887:bluetooth_rxtx.c **** 	cs_trigger  = 1;        // signal trigger
 3833              		.loc 1 887 0
 3834 0012 094B     		ldr	r3, .L181+8
 3835 0014 0122     		movs	r2, #1
 3836 0016 1A70     		strb	r2, [r3]
 888:bluetooth_rxtx.c **** 	if (hop_mode == HOP_BLUETOOTH)
 3837              		.loc 1 888 0
 3838 0018 084B     		ldr	r3, .L181+12
 3839 001a 1B78     		ldrb	r3, [r3]
 3840 001c DBB2     		uxtb	r3, r3
 3841 001e 022B     		cmp	r3, #2
 3842 0020 02D1     		bne	.L179
 889:bluetooth_rxtx.c **** 		dma_discard = 0;
 3843              		.loc 1 889 0
 3844 0022 074B     		ldr	r3, .L181+16
 3845 0024 0022     		movs	r2, #0
 3846 0026 1A70     		strb	r2, [r3]
 3847              	.L179:
 890:bluetooth_rxtx.c **** 
 891:bluetooth_rxtx.c **** }
 3848              		.loc 1 891 0
 3849 0028 BD46     		mov	sp, r7
 3850              		.cfi_def_cfa_register 13
 3851              		@ sp needed
 3852 002a 5DF8047B 		ldr	r7, [sp], #4
ARM GAS  /tmp/ccSuvgbr.s 			page 83


 3853              		.cfi_restore 7
 3854              		.cfi_def_cfa_offset 0
 3855 002e 7047     		bx	lr
 3856              	.L182:
 3857              		.align	2
 3858              	.L181:
 3859 0030 AC800240 		.word	1073905836
 3860 0034 9CC00920 		.word	537510044
 3861 0038 00000000 		.word	cs_trigger
 3862 003c 00000000 		.word	hop_mode
 3863 0040 00000000 		.word	dma_discard
 3864              		.cfi_endproc
 3865              	.LFE12:
 3867              		.section	.text.msleep,"ax",%progbits
 3868              		.align	2
 3869              		.thumb
 3870              		.thumb_func
 3872              	msleep:
 3873              	.LFB13:
 892:bluetooth_rxtx.c **** #endif // TC13BADGE
 893:bluetooth_rxtx.c **** 
 894:bluetooth_rxtx.c **** /* Sleep (busy wait) for 'millis' milliseconds. The 'wait' routines in
 895:bluetooth_rxtx.c ****  * ubertooth.c are matched to the clock setup at boot time and can not
 896:bluetooth_rxtx.c ****  * be used while the board is running at 100MHz. */
 897:bluetooth_rxtx.c **** static void msleep(uint32_t millis)
 898:bluetooth_rxtx.c **** {
 3874              		.loc 1 898 0
 3875              		.cfi_startproc
 3876              		@ args = 0, pretend = 0, frame = 16
 3877              		@ frame_needed = 1, uses_anonymous_args = 0
 3878              		@ link register save eliminated.
 3879 0000 80B4     		push	{r7}
 3880              		.cfi_def_cfa_offset 4
 3881              		.cfi_offset 7, -4
 3882 0002 85B0     		sub	sp, sp, #20
 3883              		.cfi_def_cfa_offset 24
 3884 0004 00AF     		add	r7, sp, #0
 3885              		.cfi_def_cfa_register 7
 3886 0006 7860     		str	r0, [r7, #4]
 899:bluetooth_rxtx.c **** 	uint32_t stop_at = clkn + millis * 3125 / 1000;  // millis -> clkn ticks
 3887              		.loc 1 899 0
 3888 0008 7B68     		ldr	r3, [r7, #4]
 3889 000a 40F63542 		movw	r2, #3125
 3890 000e 02FB03F3 		mul	r3, r2, r3
 3891 0012 094A     		ldr	r2, .L185
 3892 0014 A2FB0323 		umull	r2, r3, r2, r3
 3893 0018 9A09     		lsrs	r2, r3, #6
 3894 001a 084B     		ldr	r3, .L185+4
 3895 001c 1B68     		ldr	r3, [r3]
 3896 001e 1344     		add	r3, r3, r2
 3897 0020 FB60     		str	r3, [r7, #12]
 3898              	.L184:
 900:bluetooth_rxtx.c **** 	do { } while (clkn < stop_at);                   // TODO: handle wrapping
 3899              		.loc 1 900 0 discriminator 1
 3900 0022 064B     		ldr	r3, .L185+4
 3901 0024 1A68     		ldr	r2, [r3]
 3902 0026 FB68     		ldr	r3, [r7, #12]
ARM GAS  /tmp/ccSuvgbr.s 			page 84


 3903 0028 9A42     		cmp	r2, r3
 3904 002a FAD3     		bcc	.L184
 901:bluetooth_rxtx.c **** }
 3905              		.loc 1 901 0
 3906 002c 1437     		adds	r7, r7, #20
 3907              		.cfi_def_cfa_offset 4
 3908 002e BD46     		mov	sp, r7
 3909              		.cfi_def_cfa_register 13
 3910              		@ sp needed
 3911 0030 5DF8047B 		ldr	r7, [sp], #4
 3912              		.cfi_restore 7
 3913              		.cfi_def_cfa_offset 0
 3914 0034 7047     		bx	lr
 3915              	.L186:
 3916 0036 00BF     		.align	2
 3917              	.L185:
 3918 0038 D34D6210 		.word	274877907
 3919 003c 00000000 		.word	clkn
 3920              		.cfi_endproc
 3921              	.LFE13:
 3923              		.section	.text.dma_init,"ax",%progbits
 3924              		.align	2
 3925              		.thumb
 3926              		.thumb_func
 3928              	dma_init:
 3929              	.LFB14:
 902:bluetooth_rxtx.c **** 
 903:bluetooth_rxtx.c **** static void dma_init()
 904:bluetooth_rxtx.c **** {
 3930              		.loc 1 904 0
 3931              		.cfi_startproc
 3932              		@ args = 0, pretend = 0, frame = 0
 3933              		@ frame_needed = 1, uses_anonymous_args = 0
 3934              		@ link register save eliminated.
 3935 0000 80B4     		push	{r7}
 3936              		.cfi_def_cfa_offset 4
 3937              		.cfi_offset 7, -4
 3938 0002 00AF     		add	r7, sp, #0
 3939              		.cfi_def_cfa_register 7
 905:bluetooth_rxtx.c **** 	/* power up GPDMA controller */
 906:bluetooth_rxtx.c **** 	PCONP |= PCONP_PCGPDMA;
 3940              		.loc 1 906 0
 3941 0004 334A     		ldr	r2, .L189
 3942 0006 334B     		ldr	r3, .L189
 3943 0008 1B68     		ldr	r3, [r3]
 3944 000a 43F00053 		orr	r3, r3, #536870912
 3945 000e 1360     		str	r3, [r2]
 907:bluetooth_rxtx.c **** 
 908:bluetooth_rxtx.c **** 	/* zero out channel configs and clear interrupts */
 909:bluetooth_rxtx.c **** 	DMACC0Config = 0;
 3946              		.loc 1 909 0
 3947 0010 314B     		ldr	r3, .L189+4
 3948 0012 0022     		movs	r2, #0
 3949 0014 1A60     		str	r2, [r3]
 910:bluetooth_rxtx.c **** 	DMACC1Config = 0;
 3950              		.loc 1 910 0
 3951 0016 314B     		ldr	r3, .L189+8
ARM GAS  /tmp/ccSuvgbr.s 			page 85


 3952 0018 0022     		movs	r2, #0
 3953 001a 1A60     		str	r2, [r3]
 911:bluetooth_rxtx.c **** 	DMACC2Config = 0;
 3954              		.loc 1 911 0
 3955 001c 304B     		ldr	r3, .L189+12
 3956 001e 0022     		movs	r2, #0
 3957 0020 1A60     		str	r2, [r3]
 912:bluetooth_rxtx.c **** 	DMACC3Config = 0;
 3958              		.loc 1 912 0
 3959 0022 304B     		ldr	r3, .L189+16
 3960 0024 0022     		movs	r2, #0
 3961 0026 1A60     		str	r2, [r3]
 913:bluetooth_rxtx.c **** 	DMACC4Config = 0;
 3962              		.loc 1 913 0
 3963 0028 2F4B     		ldr	r3, .L189+20
 3964 002a 0022     		movs	r2, #0
 3965 002c 1A60     		str	r2, [r3]
 914:bluetooth_rxtx.c **** 	DMACC5Config = 0;
 3966              		.loc 1 914 0
 3967 002e 2F4B     		ldr	r3, .L189+24
 3968 0030 0022     		movs	r2, #0
 3969 0032 1A60     		str	r2, [r3]
 915:bluetooth_rxtx.c **** 	DMACC6Config = 0;
 3970              		.loc 1 915 0
 3971 0034 2E4B     		ldr	r3, .L189+28
 3972 0036 0022     		movs	r2, #0
 3973 0038 1A60     		str	r2, [r3]
 916:bluetooth_rxtx.c **** 	DMACC7Config = 0;
 3974              		.loc 1 916 0
 3975 003a 2E4B     		ldr	r3, .L189+32
 3976 003c 0022     		movs	r2, #0
 3977 003e 1A60     		str	r2, [r3]
 917:bluetooth_rxtx.c **** 	DMACIntTCClear = 0xFF;
 3978              		.loc 1 917 0
 3979 0040 2D4B     		ldr	r3, .L189+36
 3980 0042 FF22     		movs	r2, #255
 3981 0044 1A60     		str	r2, [r3]
 918:bluetooth_rxtx.c **** 	DMACIntErrClr = 0xFF;
 3982              		.loc 1 918 0
 3983 0046 2D4B     		ldr	r3, .L189+40
 3984 0048 FF22     		movs	r2, #255
 3985 004a 1A60     		str	r2, [r3]
 919:bluetooth_rxtx.c **** 
 920:bluetooth_rxtx.c **** 	/* DMA linked lists */
 921:bluetooth_rxtx.c **** 	rx_dma_lli1.src = (u32)&(DIO_SSP_DR);
 3986              		.loc 1 921 0
 3987 004c 2C4B     		ldr	r3, .L189+44
 3988 004e 2D4A     		ldr	r2, .L189+48
 3989 0050 1A60     		str	r2, [r3]
 922:bluetooth_rxtx.c **** 	rx_dma_lli1.dest = (u32)&rxbuf1[0];
 3990              		.loc 1 922 0
 3991 0052 2D4A     		ldr	r2, .L189+52
 3992 0054 2A4B     		ldr	r3, .L189+44
 3993 0056 5A60     		str	r2, [r3, #4]
 923:bluetooth_rxtx.c **** 	rx_dma_lli1.next_lli = (u32)&rx_dma_lli2;
 3994              		.loc 1 923 0
 3995 0058 2C4A     		ldr	r2, .L189+56
ARM GAS  /tmp/ccSuvgbr.s 			page 86


 3996 005a 294B     		ldr	r3, .L189+44
 3997 005c 9A60     		str	r2, [r3, #8]
 924:bluetooth_rxtx.c **** 	rx_dma_lli1.control = (DMA_SIZE) |
 3998              		.loc 1 924 0
 3999 005e 284B     		ldr	r3, .L189+44
 4000 0060 2B4A     		ldr	r2, .L189+60
 4001 0062 DA60     		str	r2, [r3, #12]
 925:bluetooth_rxtx.c **** 			(1 << 12) |        /* source burst size = 4 */
 926:bluetooth_rxtx.c **** 			(1 << 15) |        /* destination burst size = 4 */
 927:bluetooth_rxtx.c **** 			(0 << 18) |        /* source width 8 bits */
 928:bluetooth_rxtx.c **** 			(0 << 21) |        /* destination width 8 bits */
 929:bluetooth_rxtx.c **** 			DMACCxControl_DI | /* destination increment */
 930:bluetooth_rxtx.c **** 			DMACCxControl_I;   /* terminal count interrupt enable */
 931:bluetooth_rxtx.c **** 
 932:bluetooth_rxtx.c **** 	rx_dma_lli2.src = (u32)&(DIO_SSP_DR);
 4002              		.loc 1 932 0
 4003 0064 294B     		ldr	r3, .L189+56
 4004 0066 274A     		ldr	r2, .L189+48
 4005 0068 1A60     		str	r2, [r3]
 933:bluetooth_rxtx.c **** 	rx_dma_lli2.dest = (u32)&rxbuf2[0];
 4006              		.loc 1 933 0
 4007 006a 2A4A     		ldr	r2, .L189+64
 4008 006c 274B     		ldr	r3, .L189+56
 4009 006e 5A60     		str	r2, [r3, #4]
 934:bluetooth_rxtx.c **** 	rx_dma_lli2.next_lli = (u32)&rx_dma_lli1;
 4010              		.loc 1 934 0
 4011 0070 234A     		ldr	r2, .L189+44
 4012 0072 264B     		ldr	r3, .L189+56
 4013 0074 9A60     		str	r2, [r3, #8]
 935:bluetooth_rxtx.c **** 	rx_dma_lli2.control = (DMA_SIZE) |
 4014              		.loc 1 935 0
 4015 0076 254B     		ldr	r3, .L189+56
 4016 0078 254A     		ldr	r2, .L189+60
 4017 007a DA60     		str	r2, [r3, #12]
 936:bluetooth_rxtx.c **** 			(1 << 12) |        /* source burst size = 4 */
 937:bluetooth_rxtx.c **** 			(1 << 15) |        /* destination burst size = 4 */
 938:bluetooth_rxtx.c **** 			(0 << 18) |        /* source width 8 bits */
 939:bluetooth_rxtx.c **** 			(0 << 21) |        /* destination width 8 bits */
 940:bluetooth_rxtx.c **** 			DMACCxControl_DI | /* destination increment */
 941:bluetooth_rxtx.c **** 			DMACCxControl_I;   /* terminal count interrupt enable */
 942:bluetooth_rxtx.c **** 
 943:bluetooth_rxtx.c **** 	/* disable DMA interrupts */
 944:bluetooth_rxtx.c **** 	ICER0 = ICER0_ICE_DMA;
 4018              		.loc 1 944 0
 4019 007c 264B     		ldr	r3, .L189+68
 4020 007e 4FF08062 		mov	r2, #67108864
 4021 0082 1A60     		str	r2, [r3]
 945:bluetooth_rxtx.c **** 
 946:bluetooth_rxtx.c **** 	/* enable DMA globally */
 947:bluetooth_rxtx.c **** 	DMACConfig = DMACConfig_E;
 4022              		.loc 1 947 0
 4023 0084 254B     		ldr	r3, .L189+72
 4024 0086 0122     		movs	r2, #1
 4025 0088 1A60     		str	r2, [r3]
 948:bluetooth_rxtx.c **** 	while (!(DMACConfig & DMACConfig_E));
 4026              		.loc 1 948 0
 4027 008a 00BF     		nop
ARM GAS  /tmp/ccSuvgbr.s 			page 87


 4028              	.L188:
 4029              		.loc 1 948 0 is_stmt 0 discriminator 1
 4030 008c 234B     		ldr	r3, .L189+72
 4031 008e 1B68     		ldr	r3, [r3]
 4032 0090 03F00103 		and	r3, r3, #1
 4033 0094 002B     		cmp	r3, #0
 4034 0096 F9D0     		beq	.L188
 949:bluetooth_rxtx.c **** 
 950:bluetooth_rxtx.c **** 	/* configure DMA channel 1 */
 951:bluetooth_rxtx.c **** 	DMACC0SrcAddr = rx_dma_lli1.src;
 4035              		.loc 1 951 0 is_stmt 1
 4036 0098 214A     		ldr	r2, .L189+76
 4037 009a 194B     		ldr	r3, .L189+44
 4038 009c 1B68     		ldr	r3, [r3]
 4039 009e 1360     		str	r3, [r2]
 952:bluetooth_rxtx.c **** 	DMACC0DestAddr = rx_dma_lli1.dest;
 4040              		.loc 1 952 0
 4041 00a0 204A     		ldr	r2, .L189+80
 4042 00a2 174B     		ldr	r3, .L189+44
 4043 00a4 5B68     		ldr	r3, [r3, #4]
 4044 00a6 1360     		str	r3, [r2]
 953:bluetooth_rxtx.c **** 	DMACC0LLI = rx_dma_lli1.next_lli;
 4045              		.loc 1 953 0
 4046 00a8 1F4A     		ldr	r2, .L189+84
 4047 00aa 154B     		ldr	r3, .L189+44
 4048 00ac 9B68     		ldr	r3, [r3, #8]
 4049 00ae 1360     		str	r3, [r2]
 954:bluetooth_rxtx.c **** 	DMACC0Control = rx_dma_lli1.control;
 4050              		.loc 1 954 0
 4051 00b0 1E4A     		ldr	r2, .L189+88
 4052 00b2 134B     		ldr	r3, .L189+44
 4053 00b4 DB68     		ldr	r3, [r3, #12]
 4054 00b6 1360     		str	r3, [r2]
 955:bluetooth_rxtx.c **** 	DMACC0Config =
 4055              		.loc 1 955 0
 4056 00b8 074B     		ldr	r3, .L189+4
 4057 00ba 4DF20602 		movw	r2, #53254
 4058 00be 1A60     		str	r2, [r3]
 956:bluetooth_rxtx.c **** 			DIO_SSP_SRC |
 957:bluetooth_rxtx.c **** 			(0x2 << 11) |           /* peripheral to memory */
 958:bluetooth_rxtx.c **** 			DMACCxConfig_IE |       /* allow error interrupts */
 959:bluetooth_rxtx.c **** 			DMACCxConfig_ITC;       /* allow terminal count interrupts */
 960:bluetooth_rxtx.c **** 
 961:bluetooth_rxtx.c **** 	/* reset interrupt counters */
 962:bluetooth_rxtx.c **** 	rx_tc = 0;
 4059              		.loc 1 962 0
 4060 00c0 1B4B     		ldr	r3, .L189+92
 4061 00c2 0022     		movs	r2, #0
 4062 00c4 1A60     		str	r2, [r3]
 963:bluetooth_rxtx.c **** 	rx_err = 0;
 4063              		.loc 1 963 0
 4064 00c6 1B4B     		ldr	r3, .L189+96
 4065 00c8 0022     		movs	r2, #0
 4066 00ca 1A60     		str	r2, [r3]
 964:bluetooth_rxtx.c **** }
 4067              		.loc 1 964 0
 4068 00cc BD46     		mov	sp, r7
ARM GAS  /tmp/ccSuvgbr.s 			page 88


 4069              		.cfi_def_cfa_register 13
 4070              		@ sp needed
 4071 00ce 5DF8047B 		ldr	r7, [sp], #4
 4072              		.cfi_restore 7
 4073              		.cfi_def_cfa_offset 0
 4074 00d2 7047     		bx	lr
 4075              	.L190:
 4076              		.align	2
 4077              	.L189:
 4078 00d4 C4C00F40 		.word	1074774212
 4079 00d8 10410050 		.word	1342193936
 4080 00dc 30410050 		.word	1342193968
 4081 00e0 50410050 		.word	1342194000
 4082 00e4 70410050 		.word	1342194032
 4083 00e8 90410050 		.word	1342194064
 4084 00ec B0410050 		.word	1342194096
 4085 00f0 D0410050 		.word	1342194128
 4086 00f4 F0410050 		.word	1342194160
 4087 00f8 08400050 		.word	1342193672
 4088 00fc 10400050 		.word	1342193680
 4089 0100 00000000 		.word	rx_dma_lli1
 4090 0104 08000340 		.word	1073938440
 4091 0108 00000000 		.word	rxbuf1
 4092 010c 00000000 		.word	rx_dma_lli2
 4093 0110 32900088 		.word	-2013229006
 4094 0114 00000000 		.word	rxbuf2
 4095 0118 80E100E0 		.word	-536813184
 4096 011c 30400050 		.word	1342193712
 4097 0120 00410050 		.word	1342193920
 4098 0124 04410050 		.word	1342193924
 4099 0128 08410050 		.word	1342193928
 4100 012c 0C410050 		.word	1342193932
 4101 0130 00000000 		.word	rx_tc
 4102 0134 00000000 		.word	rx_err
 4103              		.cfi_endproc
 4104              	.LFE14:
 4106              		.section	.text.dma_init_le,"ax",%progbits
 4107              		.align	2
 4108              		.thumb
 4109              		.thumb_func
 4111              	dma_init_le:
 4112              	.LFB15:
 965:bluetooth_rxtx.c **** 
 966:bluetooth_rxtx.c **** static void dma_init_le()
 967:bluetooth_rxtx.c **** {
 4113              		.loc 1 967 0
 4114              		.cfi_startproc
 4115              		@ args = 0, pretend = 0, frame = 8
 4116              		@ frame_needed = 1, uses_anonymous_args = 0
 4117              		@ link register save eliminated.
 4118 0000 80B4     		push	{r7}
 4119              		.cfi_def_cfa_offset 4
 4120              		.cfi_offset 7, -4
 4121 0002 83B0     		sub	sp, sp, #12
 4122              		.cfi_def_cfa_offset 16
 4123 0004 00AF     		add	r7, sp, #0
 4124              		.cfi_def_cfa_register 7
ARM GAS  /tmp/ccSuvgbr.s 			page 89


 968:bluetooth_rxtx.c **** 	int i;
 969:bluetooth_rxtx.c **** 
 970:bluetooth_rxtx.c **** 	/* power up GPDMA controller */
 971:bluetooth_rxtx.c **** 	PCONP |= PCONP_PCGPDMA;
 4125              		.loc 1 971 0
 4126 0006 3F4A     		ldr	r2, .L197
 4127 0008 3E4B     		ldr	r3, .L197
 4128 000a 1B68     		ldr	r3, [r3]
 4129 000c 43F00053 		orr	r3, r3, #536870912
 4130 0010 1360     		str	r3, [r2]
 972:bluetooth_rxtx.c **** 
 973:bluetooth_rxtx.c **** 	/* zero out channel configs and clear interrupts */
 974:bluetooth_rxtx.c **** 	DMACC0Config = 0;
 4131              		.loc 1 974 0
 4132 0012 3D4B     		ldr	r3, .L197+4
 4133 0014 0022     		movs	r2, #0
 4134 0016 1A60     		str	r2, [r3]
 975:bluetooth_rxtx.c **** 	DMACC1Config = 0;
 4135              		.loc 1 975 0
 4136 0018 3C4B     		ldr	r3, .L197+8
 4137 001a 0022     		movs	r2, #0
 4138 001c 1A60     		str	r2, [r3]
 976:bluetooth_rxtx.c **** 	DMACC2Config = 0;
 4139              		.loc 1 976 0
 4140 001e 3C4B     		ldr	r3, .L197+12
 4141 0020 0022     		movs	r2, #0
 4142 0022 1A60     		str	r2, [r3]
 977:bluetooth_rxtx.c **** 	DMACC3Config = 0;
 4143              		.loc 1 977 0
 4144 0024 3B4B     		ldr	r3, .L197+16
 4145 0026 0022     		movs	r2, #0
 4146 0028 1A60     		str	r2, [r3]
 978:bluetooth_rxtx.c **** 	DMACC4Config = 0;
 4147              		.loc 1 978 0
 4148 002a 3B4B     		ldr	r3, .L197+20
 4149 002c 0022     		movs	r2, #0
 4150 002e 1A60     		str	r2, [r3]
 979:bluetooth_rxtx.c **** 	DMACC5Config = 0;
 4151              		.loc 1 979 0
 4152 0030 3A4B     		ldr	r3, .L197+24
 4153 0032 0022     		movs	r2, #0
 4154 0034 1A60     		str	r2, [r3]
 980:bluetooth_rxtx.c **** 	DMACC6Config = 0;
 4155              		.loc 1 980 0
 4156 0036 3A4B     		ldr	r3, .L197+28
 4157 0038 0022     		movs	r2, #0
 4158 003a 1A60     		str	r2, [r3]
 981:bluetooth_rxtx.c **** 	DMACC7Config = 0;
 4159              		.loc 1 981 0
 4160 003c 394B     		ldr	r3, .L197+32
 4161 003e 0022     		movs	r2, #0
 4162 0040 1A60     		str	r2, [r3]
 982:bluetooth_rxtx.c **** 	DMACIntTCClear = 0xFF;
 4163              		.loc 1 982 0
 4164 0042 394B     		ldr	r3, .L197+36
 4165 0044 FF22     		movs	r2, #255
 4166 0046 1A60     		str	r2, [r3]
ARM GAS  /tmp/ccSuvgbr.s 			page 90


 983:bluetooth_rxtx.c **** 	DMACIntErrClr = 0xFF;
 4167              		.loc 1 983 0
 4168 0048 384B     		ldr	r3, .L197+40
 4169 004a FF22     		movs	r2, #255
 4170 004c 1A60     		str	r2, [r3]
 984:bluetooth_rxtx.c **** 
 985:bluetooth_rxtx.c **** 	/* enable DMA globally */
 986:bluetooth_rxtx.c **** 	DMACConfig = DMACConfig_E;
 4171              		.loc 1 986 0
 4172 004e 384B     		ldr	r3, .L197+44
 4173 0050 0122     		movs	r2, #1
 4174 0052 1A60     		str	r2, [r3]
 987:bluetooth_rxtx.c **** 	while (!(DMACConfig & DMACConfig_E));
 4175              		.loc 1 987 0
 4176 0054 00BF     		nop
 4177              	.L192:
 4178              		.loc 1 987 0 is_stmt 0 discriminator 1
 4179 0056 364B     		ldr	r3, .L197+44
 4180 0058 1B68     		ldr	r3, [r3]
 4181 005a 03F00103 		and	r3, r3, #1
 4182 005e 002B     		cmp	r3, #0
 4183 0060 F9D0     		beq	.L192
 988:bluetooth_rxtx.c **** 
 989:bluetooth_rxtx.c **** 	for (i = 0; i < 11; ++i) {
 4184              		.loc 1 989 0 is_stmt 1
 4185 0062 0023     		movs	r3, #0
 4186 0064 7B60     		str	r3, [r7, #4]
 4187 0066 2AE0     		b	.L193
 4188              	.L196:
 990:bluetooth_rxtx.c **** 		le_dma_lli[i].src = (u32)&(DIO_SSP_DR);
 4189              		.loc 1 990 0
 4190 0068 324A     		ldr	r2, .L197+48
 4191 006a 7B68     		ldr	r3, [r7, #4]
 4192 006c 1B01     		lsls	r3, r3, #4
 4193 006e 1344     		add	r3, r3, r2
 4194 0070 314A     		ldr	r2, .L197+52
 4195 0072 1A60     		str	r2, [r3]
 991:bluetooth_rxtx.c **** 		le_dma_lli[i].dest = (u32)&rxbuf1[4 * i];
 4196              		.loc 1 991 0
 4197 0074 7B68     		ldr	r3, [r7, #4]
 4198 0076 9B00     		lsls	r3, r3, #2
 4199 0078 304A     		ldr	r2, .L197+56
 4200 007a 1344     		add	r3, r3, r2
 4201 007c 1946     		mov	r1, r3
 4202 007e 2D4A     		ldr	r2, .L197+48
 4203 0080 7B68     		ldr	r3, [r7, #4]
 4204 0082 1B01     		lsls	r3, r3, #4
 4205 0084 1344     		add	r3, r3, r2
 4206 0086 5960     		str	r1, [r3, #4]
 992:bluetooth_rxtx.c **** 		le_dma_lli[i].next_lli = i < 10 ? (u32)&le_dma_lli[i+1] : 0;
 4207              		.loc 1 992 0
 4208 0088 7B68     		ldr	r3, [r7, #4]
 4209 008a 092B     		cmp	r3, #9
 4210 008c 06DC     		bgt	.L194
 4211              		.loc 1 992 0 is_stmt 0 discriminator 1
 4212 008e 7B68     		ldr	r3, [r7, #4]
 4213 0090 0133     		adds	r3, r3, #1
ARM GAS  /tmp/ccSuvgbr.s 			page 91


 4214 0092 1B01     		lsls	r3, r3, #4
 4215 0094 274A     		ldr	r2, .L197+48
 4216 0096 1344     		add	r3, r3, r2
 4217 0098 1A46     		mov	r2, r3
 4218 009a 00E0     		b	.L195
 4219              	.L194:
 4220              		.loc 1 992 0 discriminator 2
 4221 009c 0022     		movs	r2, #0
 4222              	.L195:
 4223              		.loc 1 992 0 discriminator 4
 4224 009e 2549     		ldr	r1, .L197+48
 4225 00a0 7B68     		ldr	r3, [r7, #4]
 4226 00a2 1B01     		lsls	r3, r3, #4
 4227 00a4 0B44     		add	r3, r3, r1
 4228 00a6 0833     		adds	r3, r3, #8
 4229 00a8 1A60     		str	r2, [r3]
 993:bluetooth_rxtx.c **** 		le_dma_lli[i].control = 4 |
 4230              		.loc 1 993 0 is_stmt 1 discriminator 4
 4231 00aa 224A     		ldr	r2, .L197+48
 4232 00ac 7B68     		ldr	r3, [r7, #4]
 4233 00ae 1B01     		lsls	r3, r3, #4
 4234 00b0 1344     		add	r3, r3, r2
 4235 00b2 0833     		adds	r3, r3, #8
 4236 00b4 224A     		ldr	r2, .L197+60
 4237 00b6 5A60     		str	r2, [r3, #4]
 989:bluetooth_rxtx.c **** 		le_dma_lli[i].src = (u32)&(DIO_SSP_DR);
 4238              		.loc 1 989 0 discriminator 4
 4239 00b8 7B68     		ldr	r3, [r7, #4]
 4240 00ba 0133     		adds	r3, r3, #1
 4241 00bc 7B60     		str	r3, [r7, #4]
 4242              	.L193:
 989:bluetooth_rxtx.c **** 		le_dma_lli[i].src = (u32)&(DIO_SSP_DR);
 4243              		.loc 1 989 0 is_stmt 0 discriminator 2
 4244 00be 7B68     		ldr	r3, [r7, #4]
 4245 00c0 0A2B     		cmp	r3, #10
 4246 00c2 D1DD     		ble	.L196
 994:bluetooth_rxtx.c **** 				(1 << 12) |        /* source burst size = 4 */
 995:bluetooth_rxtx.c **** 				(0 << 15) |        /* destination burst size = 1 */
 996:bluetooth_rxtx.c **** 				(0 << 18) |        /* source width 8 bits */
 997:bluetooth_rxtx.c **** 				(0 << 21) |        /* destination width 8 bits */
 998:bluetooth_rxtx.c **** 				DMACCxControl_DI | /* destination increment */
 999:bluetooth_rxtx.c **** 				DMACCxControl_I;   /* terminal count interrupt enable */
1000:bluetooth_rxtx.c **** 	}
1001:bluetooth_rxtx.c **** 
1002:bluetooth_rxtx.c **** 	/* configure DMA channel 0 */
1003:bluetooth_rxtx.c **** 	DMACC0SrcAddr = le_dma_lli[0].src;
 4247              		.loc 1 1003 0 is_stmt 1
 4248 00c4 1F4A     		ldr	r2, .L197+64
 4249 00c6 1B4B     		ldr	r3, .L197+48
 4250 00c8 1B68     		ldr	r3, [r3]
 4251 00ca 1360     		str	r3, [r2]
1004:bluetooth_rxtx.c **** 	DMACC0DestAddr = le_dma_lli[0].dest;
 4252              		.loc 1 1004 0
 4253 00cc 1E4A     		ldr	r2, .L197+68
 4254 00ce 194B     		ldr	r3, .L197+48
 4255 00d0 5B68     		ldr	r3, [r3, #4]
 4256 00d2 1360     		str	r3, [r2]
ARM GAS  /tmp/ccSuvgbr.s 			page 92


1005:bluetooth_rxtx.c **** 	DMACC0LLI = le_dma_lli[0].next_lli;
 4257              		.loc 1 1005 0
 4258 00d4 1D4A     		ldr	r2, .L197+72
 4259 00d6 174B     		ldr	r3, .L197+48
 4260 00d8 9B68     		ldr	r3, [r3, #8]
 4261 00da 1360     		str	r3, [r2]
1006:bluetooth_rxtx.c **** 	DMACC0Control = le_dma_lli[0].control;
 4262              		.loc 1 1006 0
 4263 00dc 1C4A     		ldr	r2, .L197+76
 4264 00de 154B     		ldr	r3, .L197+48
 4265 00e0 DB68     		ldr	r3, [r3, #12]
 4266 00e2 1360     		str	r3, [r2]
1007:bluetooth_rxtx.c **** 	DMACC0Config =
 4267              		.loc 1 1007 0
 4268 00e4 084B     		ldr	r3, .L197+4
 4269 00e6 4DF20602 		movw	r2, #53254
 4270 00ea 1A60     		str	r2, [r3]
1008:bluetooth_rxtx.c **** 			DIO_SSP_SRC |
1009:bluetooth_rxtx.c **** 			(0x2 << 11) |           /* peripheral to memory */
1010:bluetooth_rxtx.c **** 			DMACCxConfig_IE |       /* allow error interrupts */
1011:bluetooth_rxtx.c **** 			DMACCxConfig_ITC;       /* allow terminal count interrupts */
1012:bluetooth_rxtx.c **** 
1013:bluetooth_rxtx.c **** 	/* reset interrupt counters */
1014:bluetooth_rxtx.c **** 	rx_tc = 0;
 4271              		.loc 1 1014 0
 4272 00ec 194B     		ldr	r3, .L197+80
 4273 00ee 0022     		movs	r2, #0
 4274 00f0 1A60     		str	r2, [r3]
1015:bluetooth_rxtx.c **** 	rx_err = 0;
 4275              		.loc 1 1015 0
 4276 00f2 194B     		ldr	r3, .L197+84
 4277 00f4 0022     		movs	r2, #0
 4278 00f6 1A60     		str	r2, [r3]
1016:bluetooth_rxtx.c **** }
 4279              		.loc 1 1016 0
 4280 00f8 0C37     		adds	r7, r7, #12
 4281              		.cfi_def_cfa_offset 4
 4282 00fa BD46     		mov	sp, r7
 4283              		.cfi_def_cfa_register 13
 4284              		@ sp needed
 4285 00fc 5DF8047B 		ldr	r7, [sp], #4
 4286              		.cfi_restore 7
 4287              		.cfi_def_cfa_offset 0
 4288 0100 7047     		bx	lr
 4289              	.L198:
 4290 0102 00BF     		.align	2
 4291              	.L197:
 4292 0104 C4C00F40 		.word	1074774212
 4293 0108 10410050 		.word	1342193936
 4294 010c 30410050 		.word	1342193968
 4295 0110 50410050 		.word	1342194000
 4296 0114 70410050 		.word	1342194032
 4297 0118 90410050 		.word	1342194064
 4298 011c B0410050 		.word	1342194096
 4299 0120 D0410050 		.word	1342194128
 4300 0124 F0410050 		.word	1342194160
 4301 0128 08400050 		.word	1342193672
ARM GAS  /tmp/ccSuvgbr.s 			page 93


 4302 012c 10400050 		.word	1342193680
 4303 0130 30400050 		.word	1342193712
 4304 0134 00000000 		.word	le_dma_lli
 4305 0138 08000340 		.word	1073938440
 4306 013c 00000000 		.word	rxbuf1
 4307 0140 04100088 		.word	-2013261820
 4308 0144 00410050 		.word	1342193920
 4309 0148 04410050 		.word	1342193924
 4310 014c 08410050 		.word	1342193928
 4311 0150 0C410050 		.word	1342193932
 4312 0154 00000000 		.word	rx_tc
 4313 0158 00000000 		.word	rx_err
 4314              		.cfi_endproc
 4315              	.LFE15:
 4317              		.section	.text.bt_stream_dma_handler,"ax",%progbits
 4318              		.align	2
 4319              		.global	bt_stream_dma_handler
 4320              		.thumb
 4321              		.thumb_func
 4323              	bt_stream_dma_handler:
 4324              	.LFB16:
1017:bluetooth_rxtx.c **** 
1018:bluetooth_rxtx.c **** void bt_stream_dma_handler(void)
1019:bluetooth_rxtx.c **** {
 4325              		.loc 1 1019 0
 4326              		.cfi_startproc
 4327              		@ args = 0, pretend = 0, frame = 8
 4328              		@ frame_needed = 1, uses_anonymous_args = 0
 4329              		@ link register save eliminated.
 4330 0000 80B4     		push	{r7}
 4331              		.cfi_def_cfa_offset 4
 4332              		.cfi_offset 7, -4
 4333 0002 83B0     		sub	sp, sp, #12
 4334              		.cfi_def_cfa_offset 16
 4335 0004 00AF     		add	r7, sp, #0
 4336              		.cfi_def_cfa_register 7
1020:bluetooth_rxtx.c **** 	/* interrupt on channel 0 */
1021:bluetooth_rxtx.c **** 	if (DMACIntStat & (1 << 0)) {
 4337              		.loc 1 1021 0
 4338 0006 294B     		ldr	r3, .L203
 4339 0008 1B68     		ldr	r3, [r3]
 4340 000a 03F00103 		and	r3, r3, #1
 4341 000e 002B     		cmp	r3, #0
 4342 0010 46D0     		beq	.L199
1022:bluetooth_rxtx.c **** 		if (DMACIntTCStat & (1 << 0)) {
 4343              		.loc 1 1022 0
 4344 0012 274B     		ldr	r3, .L203+4
 4345 0014 1B68     		ldr	r3, [r3]
 4346 0016 03F00103 		and	r3, r3, #1
 4347 001a 002B     		cmp	r3, #0
 4348 001c 32D0     		beq	.L201
 4349              	.LBB11:
1023:bluetooth_rxtx.c **** 			DMACIntTCClear = (1 << 0);
 4350              		.loc 1 1023 0
 4351 001e 254B     		ldr	r3, .L203+8
 4352 0020 0122     		movs	r2, #1
 4353 0022 1A60     		str	r2, [r3]
ARM GAS  /tmp/ccSuvgbr.s 			page 94


1024:bluetooth_rxtx.c **** 
1025:bluetooth_rxtx.c **** 			if (hop_mode == HOP_BLUETOOTH)
 4354              		.loc 1 1025 0
 4355 0024 244B     		ldr	r3, .L203+12
 4356 0026 1B78     		ldrb	r3, [r3]
 4357 0028 DBB2     		uxtb	r3, r3
 4358 002a 022B     		cmp	r3, #2
 4359 002c 03D1     		bne	.L202
1026:bluetooth_rxtx.c **** 				DIO_SSEL_SET;
 4360              		.loc 1 1026 0
 4361 002e 234B     		ldr	r3, .L203+16
 4362 0030 4FF08052 		mov	r2, #268435456
 4363 0034 1A60     		str	r2, [r3]
 4364              	.L202:
1027:bluetooth_rxtx.c **** 
1028:bluetooth_rxtx.c **** 			idle_buf_clk100ns  = CLK100NS;
 4365              		.loc 1 1028 0
 4366 0036 224B     		ldr	r3, .L203+20
 4367 0038 1B68     		ldr	r3, [r3]
 4368 003a C3F31303 		ubfx	r3, r3, #0, #20
 4369 003e 40F63542 		movw	r2, #3125
 4370 0042 02FB03F2 		mul	r2, r2, r3
 4371 0046 1F4B     		ldr	r3, .L203+24
 4372 0048 1B68     		ldr	r3, [r3]
 4373 004a 1344     		add	r3, r3, r2
 4374 004c 1E4A     		ldr	r2, .L203+28
 4375 004e 1360     		str	r3, [r2]
1029:bluetooth_rxtx.c **** 			idle_buf_clkn_high = (clkn >> 20) & 0xff;
 4376              		.loc 1 1029 0
 4377 0050 1B4B     		ldr	r3, .L203+20
 4378 0052 1B68     		ldr	r3, [r3]
 4379 0054 1B0D     		lsrs	r3, r3, #20
 4380 0056 DAB2     		uxtb	r2, r3
 4381 0058 1C4B     		ldr	r3, .L203+32
 4382 005a 1A70     		strb	r2, [r3]
1030:bluetooth_rxtx.c **** 			idle_buf_channel   = channel;
 4383              		.loc 1 1030 0
 4384 005c 1C4B     		ldr	r3, .L203+36
 4385 005e 1B88     		ldrh	r3, [r3]	@ movhi
 4386 0060 9AB2     		uxth	r2, r3
 4387 0062 1C4B     		ldr	r3, .L203+40
 4388 0064 1A80     		strh	r2, [r3]	@ movhi
1031:bluetooth_rxtx.c **** 
1032:bluetooth_rxtx.c **** 			/* Keep buffer swapping in sync with DMA. */
1033:bluetooth_rxtx.c **** 			volatile uint8_t* tmp = active_rxbuf;
 4389              		.loc 1 1033 0
 4390 0066 1C4B     		ldr	r3, .L203+44
 4391 0068 1B68     		ldr	r3, [r3]
 4392 006a 7B60     		str	r3, [r7, #4]
1034:bluetooth_rxtx.c **** 			active_rxbuf = idle_rxbuf;
 4393              		.loc 1 1034 0
 4394 006c 1B4B     		ldr	r3, .L203+48
 4395 006e 1B68     		ldr	r3, [r3]
 4396 0070 194A     		ldr	r2, .L203+44
 4397 0072 1360     		str	r3, [r2]
1035:bluetooth_rxtx.c **** 			idle_rxbuf = tmp;
 4398              		.loc 1 1035 0
ARM GAS  /tmp/ccSuvgbr.s 			page 95


 4399 0074 194A     		ldr	r2, .L203+48
 4400 0076 7B68     		ldr	r3, [r7, #4]
 4401 0078 1360     		str	r3, [r2]
1036:bluetooth_rxtx.c **** 
1037:bluetooth_rxtx.c **** 			++rx_tc;
 4402              		.loc 1 1037 0
 4403 007a 194B     		ldr	r3, .L203+52
 4404 007c 1B68     		ldr	r3, [r3]
 4405 007e 0133     		adds	r3, r3, #1
 4406 0080 174A     		ldr	r2, .L203+52
 4407 0082 1360     		str	r3, [r2]
 4408              	.L201:
 4409              	.LBE11:
1038:bluetooth_rxtx.c **** 		}
1039:bluetooth_rxtx.c **** 		if (DMACIntErrStat & (1 << 0)) {
 4410              		.loc 1 1039 0
 4411 0084 174B     		ldr	r3, .L203+56
 4412 0086 1B68     		ldr	r3, [r3]
 4413 0088 03F00103 		and	r3, r3, #1
 4414 008c 002B     		cmp	r3, #0
 4415 008e 07D0     		beq	.L199
1040:bluetooth_rxtx.c **** 			DMACIntErrClr = (1 << 0);
 4416              		.loc 1 1040 0
 4417 0090 154B     		ldr	r3, .L203+60
 4418 0092 0122     		movs	r2, #1
 4419 0094 1A60     		str	r2, [r3]
1041:bluetooth_rxtx.c **** 			++rx_err;
 4420              		.loc 1 1041 0
 4421 0096 154B     		ldr	r3, .L203+64
 4422 0098 1B68     		ldr	r3, [r3]
 4423 009a 0133     		adds	r3, r3, #1
 4424 009c 134A     		ldr	r2, .L203+64
 4425 009e 1360     		str	r3, [r2]
 4426              	.L199:
1042:bluetooth_rxtx.c **** 		}
1043:bluetooth_rxtx.c **** 	}
1044:bluetooth_rxtx.c **** }
 4427              		.loc 1 1044 0
 4428 00a0 0C37     		adds	r7, r7, #12
 4429              		.cfi_def_cfa_offset 4
 4430 00a2 BD46     		mov	sp, r7
 4431              		.cfi_def_cfa_register 13
 4432              		@ sp needed
 4433 00a4 5DF8047B 		ldr	r7, [sp], #4
 4434              		.cfi_restore 7
 4435              		.cfi_def_cfa_offset 0
 4436 00a8 7047     		bx	lr
 4437              	.L204:
 4438 00aa 00BF     		.align	2
 4439              	.L203:
 4440 00ac 00400050 		.word	1342193664
 4441 00b0 04400050 		.word	1342193668
 4442 00b4 08400050 		.word	1342193672
 4443 00b8 00000000 		.word	hop_mode
 4444 00bc 98C00920 		.word	537510040
 4445 00c0 00000000 		.word	clkn
 4446 00c4 08400040 		.word	1073758216
ARM GAS  /tmp/ccSuvgbr.s 			page 96


 4447 00c8 00000000 		.word	idle_buf_clk100ns
 4448 00cc 00000000 		.word	idle_buf_clkn_high
 4449 00d0 00000000 		.word	channel
 4450 00d4 00000000 		.word	idle_buf_channel
 4451 00d8 00000000 		.word	active_rxbuf
 4452 00dc 00000000 		.word	idle_rxbuf
 4453 00e0 00000000 		.word	rx_tc
 4454 00e4 0C400050 		.word	1342193676
 4455 00e8 10400050 		.word	1342193680
 4456 00ec 00000000 		.word	rx_err
 4457              		.cfi_endproc
 4458              	.LFE16:
 4460              		.section	.text.DMA_IRQHandler,"ax",%progbits
 4461              		.align	2
 4462              		.global	DMA_IRQHandler
 4463              		.thumb
 4464              		.thumb_func
 4466              	DMA_IRQHandler:
 4467              	.LFB17:
1045:bluetooth_rxtx.c **** 
1046:bluetooth_rxtx.c **** void DMA_IRQHandler()
1047:bluetooth_rxtx.c **** {
 4468              		.loc 1 1047 0
 4469              		.cfi_startproc
 4470              		@ args = 0, pretend = 0, frame = 0
 4471              		@ frame_needed = 1, uses_anonymous_args = 0
 4472 0000 80B5     		push	{r7, lr}
 4473              		.cfi_def_cfa_offset 8
 4474              		.cfi_offset 7, -8
 4475              		.cfi_offset 14, -4
 4476 0002 00AF     		add	r7, sp, #0
 4477              		.cfi_def_cfa_register 7
1048:bluetooth_rxtx.c **** 	switch (mode) {
 4478              		.loc 1 1048 0
 4479 0004 124B     		ldr	r3, .L209
 4480 0006 1B78     		ldrb	r3, [r3]
 4481 0008 DBB2     		uxtb	r3, r3
 4482 000a 013B     		subs	r3, r3, #1
 4483 000c 0B2B     		cmp	r3, #11
 4484 000e 1ED8     		bhi	.L205
 4485 0010 01A2     		adr	r2, .L208
 4486 0012 52F823F0 		ldr	pc, [r2, r3, lsl #2]
 4487 0016 00BF     		.p2align 2
 4488              	.L208:
 4489 0018 49000000 		.word	.L207+1
 4490 001c 4F000000 		.word	.L205+1
 4491 0020 4F000000 		.word	.L205+1
 4492 0024 49000000 		.word	.L207+1
 4493 0028 4F000000 		.word	.L205+1
 4494 002c 4F000000 		.word	.L205+1
 4495 0030 4F000000 		.word	.L205+1
 4496 0034 49000000 		.word	.L207+1
 4497 0038 49000000 		.word	.L207+1
 4498 003c 49000000 		.word	.L207+1
 4499 0040 4F000000 		.word	.L205+1
 4500 0044 49000000 		.word	.L207+1
 4501              		.p2align 1
ARM GAS  /tmp/ccSuvgbr.s 			page 97


 4502              	.L207:
1049:bluetooth_rxtx.c **** 		case MODE_RX_SYMBOLS:
1050:bluetooth_rxtx.c **** 		case MODE_SPECAN:
1051:bluetooth_rxtx.c **** 		case MODE_BT_FOLLOW:
1052:bluetooth_rxtx.c **** 		case MODE_BT_FOLLOW_LE:
1053:bluetooth_rxtx.c **** 		case MODE_BT_PROMISC_LE:
1054:bluetooth_rxtx.c **** 		case MODE_BT_SLAVE_LE:
1055:bluetooth_rxtx.c **** 			bt_stream_dma_handler();
 4503              		.loc 1 1055 0
 4504 0048 FFF7FEFF 		bl	bt_stream_dma_handler
1056:bluetooth_rxtx.c **** 			break;
 4505              		.loc 1 1056 0
 4506 004c 00BF     		nop
 4507              	.L205:
1057:bluetooth_rxtx.c **** 	}
1058:bluetooth_rxtx.c **** }
 4508              		.loc 1 1058 0
 4509 004e 80BD     		pop	{r7, pc}
 4510              	.L210:
 4511              		.align	2
 4512              	.L209:
 4513 0050 00000000 		.word	mode
 4514              		.cfi_endproc
 4515              	.LFE17:
 4517              		.section	.text.dio_ssp_start,"ax",%progbits
 4518              		.align	2
 4519              		.thumb
 4520              		.thumb_func
 4522              	dio_ssp_start:
 4523              	.LFB18:
1059:bluetooth_rxtx.c **** 
1060:bluetooth_rxtx.c **** static void dio_ssp_start()
1061:bluetooth_rxtx.c **** {
 4524              		.loc 1 1061 0
 4525              		.cfi_startproc
 4526              		@ args = 0, pretend = 0, frame = 0
 4527              		@ frame_needed = 1, uses_anonymous_args = 0
 4528              		@ link register save eliminated.
 4529 0000 80B4     		push	{r7}
 4530              		.cfi_def_cfa_offset 4
 4531              		.cfi_offset 7, -4
 4532 0002 00AF     		add	r7, sp, #0
 4533              		.cfi_def_cfa_register 7
1062:bluetooth_rxtx.c **** 	/* make sure the (active low) slave select signal is not active */
1063:bluetooth_rxtx.c **** 	DIO_SSEL_SET;
 4534              		.loc 1 1063 0
 4535 0004 104B     		ldr	r3, .L212
 4536 0006 4FF08052 		mov	r2, #268435456
 4537 000a 1A60     		str	r2, [r3]
1064:bluetooth_rxtx.c **** 
1065:bluetooth_rxtx.c **** 	/* enable rx DMA on DIO_SSP */
1066:bluetooth_rxtx.c **** 	DIO_SSP_DMACR |= SSPDMACR_RXDMAE;
 4538              		.loc 1 1066 0
 4539 000c 0F4A     		ldr	r2, .L212+4
 4540 000e 0F4B     		ldr	r3, .L212+4
 4541 0010 1B68     		ldr	r3, [r3]
 4542 0012 43F00103 		orr	r3, r3, #1
ARM GAS  /tmp/ccSuvgbr.s 			page 98


 4543 0016 1360     		str	r3, [r2]
1067:bluetooth_rxtx.c **** 	DIO_SSP_CR1 |= SSPCR1_SSE;
 4544              		.loc 1 1067 0
 4545 0018 0D4A     		ldr	r2, .L212+8
 4546 001a 0D4B     		ldr	r3, .L212+8
 4547 001c 1B68     		ldr	r3, [r3]
 4548 001e 43F00203 		orr	r3, r3, #2
 4549 0022 1360     		str	r3, [r2]
1068:bluetooth_rxtx.c **** 
1069:bluetooth_rxtx.c **** 	/* enable DMA */
1070:bluetooth_rxtx.c **** 	DMACC0Config |= DMACCxConfig_E;
 4550              		.loc 1 1070 0
 4551 0024 0B4A     		ldr	r2, .L212+12
 4552 0026 0B4B     		ldr	r3, .L212+12
 4553 0028 1B68     		ldr	r3, [r3]
 4554 002a 43F00103 		orr	r3, r3, #1
 4555 002e 1360     		str	r3, [r2]
1071:bluetooth_rxtx.c **** 	ISER0 = ISER0_ISE_DMA;
 4556              		.loc 1 1071 0
 4557 0030 094B     		ldr	r3, .L212+16
 4558 0032 4FF08062 		mov	r2, #67108864
 4559 0036 1A60     		str	r2, [r3]
1072:bluetooth_rxtx.c **** 
1073:bluetooth_rxtx.c **** 	/* activate slave select pin */
1074:bluetooth_rxtx.c **** 	DIO_SSEL_CLR;
 4560              		.loc 1 1074 0
 4561 0038 084B     		ldr	r3, .L212+20
 4562 003a 4FF08052 		mov	r2, #268435456
 4563 003e 1A60     		str	r2, [r3]
1075:bluetooth_rxtx.c **** }
 4564              		.loc 1 1075 0
 4565 0040 BD46     		mov	sp, r7
 4566              		.cfi_def_cfa_register 13
 4567              		@ sp needed
 4568 0042 5DF8047B 		ldr	r7, [sp], #4
 4569              		.cfi_restore 7
 4570              		.cfi_def_cfa_offset 0
 4571 0046 7047     		bx	lr
 4572              	.L213:
 4573              		.align	2
 4574              	.L212:
 4575 0048 98C00920 		.word	537510040
 4576 004c 24000340 		.word	1073938468
 4577 0050 04000340 		.word	1073938436
 4578 0054 10410050 		.word	1342193936
 4579 0058 00E100E0 		.word	-536813312
 4580 005c 9CC00920 		.word	537510044
 4581              		.cfi_endproc
 4582              	.LFE18:
 4584              		.section	.text.dio_ssp_stop,"ax",%progbits
 4585              		.align	2
 4586              		.thumb
 4587              		.thumb_func
 4589              	dio_ssp_stop:
 4590              	.LFB19:
1076:bluetooth_rxtx.c **** 
1077:bluetooth_rxtx.c **** static void dio_ssp_stop()
ARM GAS  /tmp/ccSuvgbr.s 			page 99


1078:bluetooth_rxtx.c **** {
 4591              		.loc 1 1078 0
 4592              		.cfi_startproc
 4593              		@ args = 0, pretend = 0, frame = 0
 4594              		@ frame_needed = 1, uses_anonymous_args = 0
 4595              		@ link register save eliminated.
 4596 0000 80B4     		push	{r7}
 4597              		.cfi_def_cfa_offset 4
 4598              		.cfi_offset 7, -4
 4599 0002 00AF     		add	r7, sp, #0
 4600              		.cfi_def_cfa_register 7
1079:bluetooth_rxtx.c **** 	// disable CC2400's output (active low)
1080:bluetooth_rxtx.c **** 	DIO_SSEL_SET;
 4601              		.loc 1 1080 0
 4602 0004 214B     		ldr	r3, .L216
 4603 0006 4FF08052 		mov	r2, #268435456
 4604 000a 1A60     		str	r2, [r3]
1081:bluetooth_rxtx.c **** 
1082:bluetooth_rxtx.c **** 	// disable DMA on SSP; disable SSP
1083:bluetooth_rxtx.c **** 	DIO_SSP_DMACR &= ~SSPDMACR_RXDMAE;
 4605              		.loc 1 1083 0
 4606 000c 204A     		ldr	r2, .L216+4
 4607 000e 204B     		ldr	r3, .L216+4
 4608 0010 1B68     		ldr	r3, [r3]
 4609 0012 23F00103 		bic	r3, r3, #1
 4610 0016 1360     		str	r3, [r2]
1084:bluetooth_rxtx.c **** 	DIO_SSP_CR1 &= ~SSPCR1_SSE;
 4611              		.loc 1 1084 0
 4612 0018 1E4A     		ldr	r2, .L216+8
 4613 001a 1E4B     		ldr	r3, .L216+8
 4614 001c 1B68     		ldr	r3, [r3]
 4615 001e 23F00203 		bic	r3, r3, #2
 4616 0022 1360     		str	r3, [r2]
1085:bluetooth_rxtx.c **** 
1086:bluetooth_rxtx.c **** 
1087:bluetooth_rxtx.c **** 	// disable DMA engine:
1088:bluetooth_rxtx.c **** 	// refer to UM10360 LPC17xx User Manual Ch 31 Sec 31.6.1, PDF page 607
1089:bluetooth_rxtx.c **** 
1090:bluetooth_rxtx.c **** 	// disable DMA interrupts
1091:bluetooth_rxtx.c **** 	ICER0 = ICER0_ICE_DMA;
 4617              		.loc 1 1091 0
 4618 0024 1C4B     		ldr	r3, .L216+12
 4619 0026 4FF08062 		mov	r2, #67108864
 4620 002a 1A60     		str	r2, [r3]
1092:bluetooth_rxtx.c **** 
1093:bluetooth_rxtx.c **** 	// disable active channels
1094:bluetooth_rxtx.c **** 	DMACC0Config = 0;
 4621              		.loc 1 1094 0
 4622 002c 1B4B     		ldr	r3, .L216+16
 4623 002e 0022     		movs	r2, #0
 4624 0030 1A60     		str	r2, [r3]
1095:bluetooth_rxtx.c **** 	DMACC1Config = 0;
 4625              		.loc 1 1095 0
 4626 0032 1B4B     		ldr	r3, .L216+20
 4627 0034 0022     		movs	r2, #0
 4628 0036 1A60     		str	r2, [r3]
1096:bluetooth_rxtx.c **** 	DMACC2Config = 0;
ARM GAS  /tmp/ccSuvgbr.s 			page 100


 4629              		.loc 1 1096 0
 4630 0038 1A4B     		ldr	r3, .L216+24
 4631 003a 0022     		movs	r2, #0
 4632 003c 1A60     		str	r2, [r3]
1097:bluetooth_rxtx.c **** 	DMACC3Config = 0;
 4633              		.loc 1 1097 0
 4634 003e 1A4B     		ldr	r3, .L216+28
 4635 0040 0022     		movs	r2, #0
 4636 0042 1A60     		str	r2, [r3]
1098:bluetooth_rxtx.c **** 	DMACC4Config = 0;
 4637              		.loc 1 1098 0
 4638 0044 194B     		ldr	r3, .L216+32
 4639 0046 0022     		movs	r2, #0
 4640 0048 1A60     		str	r2, [r3]
1099:bluetooth_rxtx.c **** 	DMACC5Config = 0;
 4641              		.loc 1 1099 0
 4642 004a 194B     		ldr	r3, .L216+36
 4643 004c 0022     		movs	r2, #0
 4644 004e 1A60     		str	r2, [r3]
1100:bluetooth_rxtx.c **** 	DMACC6Config = 0;
 4645              		.loc 1 1100 0
 4646 0050 184B     		ldr	r3, .L216+40
 4647 0052 0022     		movs	r2, #0
 4648 0054 1A60     		str	r2, [r3]
1101:bluetooth_rxtx.c **** 	DMACC7Config = 0;
 4649              		.loc 1 1101 0
 4650 0056 184B     		ldr	r3, .L216+44
 4651 0058 0022     		movs	r2, #0
 4652 005a 1A60     		str	r2, [r3]
1102:bluetooth_rxtx.c **** 	DMACIntTCClear = 0xFF;
 4653              		.loc 1 1102 0
 4654 005c 174B     		ldr	r3, .L216+48
 4655 005e FF22     		movs	r2, #255
 4656 0060 1A60     		str	r2, [r3]
1103:bluetooth_rxtx.c **** 	DMACIntErrClr = 0xFF;
 4657              		.loc 1 1103 0
 4658 0062 174B     		ldr	r3, .L216+52
 4659 0064 FF22     		movs	r2, #255
 4660 0066 1A60     		str	r2, [r3]
1104:bluetooth_rxtx.c **** 
1105:bluetooth_rxtx.c **** 	// Disable the DMA controller by writing 0 to the DMA Enable bit in the DMACConfig
1106:bluetooth_rxtx.c **** 	// register.
1107:bluetooth_rxtx.c **** 	DMACConfig &= ~DMACConfig_E;
 4661              		.loc 1 1107 0
 4662 0068 164A     		ldr	r2, .L216+56
 4663 006a 164B     		ldr	r3, .L216+56
 4664 006c 1B68     		ldr	r3, [r3]
 4665 006e 23F00103 		bic	r3, r3, #1
 4666 0072 1360     		str	r3, [r2]
1108:bluetooth_rxtx.c **** 	while (DMACConfig & DMACConfig_E);
 4667              		.loc 1 1108 0
 4668 0074 00BF     		nop
 4669              	.L215:
 4670              		.loc 1 1108 0 is_stmt 0 discriminator 1
 4671 0076 134B     		ldr	r3, .L216+56
 4672 0078 1B68     		ldr	r3, [r3]
 4673 007a 03F00103 		and	r3, r3, #1
ARM GAS  /tmp/ccSuvgbr.s 			page 101


 4674 007e 002B     		cmp	r3, #0
 4675 0080 F9D1     		bne	.L215
1109:bluetooth_rxtx.c **** }
 4676              		.loc 1 1109 0 is_stmt 1
 4677 0082 BD46     		mov	sp, r7
 4678              		.cfi_def_cfa_register 13
 4679              		@ sp needed
 4680 0084 5DF8047B 		ldr	r7, [sp], #4
 4681              		.cfi_restore 7
 4682              		.cfi_def_cfa_offset 0
 4683 0088 7047     		bx	lr
 4684              	.L217:
 4685 008a 00BF     		.align	2
 4686              	.L216:
 4687 008c 98C00920 		.word	537510040
 4688 0090 24000340 		.word	1073938468
 4689 0094 04000340 		.word	1073938436
 4690 0098 80E100E0 		.word	-536813184
 4691 009c 10410050 		.word	1342193936
 4692 00a0 30410050 		.word	1342193968
 4693 00a4 50410050 		.word	1342194000
 4694 00a8 70410050 		.word	1342194032
 4695 00ac 90410050 		.word	1342194064
 4696 00b0 B0410050 		.word	1342194096
 4697 00b4 D0410050 		.word	1342194128
 4698 00b8 F0410050 		.word	1342194160
 4699 00bc 08400050 		.word	1342193672
 4700 00c0 10400050 		.word	1342193680
 4701 00c4 30400050 		.word	1342193712
 4702              		.cfi_endproc
 4703              	.LFE19:
 4705              		.section	.text.cc2400_idle,"ax",%progbits
 4706              		.align	2
 4707              		.thumb
 4708              		.thumb_func
 4710              	cc2400_idle:
 4711              	.LFB20:
1110:bluetooth_rxtx.c **** 
1111:bluetooth_rxtx.c **** static void cc2400_idle()
1112:bluetooth_rxtx.c **** {
 4712              		.loc 1 1112 0
 4713              		.cfi_startproc
 4714              		@ args = 0, pretend = 0, frame = 0
 4715              		@ frame_needed = 1, uses_anonymous_args = 0
 4716 0000 80B5     		push	{r7, lr}
 4717              		.cfi_def_cfa_offset 8
 4718              		.cfi_offset 7, -8
 4719              		.cfi_offset 14, -4
 4720 0002 00AF     		add	r7, sp, #0
 4721              		.cfi_def_cfa_register 7
1113:bluetooth_rxtx.c **** 	cc2400_strobe(SRFOFF);
 4722              		.loc 1 1113 0
 4723 0004 6420     		movs	r0, #100
 4724 0006 FFF7FEFF 		bl	cc2400_strobe
1114:bluetooth_rxtx.c **** 	while ((cc2400_status() & FS_LOCK)); // need to wait for unlock?
 4725              		.loc 1 1114 0
 4726 000a 00BF     		nop
ARM GAS  /tmp/ccSuvgbr.s 			page 102


 4727              	.L219:
 4728              		.loc 1 1114 0 is_stmt 0 discriminator 1
 4729 000c FFF7FEFF 		bl	cc2400_status
 4730 0010 0346     		mov	r3, r0
 4731 0012 03F00403 		and	r3, r3, #4
 4732 0016 002B     		cmp	r3, #0
 4733 0018 F8D1     		bne	.L219
1115:bluetooth_rxtx.c **** 
1116:bluetooth_rxtx.c **** #ifdef UBERTOOTH_ONE
1117:bluetooth_rxtx.c **** 	PAEN_CLR;
 4734              		.loc 1 1117 0 is_stmt 1
 4735 001a 0A4B     		ldr	r3, .L220
 4736 001c 8022     		movs	r2, #128
 4737 001e 1A60     		str	r2, [r3]
1118:bluetooth_rxtx.c **** 	HGM_CLR;
 4738              		.loc 1 1118 0
 4739 0020 084B     		ldr	r3, .L220
 4740 0022 4FF48072 		mov	r2, #256
 4741 0026 1A60     		str	r2, [r3]
1119:bluetooth_rxtx.c **** #endif
1120:bluetooth_rxtx.c **** 
1121:bluetooth_rxtx.c **** 	RXLED_CLR;
 4742              		.loc 1 1121 0
 4743 0028 074B     		ldr	r3, .L220+4
 4744 002a 1022     		movs	r2, #16
 4745 002c 1A60     		str	r2, [r3]
1122:bluetooth_rxtx.c **** 	TXLED_CLR;
 4746              		.loc 1 1122 0
 4747 002e 064B     		ldr	r3, .L220+4
 4748 0030 4FF48072 		mov	r2, #256
 4749 0034 1A60     		str	r2, [r3]
1123:bluetooth_rxtx.c **** 	USRLED_CLR;
 4750              		.loc 1 1123 0
 4751 0036 044B     		ldr	r3, .L220+4
 4752 0038 0222     		movs	r2, #2
 4753 003a 1A60     		str	r2, [r3]
1124:bluetooth_rxtx.c **** 	mode = MODE_IDLE;
 4754              		.loc 1 1124 0
 4755 003c 034B     		ldr	r3, .L220+8
 4756 003e 0022     		movs	r2, #0
 4757 0040 1A70     		strb	r2, [r3]
1125:bluetooth_rxtx.c **** }
 4758              		.loc 1 1125 0
 4759 0042 80BD     		pop	{r7, pc}
 4760              	.L221:
 4761              		.align	2
 4762              	.L220:
 4763 0044 5CC00920 		.word	537509980
 4764 0048 3CC00920 		.word	537509948
 4765 004c 00000000 		.word	mode
 4766              		.cfi_endproc
 4767              	.LFE20:
 4769              		.section	.text.cc2400_rx,"ax",%progbits
 4770              		.align	2
 4771              		.thumb
 4772              		.thumb_func
 4774              	cc2400_rx:
ARM GAS  /tmp/ccSuvgbr.s 			page 103


 4775              	.LFB21:
1126:bluetooth_rxtx.c **** 
1127:bluetooth_rxtx.c **** /* start un-buffered rx */
1128:bluetooth_rxtx.c **** static void cc2400_rx()
1129:bluetooth_rxtx.c **** {
 4776              		.loc 1 1129 0
 4777              		.cfi_startproc
 4778              		@ args = 0, pretend = 0, frame = 8
 4779              		@ frame_needed = 1, uses_anonymous_args = 0
 4780 0000 80B5     		push	{r7, lr}
 4781              		.cfi_def_cfa_offset 8
 4782              		.cfi_offset 7, -8
 4783              		.cfi_offset 14, -4
 4784 0002 82B0     		sub	sp, sp, #8
 4785              		.cfi_def_cfa_offset 16
 4786 0004 00AF     		add	r7, sp, #0
 4787              		.cfi_def_cfa_register 7
1130:bluetooth_rxtx.c **** 	u16 mdmctrl;
1131:bluetooth_rxtx.c **** 	if (modulation == MOD_BT_BASIC_RATE) {
 4788              		.loc 1 1131 0
 4789 0006 284B     		ldr	r3, .L229
 4790 0008 1B78     		ldrb	r3, [r3]
 4791 000a DBB2     		uxtb	r3, r3
 4792 000c 002B     		cmp	r3, #0
 4793 000e 02D1     		bne	.L223
1132:bluetooth_rxtx.c **** 		mdmctrl = 0x0029; // 160 kHz frequency deviation
 4794              		.loc 1 1132 0
 4795 0010 2923     		movs	r3, #41
 4796 0012 FB80     		strh	r3, [r7, #6]	@ movhi
 4797 0014 08E0     		b	.L224
 4798              	.L223:
1133:bluetooth_rxtx.c **** 	} else if (modulation == MOD_BT_LOW_ENERGY) {
 4799              		.loc 1 1133 0
 4800 0016 244B     		ldr	r3, .L229
 4801 0018 1B78     		ldrb	r3, [r3]
 4802 001a DBB2     		uxtb	r3, r3
 4803 001c 012B     		cmp	r3, #1
 4804 001e 02D1     		bne	.L225
1134:bluetooth_rxtx.c **** 		mdmctrl = 0x0040; // 250 kHz frequency deviation
 4805              		.loc 1 1134 0
 4806 0020 4023     		movs	r3, #64
 4807 0022 FB80     		strh	r3, [r7, #6]	@ movhi
 4808 0024 00E0     		b	.L224
 4809              	.L225:
1135:bluetooth_rxtx.c **** 	} else {
1136:bluetooth_rxtx.c **** 		/* oops */
1137:bluetooth_rxtx.c **** 		return;
 4810              		.loc 1 1137 0
 4811 0026 3CE0     		b	.L222
 4812              	.L224:
1138:bluetooth_rxtx.c **** 	}
1139:bluetooth_rxtx.c **** 
1140:bluetooth_rxtx.c **** 	cc2400_set(MANAND,  0x7fff);
 4813              		.loc 1 1140 0
 4814 0028 0D20     		movs	r0, #13
 4815 002a 47F6FF71 		movw	r1, #32767
 4816 002e FFF7FEFF 		bl	cc2400_set
ARM GAS  /tmp/ccSuvgbr.s 			page 104


1141:bluetooth_rxtx.c **** 	cc2400_set(LMTST,   0x2b22);
 4817              		.loc 1 1141 0
 4818 0032 1220     		movs	r0, #18
 4819 0034 42F62231 		movw	r1, #11042
 4820 0038 FFF7FEFF 		bl	cc2400_set
1142:bluetooth_rxtx.c **** 	cc2400_set(MDMTST0, 0x134b); // without PRNG
 4821              		.loc 1 1142 0
 4822 003c 1420     		movs	r0, #20
 4823 003e 41F24B31 		movw	r1, #4939
 4824 0042 FFF7FEFF 		bl	cc2400_set
1143:bluetooth_rxtx.c **** 	cc2400_set(GRMDM,   0x0101); // un-buffered mode, GFSK
 4825              		.loc 1 1143 0
 4826 0046 2020     		movs	r0, #32
 4827 0048 40F20111 		movw	r1, #257
 4828 004c FFF7FEFF 		bl	cc2400_set
1144:bluetooth_rxtx.c **** 	// 0 00 00 0 010 00 0 00 0 1
1145:bluetooth_rxtx.c **** 	//      |  | |   |  +--------> CRC off
1146:bluetooth_rxtx.c **** 	//      |  | |   +-----------> sync word: 8 MSB bits of SYNC_WORD
1147:bluetooth_rxtx.c **** 	//      |  | +---------------> 2 preamble bytes of 01010101
1148:bluetooth_rxtx.c **** 	//      |  +-----------------> not packet mode
1149:bluetooth_rxtx.c **** 	//      +--------------------> un-buffered mode
1150:bluetooth_rxtx.c **** 	cc2400_set(FSDIV,   2427 - 1); // 1 MHz IF
 4829              		.loc 1 1150 0
 4830 0050 0220     		movs	r0, #2
 4831 0052 40F67A11 		movw	r1, #2426
 4832 0056 FFF7FEFF 		bl	cc2400_set
1151:bluetooth_rxtx.c **** 	cc2400_set(MDMCTRL, mdmctrl);
 4833              		.loc 1 1151 0
 4834 005a FB88     		ldrh	r3, [r7, #6]
 4835 005c 0320     		movs	r0, #3
 4836 005e 1946     		mov	r1, r3
 4837 0060 FFF7FEFF 		bl	cc2400_set
1152:bluetooth_rxtx.c **** 
1153:bluetooth_rxtx.c **** 	// Set up CS register
1154:bluetooth_rxtx.c **** 	cs_threshold_calc_and_set();
 4838              		.loc 1 1154 0
 4839 0064 FFF7FEFF 		bl	cs_threshold_calc_and_set
1155:bluetooth_rxtx.c **** 
1156:bluetooth_rxtx.c **** 	while (!(cc2400_status() & XOSC16M_STABLE));
 4840              		.loc 1 1156 0
 4841 0068 00BF     		nop
 4842              	.L227:
 4843              		.loc 1 1156 0 is_stmt 0 discriminator 1
 4844 006a FFF7FEFF 		bl	cc2400_status
 4845 006e 0346     		mov	r3, r0
 4846 0070 03F04003 		and	r3, r3, #64
 4847 0074 002B     		cmp	r3, #0
 4848 0076 F8D0     		beq	.L227
1157:bluetooth_rxtx.c **** 	cc2400_strobe(SFSON);
 4849              		.loc 1 1157 0 is_stmt 1
 4850 0078 6120     		movs	r0, #97
 4851 007a FFF7FEFF 		bl	cc2400_strobe
1158:bluetooth_rxtx.c **** 	while (!(cc2400_status() & FS_LOCK));
 4852              		.loc 1 1158 0
 4853 007e 00BF     		nop
 4854              	.L228:
 4855              		.loc 1 1158 0 is_stmt 0 discriminator 1
ARM GAS  /tmp/ccSuvgbr.s 			page 105


 4856 0080 FFF7FEFF 		bl	cc2400_status
 4857 0084 0346     		mov	r3, r0
 4858 0086 03F00403 		and	r3, r3, #4
 4859 008a 002B     		cmp	r3, #0
 4860 008c F8D0     		beq	.L228
1159:bluetooth_rxtx.c **** 	cc2400_strobe(SRX);
 4861              		.loc 1 1159 0 is_stmt 1
 4862 008e 6220     		movs	r0, #98
 4863 0090 FFF7FEFF 		bl	cc2400_strobe
1160:bluetooth_rxtx.c **** #ifdef UBERTOOTH_ONE
1161:bluetooth_rxtx.c **** 	PAEN_SET;
 4864              		.loc 1 1161 0
 4865 0094 054B     		ldr	r3, .L229+4
 4866 0096 8022     		movs	r2, #128
 4867 0098 1A60     		str	r2, [r3]
1162:bluetooth_rxtx.c **** 	HGM_SET;
 4868              		.loc 1 1162 0
 4869 009a 044B     		ldr	r3, .L229+4
 4870 009c 4FF48072 		mov	r2, #256
 4871 00a0 1A60     		str	r2, [r3]
 4872              	.L222:
1163:bluetooth_rxtx.c **** #endif
1164:bluetooth_rxtx.c **** }
 4873              		.loc 1 1164 0
 4874 00a2 0837     		adds	r7, r7, #8
 4875              		.cfi_def_cfa_offset 8
 4876 00a4 BD46     		mov	sp, r7
 4877              		.cfi_def_cfa_register 13
 4878              		@ sp needed
 4879 00a6 80BD     		pop	{r7, pc}
 4880              	.L230:
 4881              		.align	2
 4882              	.L229:
 4883 00a8 00000000 		.word	modulation
 4884 00ac 58C00920 		.word	537509976
 4885              		.cfi_endproc
 4886              	.LFE21:
 4888              		.section	.text.cc2400_rx_sync,"ax",%progbits
 4889              		.align	2
 4890              		.thumb
 4891              		.thumb_func
 4893              	cc2400_rx_sync:
 4894              	.LFB22:
1165:bluetooth_rxtx.c **** 
1166:bluetooth_rxtx.c **** /* start un-buffered rx */
1167:bluetooth_rxtx.c **** static void cc2400_rx_sync(u32 sync)
1168:bluetooth_rxtx.c **** {
 4895              		.loc 1 1168 0
 4896              		.cfi_startproc
 4897              		@ args = 0, pretend = 0, frame = 16
 4898              		@ frame_needed = 1, uses_anonymous_args = 0
 4899 0000 80B5     		push	{r7, lr}
 4900              		.cfi_def_cfa_offset 8
 4901              		.cfi_offset 7, -8
 4902              		.cfi_offset 14, -4
 4903 0002 84B0     		sub	sp, sp, #16
 4904              		.cfi_def_cfa_offset 24
ARM GAS  /tmp/ccSuvgbr.s 			page 106


 4905 0004 00AF     		add	r7, sp, #0
 4906              		.cfi_def_cfa_register 7
 4907 0006 7860     		str	r0, [r7, #4]
1169:bluetooth_rxtx.c **** 	u16 grmdm, mdmctrl;
1170:bluetooth_rxtx.c **** 
1171:bluetooth_rxtx.c **** 	if (modulation == MOD_BT_BASIC_RATE) {
 4908              		.loc 1 1171 0
 4909 0008 334B     		ldr	r3, .L238
 4910 000a 1B78     		ldrb	r3, [r3]
 4911 000c DBB2     		uxtb	r3, r3
 4912 000e 002B     		cmp	r3, #0
 4913 0010 05D1     		bne	.L232
1172:bluetooth_rxtx.c **** 		mdmctrl = 0x0029; // 160 kHz frequency deviation
 4914              		.loc 1 1172 0
 4915 0012 2923     		movs	r3, #41
 4916 0014 BB81     		strh	r3, [r7, #12]	@ movhi
1173:bluetooth_rxtx.c **** 		grmdm = 0x0461; // un-buffered mode, packet w/ sync word detection
 4917              		.loc 1 1173 0
 4918 0016 40F26143 		movw	r3, #1121
 4919 001a FB81     		strh	r3, [r7, #14]	@ movhi
 4920 001c 0BE0     		b	.L233
 4921              	.L232:
1174:bluetooth_rxtx.c **** 		// 0 00 00 1 000 11 0 00 0 1
1175:bluetooth_rxtx.c **** 		//   |  |  | |   |  +--------> CRC off
1176:bluetooth_rxtx.c **** 		//   |  |  | |   +-----------> sync word: 32 MSB bits of SYNC_WORD
1177:bluetooth_rxtx.c **** 		//   |  |  | +---------------> 0 preamble bytes of 01010101
1178:bluetooth_rxtx.c **** 		//   |  |  +-----------------> packet mode
1179:bluetooth_rxtx.c **** 		//   |  +--------------------> un-buffered mode
1180:bluetooth_rxtx.c **** 		//   +-----------------------> sync error bits: 0
1181:bluetooth_rxtx.c **** 
1182:bluetooth_rxtx.c **** 	} else if (modulation == MOD_BT_LOW_ENERGY) {
 4922              		.loc 1 1182 0
 4923 001e 2E4B     		ldr	r3, .L238
 4924 0020 1B78     		ldrb	r3, [r3]
 4925 0022 DBB2     		uxtb	r3, r3
 4926 0024 012B     		cmp	r3, #1
 4927 0026 05D1     		bne	.L234
1183:bluetooth_rxtx.c **** 		mdmctrl = 0x0040; // 250 kHz frequency deviation
 4928              		.loc 1 1183 0
 4929 0028 4023     		movs	r3, #64
 4930 002a BB81     		strh	r3, [r7, #12]	@ movhi
1184:bluetooth_rxtx.c **** 		grmdm = 0x0561; // un-buffered mode, packet w/ sync word detection
 4931              		.loc 1 1184 0
 4932 002c 40F26153 		movw	r3, #1377
 4933 0030 FB81     		strh	r3, [r7, #14]	@ movhi
 4934 0032 00E0     		b	.L233
 4935              	.L234:
1185:bluetooth_rxtx.c **** 		// 0 00 00 1 010 11 0 00 0 1
1186:bluetooth_rxtx.c **** 		//   |  |  | |   |  +--------> CRC off
1187:bluetooth_rxtx.c **** 		//   |  |  | |   +-----------> sync word: 32 MSB bits of SYNC_WORD
1188:bluetooth_rxtx.c **** 		//   |  |  | +---------------> 2 preamble bytes of 01010101
1189:bluetooth_rxtx.c **** 		//   |  |  +-----------------> packet mode
1190:bluetooth_rxtx.c **** 		//   |  +--------------------> un-buffered mode
1191:bluetooth_rxtx.c **** 		//   +-----------------------> sync error bits: 0
1192:bluetooth_rxtx.c **** 
1193:bluetooth_rxtx.c **** 	} else {
1194:bluetooth_rxtx.c **** 		/* oops */
ARM GAS  /tmp/ccSuvgbr.s 			page 107


1195:bluetooth_rxtx.c **** 		return;
 4936              		.loc 1 1195 0
 4937 0034 4DE0     		b	.L231
 4938              	.L233:
1196:bluetooth_rxtx.c **** 	}
1197:bluetooth_rxtx.c **** 
1198:bluetooth_rxtx.c **** 	cc2400_set(MANAND,  0x7fff);
 4939              		.loc 1 1198 0
 4940 0036 0D20     		movs	r0, #13
 4941 0038 47F6FF71 		movw	r1, #32767
 4942 003c FFF7FEFF 		bl	cc2400_set
1199:bluetooth_rxtx.c **** 	cc2400_set(LMTST,   0x2b22);
 4943              		.loc 1 1199 0
 4944 0040 1220     		movs	r0, #18
 4945 0042 42F62231 		movw	r1, #11042
 4946 0046 FFF7FEFF 		bl	cc2400_set
1200:bluetooth_rxtx.c **** 
1201:bluetooth_rxtx.c **** 	cc2400_set(MDMTST0, 0x124b);
 4947              		.loc 1 1201 0
 4948 004a 1420     		movs	r0, #20
 4949 004c 41F24B21 		movw	r1, #4683
 4950 0050 FFF7FEFF 		bl	cc2400_set
1202:bluetooth_rxtx.c **** 	// 1      2      4b
1203:bluetooth_rxtx.c **** 	// 00 0 1 0 0 10 01001011
1204:bluetooth_rxtx.c **** 	//    | | | | |  +---------> AFC_DELTA = ??
1205:bluetooth_rxtx.c **** 	//    | | | | +------------> AFC settling = 4 pairs (8 bit preamble)
1206:bluetooth_rxtx.c **** 	//    | | | +--------------> no AFC adjust on packet
1207:bluetooth_rxtx.c **** 	//    | | +----------------> do not invert data
1208:bluetooth_rxtx.c **** 	//    | +------------------> TX IF freq 1 0Hz
1209:bluetooth_rxtx.c **** 	//    +--------------------> PRNG off
1210:bluetooth_rxtx.c **** 	//
1211:bluetooth_rxtx.c **** 	// ref: CC2400 datasheet page 67
1212:bluetooth_rxtx.c **** 	// AFC settling explained page 41/42
1213:bluetooth_rxtx.c **** 
1214:bluetooth_rxtx.c **** 	cc2400_set(GRMDM,   grmdm);
 4951              		.loc 1 1214 0
 4952 0054 FB89     		ldrh	r3, [r7, #14]
 4953 0056 2020     		movs	r0, #32
 4954 0058 1946     		mov	r1, r3
 4955 005a FFF7FEFF 		bl	cc2400_set
1215:bluetooth_rxtx.c **** 
1216:bluetooth_rxtx.c **** 	cc2400_set(SYNCL,   sync & 0xffff);
 4956              		.loc 1 1216 0
 4957 005e 7B68     		ldr	r3, [r7, #4]
 4958 0060 9BB2     		uxth	r3, r3
 4959 0062 2C20     		movs	r0, #44
 4960 0064 1946     		mov	r1, r3
 4961 0066 FFF7FEFF 		bl	cc2400_set
1217:bluetooth_rxtx.c **** 	cc2400_set(SYNCH,   (sync >> 16) & 0xffff);
 4962              		.loc 1 1217 0
 4963 006a 7B68     		ldr	r3, [r7, #4]
 4964 006c 1B0C     		lsrs	r3, r3, #16
 4965 006e 9BB2     		uxth	r3, r3
 4966 0070 2D20     		movs	r0, #45
 4967 0072 1946     		mov	r1, r3
 4968 0074 FFF7FEFF 		bl	cc2400_set
1218:bluetooth_rxtx.c **** 
ARM GAS  /tmp/ccSuvgbr.s 			page 108


1219:bluetooth_rxtx.c **** 	cc2400_set(FSDIV,   channel - 1); // 1 MHz IF
 4969              		.loc 1 1219 0
 4970 0078 184B     		ldr	r3, .L238+4
 4971 007a 1B88     		ldrh	r3, [r3]	@ movhi
 4972 007c 9BB2     		uxth	r3, r3
 4973 007e 013B     		subs	r3, r3, #1
 4974 0080 9BB2     		uxth	r3, r3
 4975 0082 0220     		movs	r0, #2
 4976 0084 1946     		mov	r1, r3
 4977 0086 FFF7FEFF 		bl	cc2400_set
1220:bluetooth_rxtx.c **** 	cc2400_set(MDMCTRL, mdmctrl);
 4978              		.loc 1 1220 0
 4979 008a BB89     		ldrh	r3, [r7, #12]
 4980 008c 0320     		movs	r0, #3
 4981 008e 1946     		mov	r1, r3
 4982 0090 FFF7FEFF 		bl	cc2400_set
1221:bluetooth_rxtx.c **** 
1222:bluetooth_rxtx.c **** 	// Set up CS register
1223:bluetooth_rxtx.c **** 	cs_threshold_calc_and_set();
 4983              		.loc 1 1223 0
 4984 0094 FFF7FEFF 		bl	cs_threshold_calc_and_set
1224:bluetooth_rxtx.c **** 
1225:bluetooth_rxtx.c **** 	while (!(cc2400_status() & XOSC16M_STABLE));
 4985              		.loc 1 1225 0
 4986 0098 00BF     		nop
 4987              	.L236:
 4988              		.loc 1 1225 0 is_stmt 0 discriminator 1
 4989 009a FFF7FEFF 		bl	cc2400_status
 4990 009e 0346     		mov	r3, r0
 4991 00a0 03F04003 		and	r3, r3, #64
 4992 00a4 002B     		cmp	r3, #0
 4993 00a6 F8D0     		beq	.L236
1226:bluetooth_rxtx.c **** 	cc2400_strobe(SFSON);
 4994              		.loc 1 1226 0 is_stmt 1
 4995 00a8 6120     		movs	r0, #97
 4996 00aa FFF7FEFF 		bl	cc2400_strobe
1227:bluetooth_rxtx.c **** 	while (!(cc2400_status() & FS_LOCK));
 4997              		.loc 1 1227 0
 4998 00ae 00BF     		nop
 4999              	.L237:
 5000              		.loc 1 1227 0 is_stmt 0 discriminator 1
 5001 00b0 FFF7FEFF 		bl	cc2400_status
 5002 00b4 0346     		mov	r3, r0
 5003 00b6 03F00403 		and	r3, r3, #4
 5004 00ba 002B     		cmp	r3, #0
 5005 00bc F8D0     		beq	.L237
1228:bluetooth_rxtx.c **** 	cc2400_strobe(SRX);
 5006              		.loc 1 1228 0 is_stmt 1
 5007 00be 6220     		movs	r0, #98
 5008 00c0 FFF7FEFF 		bl	cc2400_strobe
1229:bluetooth_rxtx.c **** #ifdef UBERTOOTH_ONE
1230:bluetooth_rxtx.c **** 	PAEN_SET;
 5009              		.loc 1 1230 0
 5010 00c4 064B     		ldr	r3, .L238+8
 5011 00c6 8022     		movs	r2, #128
 5012 00c8 1A60     		str	r2, [r3]
1231:bluetooth_rxtx.c **** 	HGM_SET;
ARM GAS  /tmp/ccSuvgbr.s 			page 109


 5013              		.loc 1 1231 0
 5014 00ca 054B     		ldr	r3, .L238+8
 5015 00cc 4FF48072 		mov	r2, #256
 5016 00d0 1A60     		str	r2, [r3]
 5017              	.L231:
1232:bluetooth_rxtx.c **** #endif
1233:bluetooth_rxtx.c **** }
 5018              		.loc 1 1233 0
 5019 00d2 1037     		adds	r7, r7, #16
 5020              		.cfi_def_cfa_offset 8
 5021 00d4 BD46     		mov	sp, r7
 5022              		.cfi_def_cfa_register 13
 5023              		@ sp needed
 5024 00d6 80BD     		pop	{r7, pc}
 5025              	.L239:
 5026              		.align	2
 5027              	.L238:
 5028 00d8 00000000 		.word	modulation
 5029 00dc 00000000 		.word	channel
 5030 00e0 58C00920 		.word	537509976
 5031              		.cfi_endproc
 5032              	.LFE22:
 5034              		.section	.text.le_transmit,"ax",%progbits
 5035              		.align	2
 5036              		.global	le_transmit
 5037              		.thumb
 5038              		.thumb_func
 5040              	le_transmit:
 5041              	.LFB23:
1234:bluetooth_rxtx.c **** 
1235:bluetooth_rxtx.c **** /*
1236:bluetooth_rxtx.c ****  * Transmit a BTLE packet with the specified access address.
1237:bluetooth_rxtx.c ****  *
1238:bluetooth_rxtx.c ****  * All modulation parameters are set within this function. The data
1239:bluetooth_rxtx.c ****  * should not be pre-whitened, but the CRC should be calculated and
1240:bluetooth_rxtx.c ****  * included in the data length.
1241:bluetooth_rxtx.c ****  */
1242:bluetooth_rxtx.c **** void le_transmit(u32 aa, u8 len, u8 *data)
1243:bluetooth_rxtx.c **** {
 5042              		.loc 1 1243 0
 5043              		.cfi_startproc
 5044              		@ args = 0, pretend = 0, frame = 104
 5045              		@ frame_needed = 1, uses_anonymous_args = 0
 5046 0000 80B5     		push	{r7, lr}
 5047              		.cfi_def_cfa_offset 8
 5048              		.cfi_offset 7, -8
 5049              		.cfi_offset 14, -4
 5050 0002 9AB0     		sub	sp, sp, #104
 5051              		.cfi_def_cfa_offset 112
 5052 0004 00AF     		add	r7, sp, #0
 5053              		.cfi_def_cfa_register 7
 5054 0006 F860     		str	r0, [r7, #12]
 5055 0008 0B46     		mov	r3, r1
 5056 000a 7A60     		str	r2, [r7, #4]
 5057 000c FB72     		strb	r3, [r7, #11]
1244:bluetooth_rxtx.c **** 	unsigned i, j;
1245:bluetooth_rxtx.c **** 	int bit;
ARM GAS  /tmp/ccSuvgbr.s 			page 110


1246:bluetooth_rxtx.c **** 	u8 txbuf[64];
1247:bluetooth_rxtx.c **** 	u8 tx_len;
1248:bluetooth_rxtx.c **** 	u8 byte;
1249:bluetooth_rxtx.c **** 	u16 gio_save;
1250:bluetooth_rxtx.c **** 
1251:bluetooth_rxtx.c **** 	// first four bytes: AA
1252:bluetooth_rxtx.c **** 	for (i = 0; i < 4; ++i) {
 5058              		.loc 1 1252 0
 5059 000e 0023     		movs	r3, #0
 5060 0010 7B66     		str	r3, [r7, #100]
 5061 0012 35E0     		b	.L241
 5062              	.L244:
1253:bluetooth_rxtx.c **** 		byte = aa & 0xff;
 5063              		.loc 1 1253 0
 5064 0014 FB68     		ldr	r3, [r7, #12]
 5065 0016 87F85E30 		strb	r3, [r7, #94]
1254:bluetooth_rxtx.c **** 		aa >>= 8;
 5066              		.loc 1 1254 0
 5067 001a FB68     		ldr	r3, [r7, #12]
 5068 001c 1B0A     		lsrs	r3, r3, #8
 5069 001e FB60     		str	r3, [r7, #12]
1255:bluetooth_rxtx.c **** 		txbuf[i] = 0;
 5070              		.loc 1 1255 0
 5071 0020 07F11002 		add	r2, r7, #16
 5072 0024 7B6E     		ldr	r3, [r7, #100]
 5073 0026 1344     		add	r3, r3, r2
 5074 0028 0022     		movs	r2, #0
 5075 002a 1A70     		strb	r2, [r3]
1256:bluetooth_rxtx.c **** 		for (j = 0; j < 8; ++j) {
 5076              		.loc 1 1256 0
 5077 002c 0023     		movs	r3, #0
 5078 002e 3B66     		str	r3, [r7, #96]
 5079 0030 20E0     		b	.L242
 5080              	.L243:
1257:bluetooth_rxtx.c **** 			txbuf[i] |= (byte & 1) << (7 - j);
 5081              		.loc 1 1257 0 discriminator 3
 5082 0032 07F11002 		add	r2, r7, #16
 5083 0036 7B6E     		ldr	r3, [r7, #100]
 5084 0038 1344     		add	r3, r3, r2
 5085 003a 1B78     		ldrb	r3, [r3]	@ zero_extendqisi2
 5086 003c D9B2     		uxtb	r1, r3
