ARM GAS  /tmp/ccxwuSCA.s 			page 1


   1              		.syntax unified
   2              		.cpu cortex-m3
   3              		.fpu softvfp
   4              		.eabi_attribute 20, 1
   5              		.eabi_attribute 21, 1
   6              		.eabi_attribute 23, 3
   7              		.eabi_attribute 24, 1
   8              		.eabi_attribute 25, 1
   9              		.eabi_attribute 26, 1
  10              		.eabi_attribute 30, 6
  11              		.eabi_attribute 34, 1
  12              		.eabi_attribute 18, 4
  13              		.thumb
  14              		.file	"bluetooth_rxtx.c"
  15              		.text
  16              	.Ltext0:
  17              		.cfi_sections	.debug_frame
  18              		.data
  19              		.align	2
  22              	iap_entry:
  23 0000 F11FFF1F 		.word	536813553
  24              		.comm	target,16,8
  25              		.comm	syncword,8,8
  26              		.comm	afh_enabled,1,1
  27              		.comm	afh_map,10,4
  28              		.section	.rodata
  29              		.align	2
  32              	advertising_channels:
  33 0000 00       		.byte	0
  34 0001 0C       		.byte	12
  35 0002 27       		.byte	39
  36 0003 00       		.align	2
  39              	data_channels:
  40 0004 01       		.byte	1
  41 0005 02       		.byte	2
  42 0006 03       		.byte	3
  43 0007 04       		.byte	4
  44 0008 05       		.byte	5
  45 0009 06       		.byte	6
  46 000a 07       		.byte	7
  47 000b 08       		.byte	8
  48 000c 09       		.byte	9
  49 000d 0A       		.byte	10
  50 000e 0B       		.byte	11
  51 000f 0D       		.byte	13
  52 0010 0E       		.byte	14
  53 0011 0F       		.byte	15
  54 0012 10       		.byte	16
  55 0013 11       		.byte	17
  56 0014 12       		.byte	18
  57 0015 13       		.byte	19
  58 0016 14       		.byte	20
  59 0017 15       		.byte	21
  60 0018 16       		.byte	22
  61 0019 17       		.byte	23
  62 001a 18       		.byte	24
  63 001b 19       		.byte	25
ARM GAS  /tmp/ccxwuSCA.s 			page 2


  64 001c 1A       		.byte	26
  65 001d 1B       		.byte	27
  66 001e 1C       		.byte	28
  67 001f 1D       		.byte	29
  68 0020 1E       		.byte	30
  69 0021 1F       		.byte	31
  70 0022 20       		.byte	32
  71 0023 21       		.byte	33
  72 0024 22       		.byte	34
  73 0025 23       		.byte	35
  74 0026 24       		.byte	36
  75 0027 25       		.byte	37
  76 0028 26       		.byte	38
  77 0029 000000   		.align	2
  80              	payload:
  81 002c CA       		.byte	-54
  82 002d AA       		.byte	-86
  83 002e AA       		.byte	-86
  84 002f AA       		.byte	-86
  85 0030 AA       		.byte	-86
  86 0031 AA       		.byte	-86
  87 0032 AA       		.byte	-86
  88 0033 AA       		.byte	-86
  89 0034 AA       		.byte	-86
  90 0035 AA       		.byte	-86
  91 0036 AA       		.byte	-86
  92 0037 AA       		.byte	-86
  93 0038 AA       		.byte	-86
  94 0039 AA       		.byte	-86
  95 003a AA       		.byte	-86
  96 003b AA       		.byte	-86
  97 003c AA       		.byte	-86
  98 003d AA       		.byte	-86
  99 003e AA       		.byte	-86
 100 003f AA       		.byte	-86
 101              		.align	2
 104              	whitening:
 105 0040 01       		.byte	1
 106 0041 01       		.byte	1
 107 0042 01       		.byte	1
 108 0043 01       		.byte	1
 109 0044 00       		.byte	0
 110 0045 01       		.byte	1
 111 0046 00       		.byte	0
 112 0047 01       		.byte	1
 113 0048 00       		.byte	0
 114 0049 01       		.byte	1
 115 004a 00       		.byte	0
 116 004b 00       		.byte	0
 117 004c 00       		.byte	0
 118 004d 00       		.byte	0
 119 004e 01       		.byte	1
 120 004f 00       		.byte	0
 121 0050 01       		.byte	1
 122 0051 01       		.byte	1
 123 0052 00       		.byte	0
 124 0053 01       		.byte	1
ARM GAS  /tmp/ccxwuSCA.s 			page 3


 125 0054 01       		.byte	1
 126 0055 01       		.byte	1
 127 0056 01       		.byte	1
 128 0057 00       		.byte	0
 129 0058 00       		.byte	0
 130 0059 01       		.byte	1
 131 005a 01       		.byte	1
 132 005b 01       		.byte	1
 133 005c 00       		.byte	0
 134 005d 00       		.byte	0
 135 005e 01       		.byte	1
 136 005f 00       		.byte	0
 137 0060 01       		.byte	1
 138 0061 00       		.byte	0
 139 0062 01       		.byte	1
 140 0063 01       		.byte	1
 141 0064 00       		.byte	0
 142 0065 00       		.byte	0
 143 0066 01       		.byte	1
 144 0067 01       		.byte	1
 145 0068 00       		.byte	0
 146 0069 00       		.byte	0
 147 006a 00       		.byte	0
 148 006b 00       		.byte	0
 149 006c 00       		.byte	0
 150 006d 01       		.byte	1
 151 006e 01       		.byte	1
 152 006f 00       		.byte	0
 153 0070 01       		.byte	1
 154 0071 01       		.byte	1
 155 0072 00       		.byte	0
 156 0073 01       		.byte	1
 157 0074 00       		.byte	0
 158 0075 01       		.byte	1
 159 0076 01       		.byte	1
 160 0077 01       		.byte	1
 161 0078 00       		.byte	0
 162 0079 01       		.byte	1
 163 007a 00       		.byte	0
 164 007b 00       		.byte	0
 165 007c 00       		.byte	0
 166 007d 01       		.byte	1
 167 007e 01       		.byte	1
 168 007f 00       		.byte	0
 169 0080 00       		.byte	0
 170 0081 01       		.byte	1
 171 0082 00       		.byte	0
 172 0083 00       		.byte	0
 173 0084 00       		.byte	0
 174 0085 01       		.byte	1
 175 0086 00       		.byte	0
 176 0087 00       		.byte	0
 177 0088 00       		.byte	0
 178 0089 00       		.byte	0
 179 008a 00       		.byte	0
 180 008b 00       		.byte	0
 181 008c 01       		.byte	1
ARM GAS  /tmp/ccxwuSCA.s 			page 4


 182 008d 00       		.byte	0
 183 008e 00       		.byte	0
 184 008f 01       		.byte	1
 185 0090 00       		.byte	0
 186 0091 00       		.byte	0
 187 0092 01       		.byte	1
 188 0093 01       		.byte	1
 189 0094 00       		.byte	0
 190 0095 01       		.byte	1
 191 0096 00       		.byte	0
 192 0097 00       		.byte	0
 193 0098 01       		.byte	1
 194 0099 01       		.byte	1
 195 009a 01       		.byte	1
 196 009b 01       		.byte	1
 197 009c 00       		.byte	0
 198 009d 01       		.byte	1
 199 009e 01       		.byte	1
 200 009f 01       		.byte	1
 201 00a0 00       		.byte	0
 202 00a1 00       		.byte	0
 203 00a2 00       		.byte	0
 204 00a3 00       		.byte	0
 205 00a4 01       		.byte	1
 206 00a5 01       		.byte	1
 207 00a6 01       		.byte	1
 208 00a7 01       		.byte	1
 209 00a8 01       		.byte	1
 210 00a9 01       		.byte	1
 211 00aa 01       		.byte	1
 212 00ab 00       		.byte	0
 213 00ac 00       		.byte	0
 214 00ad 00       		.byte	0
 215 00ae 01       		.byte	1
 216 00af 01       		.byte	1
 217 00b0 01       		.byte	1
 218 00b1 00       		.byte	0
 219 00b2 01       		.byte	1
 220 00b3 01       		.byte	1
 221 00b4 00       		.byte	0
 222 00b5 00       		.byte	0
 223 00b6 00       		.byte	0
 224 00b7 01       		.byte	1
 225 00b8 00       		.byte	0
 226 00b9 01       		.byte	1
 227 00ba 00       		.byte	0
 228 00bb 00       		.byte	0
 229 00bc 01       		.byte	1
 230 00bd 00       		.byte	0
 231 00be 01       		.byte	1
 232 00bf 00       		.align	2
 235              	whitening_index:
 236 00c0 46       		.byte	70
 237 00c1 3E       		.byte	62
 238 00c2 78       		.byte	120
 239 00c3 6F       		.byte	111
 240 00c4 4D       		.byte	77
ARM GAS  /tmp/ccxwuSCA.s 			page 5


 241 00c5 2E       		.byte	46
 242 00c6 0F       		.byte	15
 243 00c7 65       		.byte	101
 244 00c8 42       		.byte	66
 245 00c9 27       		.byte	39
 246 00ca 1F       		.byte	31
 247 00cb 1A       		.byte	26
 248 00cc 50       		.byte	80
 249 00cd 53       		.byte	83
 250 00ce 7D       		.byte	125
 251 00cf 59       		.byte	89
 252 00d0 0A       		.byte	10
 253 00d1 23       		.byte	35
 254 00d2 08       		.byte	8
 255 00d3 36       		.byte	54
 256 00d4 7A       		.byte	122
 257 00d5 11       		.byte	17
 258 00d6 21       		.byte	33
 259 00d7 00       		.byte	0
 260 00d8 3A       		.byte	58
 261 00d9 73       		.byte	115
 262 00da 06       		.byte	6
 263 00db 5E       		.byte	94
 264 00dc 56       		.byte	86
 265 00dd 31       		.byte	49
 266 00de 34       		.byte	52
 267 00df 14       		.byte	20
 268 00e0 28       		.byte	40
 269 00e1 1B       		.byte	27
 270 00e2 54       		.byte	84
 271 00e3 5A       		.byte	90
 272 00e4 3F       		.byte	63
 273 00e5 70       		.byte	112
 274 00e6 2F       		.byte	47
 275 00e7 66       		.byte	102
 276              		.align	2
 279              	hop_interval_lut:
 280 00e8 00       		.byte	0
 281 00e9 01       		.byte	1
 282 00ea 13       		.byte	19
 283 00eb 19       		.byte	25
 284 00ec 1C       		.byte	28
 285 00ed 0F       		.byte	15
 286 00ee 1F       		.byte	31
 287 00ef 10       		.byte	16
 288 00f0 0E       		.byte	14
 289 00f1 21       		.byte	33
 290 00f2 1A       		.byte	26
 291 00f3 1B       		.byte	27
 292 00f4 22       		.byte	34
 293 00f5 14       		.byte	20
 294 00f6 08       		.byte	8
 295 00f7 05       		.byte	5
 296 00f8 07       		.byte	7
 297 00f9 18       		.byte	24
 298 00fa 23       		.byte	35
 299 00fb 02       		.byte	2
ARM GAS  /tmp/ccxwuSCA.s 			page 6


 300 00fc 0D       		.byte	13
 301 00fd 1E       		.byte	30
 302 00fe 20       		.byte	32
 303 00ff 1D       		.byte	29
 304 0100 11       		.byte	17
 305 0101 03       		.byte	3
 306 0102 0A       		.byte	10
 307 0103 0B       		.byte	11
 308 0104 04       		.byte	4
 309 0105 17       		.byte	23
 310 0106 15       		.byte	21
 311 0107 06       		.byte	6
 312 0108 16       		.byte	22
 313 0109 09       		.byte	9
 314 010a 0C       		.byte	12
 315 010b 12       		.byte	18
 316 010c 24       		.byte	36
 317 010d 000000   		.align	2
 320              	whitening_word:
 321 0110 40B2BCC3 		.word	-1011043776
 322 0114 1F374A5F 		.word	1598699295
 323 0118 85F69C9A 		.word	-1700989307
 324 011c C1D6C544 		.word	1153816257
 325 0120 2059DEE1 		.word	-505521888
 326 0124 8F1BA5AF 		.word	-1348134001
 327 0128 427B4ECD 		.word	-850494654
 328 012c 60EB6222 		.word	576908128
 329 0130 902CEFF0 		.word	-252760944
 330 0134 C78DD257 		.word	1473416647
 331 0138 A13DA766 		.word	1722236321
 332 013c B0753111 		.word	288454064
 333 0140 8940B2BC 		.word	-1129168759
 334 0144 C31F374A 		.word	1245126595
 335 0148 5F85F69C 		.word	-1661565601
 336 014c 9AC1D6C5 		.word	-975781478
 337 0150 442059DE 		.word	-564584380
 338 0154 E18F1BA5 		.word	-1524920351
 339 0158 AF427B4E 		.word	1316700847
 340 015c CD60EB62 		.word	1659592909
 341 0160 22902CEF 		.word	-282292190
 342 0164 F0C78DD2 		.word	-762460176
 343 0168 57A13DA7 		.word	-1489133225
 344 016c 66B07531 		.word	829796454
 345 0170 D257A13D 		.word	1033983954
 346 0174 A766B075 		.word	1974494887
 347 0178 31114896 		.word	-1773661903
 348 017c 77F8E346 		.word	1189345399
 349 0180 E9ABD09E 		.word	-1630491671
 350 0184 5333D8BA 		.word	-1160236205
 351 0188 980824CB 		.word	-886830952
 352 018c 3BFC71A3 		.word	-1552810949
 353 0190 F45568CF 		.word	-815245836
 354 0194 A9196C5D 		.word	1567365545
 355 0198 4C0492E5 		.word	-443415476
 356 019c 1DFEB851 		.word	1371078173
 357 01a0 1BA5AF42 		.word	1118807323
 358 01a4 7B4ECD60 		.word	1624067707
ARM GAS  /tmp/ccxwuSCA.s 			page 7


 359 01a8 EB622290 		.word	-1876794645
 360 01ac 2CEFF0C7 		.word	-940511444
 361 01b0 8DD257A1 		.word	-1588079987
 362 01b4 3DA766B0 		.word	-1335449795
 363 01b8 75311148 		.word	1209086325
 364 01bc 9677F8E3 		.word	-470255722
 365 01c0 46E9ABD0 		.word	-794039994
 366 01c4 9E5333D8 		.word	-667724898
 367 01c8 BA980824 		.word	604543162
 368 01cc CB3BFC71 		.word	1912355787
 369 01d0 6479873F 		.word	1065843044
 370 01d4 6E94BE0A 		.word	180261998
 371 01d8 ED393583 		.word	-2093663763
 372 01dc AD8B8940 		.word	1082756013
 373 01e0 B2BCC31F 		.word	532921522
 374 01e4 374A5F85 		.word	-2057352649
 375 01e8 F69C9AC1 		.word	-1046831882
 376 01ec D6C54420 		.word	541378006
 377 01f0 59DEE18F 		.word	-1881022887
 378 01f4 1BA5AF42 		.word	1118807323
 379 01f8 7B4ECD60 		.word	1624067707
 380 01fc EB622290 		.word	-1876794645
 381 0200 AD8B8940 		.word	1082756013
 382 0204 B2BCC31F 		.word	532921522
 383 0208 374A5F85 		.word	-2057352649
 384 020c F69C9AC1 		.word	-1046831882
 385 0210 D6C54420 		.word	541378006
 386 0214 59DEE18F 		.word	-1881022887
 387 0218 1BA5AF42 		.word	1118807323
 388 021c 7B4ECD60 		.word	1624067707
 389 0220 EB622290 		.word	-1876794645
 390 0224 2CEFF0C7 		.word	-940511444
 391 0228 8DD257A1 		.word	-1588079987
 392 022c 3DA766B0 		.word	-1335449795
 393 0230 F69C9AC1 		.word	-1046831882
 394 0234 D6C54420 		.word	541378006
 395 0238 59DEE18F 		.word	-1881022887
 396 023c 1BA5AF42 		.word	1118807323
 397 0240 7B4ECD60 		.word	1624067707
 398 0244 EB622290 		.word	-1876794645
 399 0248 2CEFF0C7 		.word	-940511444
 400 024c 8DD257A1 		.word	-1588079987
 401 0250 3DA766B0 		.word	-1335449795
 402 0254 75311148 		.word	1209086325
 403 0258 9677F8E3 		.word	-470255722
 404 025c 46E9ABD0 		.word	-794039994
 405 0260 3F6E94BE 		.word	-1097568705
 406 0264 0AED3935 		.word	892988682
 407 0268 83AD8B89 		.word	-1987334781
 408 026c 40B2BCC3 		.word	-1011043776
 409 0270 1F374A5F 		.word	1598699295
 410 0274 85F69C9A 		.word	-1700989307
 411 0278 C1D6C544 		.word	1153816257
 412 027c 2059DEE1 		.word	-505521888
 413 0280 8F1BA5AF 		.word	-1348134001
 414 0284 427B4ECD 		.word	-850494654
 415 0288 60EB6222 		.word	576908128
ARM GAS  /tmp/ccxwuSCA.s 			page 8


 416 028c 902CEFF0 		.word	-252760944
 417 0290 0824CB3B 		.word	1003168776
 418 0294 FC71A3F4 		.word	-190615044
 419 0298 5568CFA9 		.word	-1446025131
 420 029c 196C5D4C 		.word	1281190937
 421 02a0 0492E51D 		.word	501584388
 422 02a4 FEB851FA 		.word	-95307522
 423 02a8 2AB4E7D4 		.word	-723012566
 424 02ac 0CB62E26 		.word	640595468
 425 02b0 02C9F20E 		.word	250792194
 426 02b4 7FDC287D 		.word	2099829887
 427 02b8 15DA736A 		.word	1785977365
 428 02bc 065B1713 		.word	320297734
 429 02c0 C1D6C544 		.word	1153816257
 430 02c4 2059DEE1 		.word	-505521888
 431 02c8 8F1BA5AF 		.word	-1348134001
 432 02cc 427B4ECD 		.word	-850494654
 433 02d0 60EB6222 		.word	576908128
 434 02d4 902CEFF0 		.word	-252760944
 435 02d8 C78DD257 		.word	1473416647
 436 02dc A13DA766 		.word	1722236321
 437 02e0 B0753111 		.word	288454064
 438 02e4 489677F8 		.word	-126380472
 439 02e8 E346E9AB 		.word	-1410775325
 440 02ec D09E5333 		.word	861118160
 441 02f0 9AC1D6C5 		.word	-975781478
 442 02f4 442059DE 		.word	-564584380
 443 02f8 E18F1BA5 		.word	-1524920351
 444 02fc AF427B4E 		.word	1316700847
 445 0300 CD60EB62 		.word	1659592909
 446 0304 22902CEF 		.word	-282292190
 447 0308 F0C78DD2 		.word	-762460176
 448 030c 57A13DA7 		.word	-1489133225
 449 0310 66B07531 		.word	829796454
 450 0314 11489677 		.word	2006337553
 451 0318 F8E346E9 		.word	-381230088
 452 031c ABD09E53 		.word	1402917035
 453 0320 5333D8BA 		.word	-1160236205
 454 0324 980824CB 		.word	-886830952
 455 0328 3BFC71A3 		.word	-1552810949
 456 032c F45568CF 		.word	-815245836
 457 0330 A9196C5D 		.word	1567365545
 458 0334 4C0492E5 		.word	-443415476
 459 0338 1DFEB851 		.word	1371078173
 460 033c FA2AB4E7 		.word	-407622918
 461 0340 D40CB62E 		.word	783682772
 462 0344 2602C9F2 		.word	-221707738
 463 0348 0E7FDC28 		.word	685539086
 464 034c 7D15DA73 		.word	1943672189
 465 0350 2CEFF0C7 		.word	-940511444
 466 0354 8DD257A1 		.word	-1588079987
 467 0358 3DA766B0 		.word	-1335449795
 468 035c 75311148 		.word	1209086325
 469 0360 9677F8E3 		.word	-470255722
 470 0364 46E9ABD0 		.word	-794039994
 471 0368 9E5333D8 		.word	-667724898
 472 036c BA980824 		.word	604543162
ARM GAS  /tmp/ccxwuSCA.s 			page 9


 473 0370 CB3BFC71 		.word	1912355787
 474 0374 A3F45568 		.word	1750463651
 475 0378 CFA9196C 		.word	1813621199
 476 037c 5D4C0492 		.word	-1845212067
 477 0380 E51DFEB8 		.word	-1191305755
 478 0384 51FA2AB4 		.word	-1272251823
 479 0388 E7D40CB6 		.word	-1240673049
 480 038c 2E2602C9 		.word	-922606034
 481 0390 F20E7FDC 		.word	-595652878
 482 0394 287D15DA 		.word	-636125912
 483 0398 736A065B 		.word	1527147123
 484 039c 17138164 		.word	1686180631
 485 03a0 79873F6E 		.word	1849657209
 486 03a4 94BE0AED 		.word	-318062956
 487 03a8 393583AD 		.word	-1383910087
 488 03ac 8B8940B2 		.word	-1304393333
 489 03b0 BE0AED39 		.word	971836094
 490 03b4 3583AD8B 		.word	-1951562955
 491 03b8 8940B2BC 		.word	-1129168759
 492 03bc C31F374A 		.word	1245126595
 493 03c0 5F85F69C 		.word	-1661565601
 494 03c4 9AC1D6C5 		.word	-975781478
 495 03c8 442059DE 		.word	-564584380
 496 03cc E18F1BA5 		.word	-1524920351
 497 03d0 AF427B4E 		.word	1316700847
 498 03d4 CD60EB62 		.word	1659592909
 499 03d8 22902CEF 		.word	-282292190
 500 03dc F0C78DD2 		.word	-762460176
 501 03e0 77F8E346 		.word	1189345399
 502 03e4 E9ABD09E 		.word	-1630491671
 503 03e8 5333D8BA 		.word	-1160236205
 504 03ec 980824CB 		.word	-886830952
 505 03f0 3BFC71A3 		.word	-1552810949
 506 03f4 F45568CF 		.word	-815245836
 507 03f8 A9196C5D 		.word	1567365545
 508 03fc 4C0492E5 		.word	-443415476
 509 0400 1DFEB851 		.word	1371078173
 510 0404 FA2AB4E7 		.word	-407622918
 511 0408 D40CB62E 		.word	783682772
 512 040c 2602C9F2 		.word	-221707738
 513 0410 D09E5333 		.word	861118160
 514 0414 D8BA9808 		.word	144227032
 515 0418 24CB3BFC 		.word	-63190236
 516 041c 71A3F455 		.word	1442095985
 517 0420 68CFA919 		.word	430559080
 518 0424 6C5D4C04 		.word	72113516
 519 0428 92E51DFE 		.word	-31595118
 520 042c B851FA2A 		.word	721047992
 521 0430 B4E7D40C 		.word	215279540
 522 0434 B62E2602 		.word	36056758
 523 0438 C9F20E7F 		.word	2131686089
 524 043c DC287D15 		.word	360523996
 525 0440 196C5D4C 		.word	1281190937
 526 0444 0492E51D 		.word	501584388
 527 0448 FEB851FA 		.word	-95307522
 528 044c 2AB4E7D4 		.word	-723012566
 529 0450 0CB62E26 		.word	640595468
ARM GAS  /tmp/ccxwuSCA.s 			page 10


 530 0454 02C9F20E 		.word	250792194
 531 0458 7FDC287D 		.word	2099829887
 532 045c 15DA736A 		.word	1785977365
 533 0460 065B1713 		.word	320297734
 534 0464 81647987 		.word	-2022087551
 535 0468 3F6E94BE 		.word	-1097568705
 536 046c 0AED3935 		.word	892988682
 537 0470 427B4ECD 		.word	-850494654
 538 0474 60EB6222 		.word	576908128
 539 0478 902CEFF0 		.word	-252760944
 540 047c C78DD257 		.word	1473416647
 541 0480 A13DA766 		.word	1722236321
 542 0484 B0753111 		.word	288454064
 543 0488 489677F8 		.word	-126380472
 544 048c E346E9AB 		.word	-1410775325
 545 0490 D09E5333 		.word	861118160
 546 0494 D8BA9808 		.word	144227032
 547 0498 24CB3BFC 		.word	-63190236
 548 049c 71A3F455 		.word	1442095985
 549 04a0 8B8940B2 		.word	-1304393333
 550 04a4 BCC31F37 		.word	924828604
 551 04a8 4A5F85F6 		.word	-159031478
 552 04ac 9C9AC1D6 		.word	-691955044
 553 04b0 C5442059 		.word	1495286981
 554 04b4 DEE18F1B 		.word	462414302
 555 04b8 A5AF427B 		.word	2067967909
 556 04bc 4ECD60EB 		.word	-345977522
 557 04c0 6222902C 		.word	747643490
 558 04c4 EFF0C78D 		.word	-1916276497
 559 04c8 D257A13D 		.word	1033983954
 560 04cc A766B075 		.word	1974494887
 561 04d0 F45568CF 		.word	-815245836
 562 04d4 A9196C5D 		.word	1567365545
 563 04d8 4C0492E5 		.word	-443415476
 564 04dc 1DFEB851 		.word	1371078173
 565 04e0 FA2AB4E7 		.word	-407622918
 566 04e4 D40CB62E 		.word	783682772
 567 04e8 2602C9F2 		.word	-221707738
 568 04ec 0E7FDC28 		.word	685539086
 569 04f0 7D15DA73 		.word	1943672189
 570 04f4 6A065B17 		.word	391841386
 571 04f8 13816479 		.word	2036629779
 572 04fc 873F6E94 		.word	-1804714105
 573 0500 3DA766B0 		.word	-1335449795
 574 0504 75311148 		.word	1209086325
 575 0508 9677F8E3 		.word	-470255722
 576 050c 46E9ABD0 		.word	-794039994
 577 0510 9E5333D8 		.word	-667724898
 578 0514 BA980824 		.word	604543162
 579 0518 CB3BFC71 		.word	1912355787
 580 051c A3F45568 		.word	1750463651
 581 0520 CFA9196C 		.word	1813621199
 582 0524 5D4C0492 		.word	-1845212067
 583 0528 E51DFEB8 		.word	-1191305755
 584 052c 51FA2AB4 		.word	-1272251823
 585 0530 66B07531 		.word	829796454
 586 0534 11489677 		.word	2006337553
ARM GAS  /tmp/ccxwuSCA.s 			page 11


 587 0538 F8E346E9 		.word	-381230088
 588 053c ABD09E53 		.word	1402917035
 589 0540 33D8BA98 		.word	-1732585421
 590 0544 0824CB3B 		.word	1003168776
 591 0548 FC71A3F4 		.word	-190615044
 592 054c 5568CFA9 		.word	-1446025131
 593 0550 196C5D4C 		.word	1281190937
 594 0554 0492E51D 		.word	501584388
 595 0558 FEB851FA 		.word	-95307522
 596 055c 2AB4E7D4 		.word	-723012566
 597 0560 AF427B4E 		.word	1316700847
 598 0564 CD60EB62 		.word	1659592909
 599 0568 22902CEF 		.word	-282292190
 600 056c F0C78DD2 		.word	-762460176
 601 0570 57A13DA7 		.word	-1489133225
 602 0574 66B07531 		.word	829796454
 603 0578 11489677 		.word	2006337553
 604 057c F8E346E9 		.word	-381230088
 605 0580 ABD09E53 		.word	1402917035
 606 0584 33D8BA98 		.word	-1732585421
 607 0588 0824CB3B 		.word	1003168776
 608 058c FC71A3F4 		.word	-190615044
 609 0590 980824CB 		.word	-886830952
 610 0594 3BFC71A3 		.word	-1552810949
 611 0598 F45568CF 		.word	-815245836
 612 059c A9196C5D 		.word	1567365545
 613 05a0 4C0492E5 		.word	-443415476
 614 05a4 1DFEB851 		.word	1371078173
 615 05a8 FA2AB4E7 		.word	-407622918
 616 05ac D40CB62E 		.word	783682772
 617 05b0 2602C9F2 		.word	-221707738
 618 05b4 0E7FDC28 		.word	685539086
 619 05b8 7D15DA73 		.word	1943672189
 620 05bc 6A065B17 		.word	391841386
 621 05c0 51FA2AB4 		.word	-1272251823
 622 05c4 E7D40CB6 		.word	-1240673049
 623 05c8 2E2602C9 		.word	-922606034
 624 05cc F20E7FDC 		.word	-595652878
 625 05d0 287D15DA 		.word	-636125912
 626 05d4 736A065B 		.word	1527147123
 627 05d8 17138164 		.word	1686180631
 628 05dc 79873F6E 		.word	1849657209
 629 05e0 94BE0AED 		.word	-318062956
 630 05e4 393583AD 		.word	-1383910087
 631 05e8 8B8940B2 		.word	-1304393333
 632 05ec BCC31F37 		.word	924828604
 633 05f0 0AED3935 		.word	892988682
 634 05f4 83AD8B89 		.word	-1987334781
 635 05f8 40B2BCC3 		.word	-1011043776
 636 05fc 1F374A5F 		.word	1598699295
 637 0600 85F69C9A 		.word	-1700989307
 638 0604 C1D6C544 		.word	1153816257
 639 0608 2059DEE1 		.word	-505521888
 640 060c 8F1BA5AF 		.word	-1348134001
 641 0610 427B4ECD 		.word	-850494654
 642 0614 60EB6222 		.word	576908128
 643 0618 902CEFF0 		.word	-252760944
ARM GAS  /tmp/ccxwuSCA.s 			page 12


 644 061c C78DD257 		.word	1473416647
 645 0620 C31F374A 		.word	1245126595
 646 0624 5F85F69C 		.word	-1661565601
 647 0628 9AC1D6C5 		.word	-975781478
 648 062c 442059DE 		.word	-564584380
 649 0630 E18F1BA5 		.word	-1524920351
 650 0634 AF427B4E 		.word	1316700847
 651 0638 CD60EB62 		.word	1659592909
 652 063c 22902CEF 		.word	-282292190
 653 0640 F0C78DD2 		.word	-762460176
 654 0644 57A13DA7 		.word	-1489133225
 655 0648 66B07531 		.word	829796454
 656 064c 11489677 		.word	2006337553
 657 0650 BCC31F37 		.word	924828604
 658 0654 4A5F85F6 		.word	-159031478
 659 0658 9C9AC1D6 		.word	-691955044
 660 065c C5442059 		.word	1495286981
 661 0660 DEE18F1B 		.word	462414302
 662 0664 A5AF427B 		.word	2067967909
 663 0668 4ECD60EB 		.word	-345977522
 664 066c 6222902C 		.word	747643490
 665 0670 EFF0C78D 		.word	-1916276497
 666 0674 D257A13D 		.word	1033983954
 667 0678 A766B075 		.word	1974494887
 668 067c 31114896 		.word	-1773661903
 669 0680 75311148 		.word	1209086325
 670 0684 9677F8E3 		.word	-470255722
 671 0688 46E9ABD0 		.word	-794039994
 672 068c 9E5333D8 		.word	-667724898
 673 0690 BA980824 		.word	604543162
 674 0694 CB3BFC71 		.word	1912355787
 675 0698 A3F45568 		.word	1750463651
 676 069c CFA9196C 		.word	1813621199
 677 06a0 5D4C0492 		.word	-1845212067
 678 06a4 E51DFEB8 		.word	-1191305755
 679 06a8 51FA2AB4 		.word	-1272251823
 680 06ac E7D40CB6 		.word	-1240673049
 681 06b0 2E2602C9 		.word	-922606034
 682 06b4 F20E7FDC 		.word	-595652878
 683 06b8 287D15DA 		.word	-636125912
 684 06bc 736A065B 		.word	1527147123
 685 06c0 17138164 		.word	1686180631
 686 06c4 79873F6E 		.word	1849657209
 687 06c8 94BE0AED 		.word	-318062956
 688 06cc 393583AD 		.word	-1383910087
 689 06d0 8B8940B2 		.word	-1304393333
 690 06d4 BCC31F37 		.word	924828604
 691 06d8 4A5F85F6 		.word	-159031478
 692 06dc 9C9AC1D6 		.word	-691955044
 693 06e0 E7D40CB6 		.word	-1240673049
 694 06e4 2E2602C9 		.word	-922606034
 695 06e8 F20E7FDC 		.word	-595652878
 696 06ec 287D15DA 		.word	-636125912
 697 06f0 736A065B 		.word	1527147123
 698 06f4 17138164 		.word	1686180631
 699 06f8 79873F6E 		.word	1849657209
 700 06fc 94BE0AED 		.word	-318062956
ARM GAS  /tmp/ccxwuSCA.s 			page 13


 701 0700 393583AD 		.word	-1383910087
 702 0704 8B8940B2 		.word	-1304393333
 703 0708 BCC31F37 		.word	924828604
 704 070c 4A5F85F6 		.word	-159031478
 705 0710 60EB6222 		.word	576908128
 706 0714 902CEFF0 		.word	-252760944
 707 0718 C78DD257 		.word	1473416647
 708 071c A13DA766 		.word	1722236321
 709 0720 B0753111 		.word	288454064
 710 0724 489677F8 		.word	-126380472
 711 0728 E346E9AB 		.word	-1410775325
 712 072c D09E5333 		.word	861118160
 713 0730 D8BA9808 		.word	144227032
 714 0734 24CB3BFC 		.word	-63190236
 715 0738 71A3F455 		.word	1442095985
 716 073c 68CFA919 		.word	430559080
 717 0740 A9196C5D 		.word	1567365545
 718 0744 4C0492E5 		.word	-443415476
 719 0748 1DFEB851 		.word	1371078173
 720 074c FA2AB4E7 		.word	-407622918
 721 0750 D40CB62E 		.word	783682772
 722 0754 2602C9F2 		.word	-221707738
 723 0758 0E7FDC28 		.word	685539086
 724 075c 7D15DA73 		.word	1943672189
 725 0760 6A065B17 		.word	391841386
 726 0764 13816479 		.word	2036629779
 727 0768 873F6E94 		.word	-1804714105
 728 076c BE0AED39 		.word	971836094
 729 0770 F20E7FDC 		.word	-595652878
 730 0774 287D15DA 		.word	-636125912
 731 0778 736A065B 		.word	1527147123
 732 077c 17138164 		.word	1686180631
 733 0780 79873F6E 		.word	1849657209
 734 0784 94BE0AED 		.word	-318062956
 735 0788 393583AD 		.word	-1383910087
 736 078c 8B8940B2 		.word	-1304393333
 737 0790 BCC31F37 		.word	924828604
 738 0794 4A5F85F6 		.word	-159031478
 739 0798 9C9AC1D6 		.word	-691955044
 740 079c C5442059 		.word	1495286981
 741 07a0 3BFC71A3 		.word	-1552810949
 742 07a4 F45568CF 		.word	-815245836
 743 07a8 A9196C5D 		.word	1567365545
 744 07ac 4C0492E5 		.word	-443415476
 745 07b0 1DFEB851 		.word	1371078173
 746 07b4 FA2AB4E7 		.word	-407622918
 747 07b8 D40CB62E 		.word	783682772
 748 07bc 2602C9F2 		.word	-221707738
 749 07c0 0E7FDC28 		.word	685539086
 750 07c4 7D15DA73 		.word	1943672189
 751 07c8 6A065B17 		.word	391841386
 752 07cc 13816479 		.word	2036629779
 753 07d0 442059DE 		.word	-564584380
 754 07d4 E18F1BA5 		.word	-1524920351
 755 07d8 AF427B4E 		.word	1316700847
 756 07dc CD60EB62 		.word	1659592909
 757 07e0 22902CEF 		.word	-282292190
ARM GAS  /tmp/ccxwuSCA.s 			page 14


 758 07e4 F0C78DD2 		.word	-762460176
 759 07e8 57A13DA7 		.word	-1489133225
 760 07ec 66B07531 		.word	829796454
 761 07f0 11489677 		.word	2006337553
 762 07f4 F8E346E9 		.word	-381230088
 763 07f8 ABD09E53 		.word	1402917035
 764 07fc 33D8BA98 		.word	-1732585421
 765 0800 8DD257A1 		.word	-1588079987
 766 0804 3DA766B0 		.word	-1335449795
 767 0808 75311148 		.word	1209086325
 768 080c 9677F8E3 		.word	-470255722
 769 0810 46E9ABD0 		.word	-794039994
 770 0814 9E5333D8 		.word	-667724898
 771 0818 BA980824 		.word	604543162
 772 081c CB3BFC71 		.word	1912355787
 773 0820 A3F45568 		.word	1750463651
 774 0824 CFA9196C 		.word	1813621199
 775 0828 5D4C0492 		.word	-1845212067
 776 082c E51DFEB8 		.word	-1191305755
 777 0830 D6C54420 		.word	541378006
 778 0834 59DEE18F 		.word	-1881022887
 779 0838 1BA5AF42 		.word	1118807323
 780 083c 7B4ECD60 		.word	1624067707
 781 0840 EB622290 		.word	-1876794645
 782 0844 2CEFF0C7 		.word	-940511444
 783 0848 8DD257A1 		.word	-1588079987
 784 084c 3DA766B0 		.word	-1335449795
 785 0850 75311148 		.word	1209086325
 786 0854 9677F8E3 		.word	-470255722
 787 0858 46E9ABD0 		.word	-794039994
 788 085c 9E5333D8 		.word	-667724898
 789 0860 1F374A5F 		.word	1598699295
 790 0864 85F69C9A 		.word	-1700989307
 791 0868 C1D6C544 		.word	1153816257
 792 086c 2059DEE1 		.word	-505521888
 793 0870 8F1BA5AF 		.word	-1348134001
 794 0874 427B4ECD 		.word	-850494654
 795 0878 60EB6222 		.word	576908128
 796 087c 902CEFF0 		.word	-252760944
 797 0880 C78DD257 		.word	1473416647
 798 0884 A13DA766 		.word	1722236321
 799 0888 B0753111 		.word	288454064
 800 088c 489677F8 		.word	-126380472
 801              		.comm	rr,5,4
 802              		.global	compile_info
 803              		.align	2
 806              	compile_info:
 807 0890 75626572 		.ascii	"ubertooth 2015-10-R1 (root@weiping) Wed Nov  2 20:4"
 807      746F6F74 
 807      68203230 
 807      31352D31 
 807      302D5231 
 808 08c3 373A3238 		.ascii	"7:28 KST 2016\000"
 808      204B5354 
 808      20323031 
 808      3600
 809              		.comm	device_index,1,1
ARM GAS  /tmp/ccxwuSCA.s 			page 15


 810              		.comm	clkn,4,4
 811              		.global	hop_mode
 812              		.bss
 815              	hop_mode:
 816 0000 00       		.space	1
 817              		.global	do_hop
 820              	do_hop:
 821 0001 00       		.space	1
 822              		.global	cs_no_squelch
 825              	cs_no_squelch:
 826 0002 00       		.space	1
 827              		.global	cs_threshold_req
 828              		.data
 831              	cs_threshold_req:
 832 0004 88       		.byte	-120
 833              		.global	cs_threshold_cur
 836              	cs_threshold_cur:
 837 0005 88       		.byte	-120
 838              		.comm	cs_trigger,1,1
 839              		.comm	keepalive_trigger,1,1
 840              		.comm	cs_timestamp,4,4
 841              		.global	hop_direct_channel
 842              		.bss
 843 0003 00       		.align	1
 846              	hop_direct_channel:
 847 0004 0000     		.space	2
 848              		.global	clock_trim
 849 0006 0000     		.align	2
 852              	clock_trim:
 853 0008 00000000 		.space	4
 854              		.comm	idle_buf_clkn_high,4,4
 855              		.comm	active_buf_clkn_high,4,4
 856              		.comm	idle_buf_clk100ns,4,4
 857              		.comm	active_buf_clk100ns,4,4
 858              		.global	idle_buf_channel
 859              		.align	1
 862              	idle_buf_channel:
 863 000c 0000     		.space	2
 864              		.global	active_buf_channel
 865              		.align	1
 868              	active_buf_channel:
 869 000e 0000     		.space	2
 870              		.global	slave_mac_address
 871              		.align	2
 874              	slave_mac_address:
 875 0010 00000000 		.space	6
 875      0000
 876              		.comm	rxbuf1,50,4
 877              		.comm	rxbuf2,50,4
 878              		.global	active_rxbuf
 879              		.data
 880 0006 0000     		.align	2
 883              	active_rxbuf:
 884 0008 00000000 		.word	rxbuf1
 885              		.global	idle_rxbuf
 886              		.align	2
 889              	idle_rxbuf:
ARM GAS  /tmp/ccxwuSCA.s 			page 16


 890 000c 00000000 		.word	rxbuf2
 891              		.global	le
 892              		.align	2
 895              	le:
 896 0010 D6BE898E 		.word	-1903575338
 897 0014 7D6B     		.short	27517
 898 0016 7191     		.short	-28303
 899 0018 55555500 		.word	5592405
 900 001c AAAAAA00 		.word	11184810
 901 0020 01000000 		.word	1
 902 0024 00       		.byte	0
 903 0025 000000   		.space	3
 904 0028 00000000 		.word	0
 905 002c 00000000 		.space	32
 905      00000000 
 905      00000000 
 905      00000000 
 905      00000000 
 906 004c 00000000 		.word	0
 907 0050 00000000 		.word	0
 908              		.comm	le_promisc,264,4
 909              		.global	le_jam_count
 910              		.bss
 911 0016 0000     		.align	2
 914              	le_jam_count:
 915 0018 00000000 		.space	4
 916              		.global	data_cb
 917              		.align	2
 920              	data_cb:
 921 001c 00000000 		.space	4
 922              		.global	packet_cb
 923              		.align	2
 926              	packet_cb:
 927 0020 00000000 		.space	4
 928              		.global	rssi_iir
 929              		.align	2
 932              	rssi_iir:
 933 0024 00000000 		.space	158
 933      00000000 
 933      00000000 
 933      00000000 
 933      00000000 
 934              		.comm	unpacked,800,4
 935              		.global	mode
 938              	mode:
 939 00c2 00       		.space	1
 940              		.global	requested_mode
 943              	requested_mode:
 944 00c3 00       		.space	1
 945              		.global	jam_mode
 948              	jam_mode:
 949 00c4 00       		.space	1
 950              		.global	ego_mode
 953              	ego_mode:
 954 00c5 00       		.space	1
 955              		.global	modulation
 958              	modulation:
ARM GAS  /tmp/ccxwuSCA.s 			page 17


 959 00c6 00       		.space	1
 960              		.global	channel
 961              		.data
 962              		.align	1
 965              	channel:
 966 0054 6209     		.short	2402
 967              		.global	requested_channel
 968              		.bss
 969 00c7 00       		.align	1
 972              	requested_channel:
 973 00c8 0000     		.space	2
 974              		.global	saved_request
 975              		.align	1
 978              	saved_request:
 979 00ca 0000     		.space	2
 980              		.global	low_freq
 981              		.data
 982              		.align	1
 985              	low_freq:
 986 0056 6009     		.short	2400
 987              		.global	high_freq
 988              		.align	1
 991              	high_freq:
 992 0058 B309     		.short	2483
 993              		.global	rssi_threshold
 996              	rssi_threshold:
 997 005a E2       		.byte	-30
 998              		.comm	rx_dma_lli1,16,4
 999              		.comm	rx_dma_lli2,16,4
 1000              		.comm	le_dma_lli,176,4
 1001              		.comm	rx_tc,4,4
 1002              		.comm	rx_err,4,4
 1003              		.global	status
 1004              		.bss
 1007              	status:
 1008 00cc 00       		.space	1
 1009              		.comm	rssi_max,1,1
 1010              		.comm	rssi_min,1,1
 1011              		.global	rssi_count
 1014              	rssi_count:
 1015 00cd 00       		.space	1
 1016              		.global	rssi_sum
 1017 00ce 0000     		.align	2
 1020              	rssi_sum:
 1021 00d0 00000000 		.space	4
 1022              		.section	.text.rssi_reset,"ax",%progbits
 1023              		.align	2
 1024              		.thumb
 1025              		.thumb_func
 1027              	rssi_reset:
 1028              	.LFB0:
 1029              		.file 1 "bluetooth_rxtx.c"
   1:bluetooth_rxtx.c **** /*
   2:bluetooth_rxtx.c ****  * Copyright 2010-2013 Michael Ossmann
   3:bluetooth_rxtx.c ****  * Copyright 2011-2013 Dominic Spill
   4:bluetooth_rxtx.c ****  *
   5:bluetooth_rxtx.c ****  * This file is part of Project Ubertooth.
ARM GAS  /tmp/ccxwuSCA.s 			page 18


   6:bluetooth_rxtx.c ****  *
   7:bluetooth_rxtx.c ****  * This program is free software; you can redistribute it and/or modify
   8:bluetooth_rxtx.c ****  * it under the terms of the GNU General Public License as published by
   9:bluetooth_rxtx.c ****  * the Free Software Foundation; either version 2, or (at your option)
  10:bluetooth_rxtx.c ****  * any later version.
  11:bluetooth_rxtx.c ****  *
  12:bluetooth_rxtx.c ****  * This program is distributed in the hope that it will be useful,
  13:bluetooth_rxtx.c ****  * but WITHOUT ANY WARRANTY; without even the implied warranty of
  14:bluetooth_rxtx.c ****  * MERCHANTABILITY or FITNESS FOR A PARTICULAR PURPOSE.  See the
  15:bluetooth_rxtx.c ****  * GNU General Public License for more details.
  16:bluetooth_rxtx.c ****  *
  17:bluetooth_rxtx.c ****  * You should have received a copy of the GNU General Public License
  18:bluetooth_rxtx.c ****  * along with this program; see the file COPYING.  If not, write to
  19:bluetooth_rxtx.c ****  * the Free Software Foundation, Inc., 51 Franklin Street,
  20:bluetooth_rxtx.c ****  * Boston, MA 02110-1301, USA.
  21:bluetooth_rxtx.c ****  */
  22:bluetooth_rxtx.c **** 
  23:bluetooth_rxtx.c **** #include <string.h>
  24:bluetooth_rxtx.c **** 
  25:bluetooth_rxtx.c **** #include "ubertooth.h"
  26:bluetooth_rxtx.c **** #include "ubertooth_usb.h"
  27:bluetooth_rxtx.c **** #include "ubertooth_interface.h"
  28:bluetooth_rxtx.c **** #include "bluetooth.h"
  29:bluetooth_rxtx.c **** #include "bluetooth_le.h"
  30:bluetooth_rxtx.c **** #include "cc2400_rangetest.h"
  31:bluetooth_rxtx.c **** #include "ego.h"
  32:bluetooth_rxtx.c **** 
  33:bluetooth_rxtx.c **** #define MIN(x,y)	((x)<(y)?(x):(y))
  34:bluetooth_rxtx.c **** #define MAX(x,y)	((x)>(y)?(x):(y))
  35:bluetooth_rxtx.c **** 
  36:bluetooth_rxtx.c **** /* build info */
  37:bluetooth_rxtx.c **** const char compile_info[] =
  38:bluetooth_rxtx.c **** 	"ubertooth " GIT_REVISION " (" COMPILE_BY "@" COMPILE_HOST ") " TIMESTAMP;
  39:bluetooth_rxtx.c **** 
  40:bluetooth_rxtx.c **** /*
  41:bluetooth_rxtx.c ****  * CLK100NS is a free-running clock with a period of 100 ns.  It resets every
  42:bluetooth_rxtx.c ****  * 2^15 * 10^5 cycles (about 5.5 minutes) - computed from clkn and timer0 (T0TC)
  43:bluetooth_rxtx.c ****  *
  44:bluetooth_rxtx.c ****  * clkn is the native (local) clock as defined in the Bluetooth specification.
  45:bluetooth_rxtx.c ****  * It advances 3200 times per second.  Two clkn periods make a Bluetooth time
  46:bluetooth_rxtx.c ****  * slot.
  47:bluetooth_rxtx.c ****  */
  48:bluetooth_rxtx.c **** 
  49:bluetooth_rxtx.c **** u8 device_index;
  50:bluetooth_rxtx.c **** 
  51:bluetooth_rxtx.c **** 
  52:bluetooth_rxtx.c **** volatile u32 clkn;                       // clkn 3200 Hz counter
  53:bluetooth_rxtx.c **** #define CLK100NS (3125*(clkn & 0xfffff) + T0TC)
  54:bluetooth_rxtx.c **** #define LE_BASECLK (12500)               // 1.25 ms in units of 100ns
  55:bluetooth_rxtx.c **** 
  56:bluetooth_rxtx.c **** #define HOP_NONE      0
  57:bluetooth_rxtx.c **** #define HOP_SWEEP     1
  58:bluetooth_rxtx.c **** #define HOP_BLUETOOTH 2
  59:bluetooth_rxtx.c **** #define HOP_BTLE      3
  60:bluetooth_rxtx.c **** #define HOP_DIRECT    4
  61:bluetooth_rxtx.c **** 
  62:bluetooth_rxtx.c **** #define CS_THRESHOLD_DEFAULT (uint8_t)(-120)
ARM GAS  /tmp/ccxwuSCA.s 			page 19


  63:bluetooth_rxtx.c **** #define CS_HOLD_TIME  2                     // min pkts to send on trig (>=1)
  64:bluetooth_rxtx.c **** u8 hop_mode = HOP_NONE;
  65:bluetooth_rxtx.c **** volatile u8 do_hop = 0;                     // set by timer interrupt
  66:bluetooth_rxtx.c **** 
  67:bluetooth_rxtx.c **** u8 cs_no_squelch = 0;                       // rx all packets if set
  68:bluetooth_rxtx.c **** int8_t cs_threshold_req=CS_THRESHOLD_DEFAULT; // requested CS threshold in dBm
  69:bluetooth_rxtx.c **** int8_t cs_threshold_cur=CS_THRESHOLD_DEFAULT; // current CS threshold in dBm
  70:bluetooth_rxtx.c **** volatile u8 cs_trigger;                     // set by intr on P2.2 falling (CS)
  71:bluetooth_rxtx.c **** volatile u8 keepalive_trigger;              // set by timer 1/s
  72:bluetooth_rxtx.c **** volatile u32 cs_timestamp;                  // CLK100NS at time of cs_trigger
  73:bluetooth_rxtx.c **** u16 hop_direct_channel = 0;                 // for hopping directly to a channel
  74:bluetooth_rxtx.c **** int clock_trim = 0;                         // to counteract clock drift
  75:bluetooth_rxtx.c **** volatile u32 idle_buf_clkn_high;
  76:bluetooth_rxtx.c **** volatile u32 active_buf_clkn_high;
  77:bluetooth_rxtx.c **** volatile u32 idle_buf_clk100ns;
  78:bluetooth_rxtx.c **** volatile u32 active_buf_clk100ns;
  79:bluetooth_rxtx.c **** volatile u16 idle_buf_channel = 0;
  80:bluetooth_rxtx.c **** volatile u16 active_buf_channel = 0;
  81:bluetooth_rxtx.c **** u8 slave_mac_address[6] = { 0, };
  82:bluetooth_rxtx.c **** 
  83:bluetooth_rxtx.c **** /* DMA buffers */
  84:bluetooth_rxtx.c **** u8 rxbuf1[DMA_SIZE];
  85:bluetooth_rxtx.c **** u8 rxbuf2[DMA_SIZE];
  86:bluetooth_rxtx.c **** 
  87:bluetooth_rxtx.c **** /*
  88:bluetooth_rxtx.c ****  * The active buffer is the one with an active DMA transfer.
  89:bluetooth_rxtx.c ****  * The idle buffer is the one we can read/write between transfers.
  90:bluetooth_rxtx.c ****  */
  91:bluetooth_rxtx.c **** u8 *active_rxbuf = &rxbuf1[0];
  92:bluetooth_rxtx.c **** u8 *idle_rxbuf = &rxbuf2[0];
  93:bluetooth_rxtx.c **** 
  94:bluetooth_rxtx.c **** le_state_t le = {
  95:bluetooth_rxtx.c **** 	.access_address = 0x8e89bed6,           // advertising channel access address
  96:bluetooth_rxtx.c **** 	.synch = 0x6b7d,                        // bit-reversed adv channel AA
  97:bluetooth_rxtx.c **** 	.syncl = 0x9171,
  98:bluetooth_rxtx.c **** 	.crc_init  = 0x555555,                  // advertising channel CRCInit
  99:bluetooth_rxtx.c **** 	.crc_init_reversed = 0xAAAAAA,
 100:bluetooth_rxtx.c **** 	.crc_verify = 1,
 101:bluetooth_rxtx.c **** 
 102:bluetooth_rxtx.c **** 	.link_state = LINK_INACTIVE,
 103:bluetooth_rxtx.c **** 	.conn_epoch = 0,
 104:bluetooth_rxtx.c **** 	.target_set = 0,
 105:bluetooth_rxtx.c **** 	.last_packet = 0,
 106:bluetooth_rxtx.c **** };
 107:bluetooth_rxtx.c **** 
 108:bluetooth_rxtx.c **** typedef struct _le_promisc_active_aa_t {
 109:bluetooth_rxtx.c **** 	u32 aa;
 110:bluetooth_rxtx.c **** 	int count;
 111:bluetooth_rxtx.c **** } le_promisc_active_aa_t;
 112:bluetooth_rxtx.c **** 
 113:bluetooth_rxtx.c **** typedef struct _le_promisc_state_t {
 114:bluetooth_rxtx.c **** 	// LFU cache of recently seen AA's
 115:bluetooth_rxtx.c **** 	le_promisc_active_aa_t active_aa[32];
 116:bluetooth_rxtx.c **** 
 117:bluetooth_rxtx.c **** 	// recovering hop interval
 118:bluetooth_rxtx.c **** 	u32 smallest_hop_interval;
 119:bluetooth_rxtx.c **** 	int consec_intervals;
ARM GAS  /tmp/ccxwuSCA.s 			page 20


 120:bluetooth_rxtx.c **** } le_promisc_state_t;
 121:bluetooth_rxtx.c **** le_promisc_state_t le_promisc;
 122:bluetooth_rxtx.c **** #define AA_LIST_SIZE (int)(sizeof(le_promisc.active_aa) / sizeof(le_promisc_active_aa_t))
 123:bluetooth_rxtx.c **** 
 124:bluetooth_rxtx.c **** /* LE jamming */
 125:bluetooth_rxtx.c **** #define JAM_COUNT_DEFAULT 40
 126:bluetooth_rxtx.c **** int le_jam_count = 0;
 127:bluetooth_rxtx.c **** 
 128:bluetooth_rxtx.c **** /* set LE access address */
 129:bluetooth_rxtx.c **** static void le_set_access_address(u32 aa);
 130:bluetooth_rxtx.c **** 
 131:bluetooth_rxtx.c **** typedef int (*data_cb_t)(char *);
 132:bluetooth_rxtx.c **** data_cb_t data_cb = NULL;
 133:bluetooth_rxtx.c **** 
 134:bluetooth_rxtx.c **** typedef void (*packet_cb_t)(u8 *);
 135:bluetooth_rxtx.c **** packet_cb_t packet_cb = NULL;
 136:bluetooth_rxtx.c **** 
 137:bluetooth_rxtx.c **** /* Moving average (IIR) of average RSSI of packets as scaled integers (x256). */
 138:bluetooth_rxtx.c **** int16_t rssi_iir[79] = {0};
 139:bluetooth_rxtx.c **** #define RSSI_IIR_ALPHA 3       // 3/256 = .012
 140:bluetooth_rxtx.c **** 
 141:bluetooth_rxtx.c **** /*
 142:bluetooth_rxtx.c ****  * CLK_TUNE_TIME is the duration in units of 100 ns that we reserve for tuning
 143:bluetooth_rxtx.c ****  * the radio while frequency hopping.  We start the tuning process
 144:bluetooth_rxtx.c ****  * CLK_TUNE_TIME * 100 ns prior to the start of an upcoming time slot.
 145:bluetooth_rxtx.c **** */
 146:bluetooth_rxtx.c **** #define CLK_TUNE_TIME   2250
 147:bluetooth_rxtx.c **** 
 148:bluetooth_rxtx.c **** /* Unpacked symbol buffers (two rxbufs) */
 149:bluetooth_rxtx.c **** char unpacked[DMA_SIZE*8*2];
 150:bluetooth_rxtx.c **** 
 151:bluetooth_rxtx.c **** volatile u8 mode = MODE_IDLE;
 152:bluetooth_rxtx.c **** volatile u8 requested_mode = MODE_IDLE;
 153:bluetooth_rxtx.c **** volatile u8 jam_mode = JAM_NONE;
 154:bluetooth_rxtx.c **** volatile u8 ego_mode = 0;
 155:bluetooth_rxtx.c **** volatile u8 modulation = MOD_BT_BASIC_RATE;
 156:bluetooth_rxtx.c **** volatile u16 channel = 2402;
 157:bluetooth_rxtx.c **** volatile u16 requested_channel = 0;
 158:bluetooth_rxtx.c **** volatile u16 saved_request = 0;
 159:bluetooth_rxtx.c **** volatile u16 low_freq = 2400;
 160:bluetooth_rxtx.c **** volatile u16 high_freq = 2483;
 161:bluetooth_rxtx.c **** volatile int8_t rssi_threshold = -30;  // -54dBm - 30 = -84dBm
 162:bluetooth_rxtx.c **** 
 163:bluetooth_rxtx.c **** /* DMA linked list items */
 164:bluetooth_rxtx.c **** typedef struct {
 165:bluetooth_rxtx.c **** 	u32 src;
 166:bluetooth_rxtx.c **** 	u32 dest;
 167:bluetooth_rxtx.c **** 	u32 next_lli;
 168:bluetooth_rxtx.c **** 	u32 control;
 169:bluetooth_rxtx.c **** } dma_lli;
 170:bluetooth_rxtx.c **** 
 171:bluetooth_rxtx.c **** dma_lli rx_dma_lli1;
 172:bluetooth_rxtx.c **** dma_lli rx_dma_lli2;
 173:bluetooth_rxtx.c **** 
 174:bluetooth_rxtx.c **** dma_lli le_dma_lli[11]; // 11 x 4 bytes
 175:bluetooth_rxtx.c **** 
 176:bluetooth_rxtx.c **** /* rx terminal count and error interrupt counters */
ARM GAS  /tmp/ccxwuSCA.s 			page 21


 177:bluetooth_rxtx.c **** volatile u32 rx_tc;
 178:bluetooth_rxtx.c **** volatile u32 rx_err;
 179:bluetooth_rxtx.c **** 
 180:bluetooth_rxtx.c **** /* status information byte */
 181:bluetooth_rxtx.c **** volatile u8 status = 0;
 182:bluetooth_rxtx.c **** 
 183:bluetooth_rxtx.c **** #define DMA_OVERFLOW  0x01
 184:bluetooth_rxtx.c **** #define DMA_ERROR     0x02
 185:bluetooth_rxtx.c **** #define FIFO_OVERFLOW 0x04
 186:bluetooth_rxtx.c **** #define CS_TRIGGER    0x08
 187:bluetooth_rxtx.c **** #define RSSI_TRIGGER  0x10
 188:bluetooth_rxtx.c **** 
 189:bluetooth_rxtx.c **** /*
 190:bluetooth_rxtx.c ****  * RSSI
 191:bluetooth_rxtx.c ****  */
 192:bluetooth_rxtx.c **** int8_t rssi_max;
 193:bluetooth_rxtx.c **** int8_t rssi_min;
 194:bluetooth_rxtx.c **** uint8_t rssi_count = 0;
 195:bluetooth_rxtx.c **** int32_t rssi_sum = 0;
 196:bluetooth_rxtx.c **** 
 197:bluetooth_rxtx.c **** static void rssi_reset(void)
 198:bluetooth_rxtx.c **** {
 1030              		.loc 1 198 0
 1031              		.cfi_startproc
 1032              		@ args = 0, pretend = 0, frame = 0
 1033              		@ frame_needed = 1, uses_anonymous_args = 0
 1034              		@ link register save eliminated.
 1035 0000 80B4     		push	{r7}
 1036              		.cfi_def_cfa_offset 4
 1037              		.cfi_offset 7, -4
 1038 0002 00AF     		add	r7, sp, #0
 1039              		.cfi_def_cfa_register 7
 199:bluetooth_rxtx.c **** 	rssi_count = 0;
 1040              		.loc 1 199 0
 1041 0004 074B     		ldr	r3, .L2
 1042 0006 0022     		movs	r2, #0
 1043 0008 1A70     		strb	r2, [r3]
 200:bluetooth_rxtx.c **** 	rssi_sum = 0;
 1044              		.loc 1 200 0
 1045 000a 074B     		ldr	r3, .L2+4
 1046 000c 0022     		movs	r2, #0
 1047 000e 1A60     		str	r2, [r3]
 201:bluetooth_rxtx.c **** 	rssi_max = INT8_MIN;
 1048              		.loc 1 201 0
 1049 0010 064B     		ldr	r3, .L2+8
 1050 0012 8022     		movs	r2, #128
 1051 0014 1A70     		strb	r2, [r3]
 202:bluetooth_rxtx.c **** 	rssi_min = INT8_MAX;
 1052              		.loc 1 202 0
 1053 0016 064B     		ldr	r3, .L2+12
 1054 0018 7F22     		movs	r2, #127
 1055 001a 1A70     		strb	r2, [r3]
 203:bluetooth_rxtx.c **** }
 1056              		.loc 1 203 0
 1057 001c BD46     		mov	sp, r7
 1058              		.cfi_def_cfa_register 13
 1059              		@ sp needed
ARM GAS  /tmp/ccxwuSCA.s 			page 22


 1060 001e 5DF8047B 		ldr	r7, [sp], #4
 1061              		.cfi_restore 7
 1062              		.cfi_def_cfa_offset 0
 1063 0022 7047     		bx	lr
 1064              	.L3:
 1065              		.align	2
 1066              	.L2:
 1067 0024 00000000 		.word	rssi_count
 1068 0028 00000000 		.word	rssi_sum
 1069 002c 00000000 		.word	rssi_max
 1070 0030 00000000 		.word	rssi_min
 1071              		.cfi_endproc
 1072              	.LFE0:
 1074              		.section	.text.rssi_add,"ax",%progbits
 1075              		.align	2
 1076              		.thumb
 1077              		.thumb_func
 1079              	rssi_add:
 1080              	.LFB1:
 204:bluetooth_rxtx.c **** 
 205:bluetooth_rxtx.c **** static void rssi_add(int8_t v)
 206:bluetooth_rxtx.c **** {
 1081              		.loc 1 206 0
 1082              		.cfi_startproc
 1083              		@ args = 0, pretend = 0, frame = 8
 1084              		@ frame_needed = 1, uses_anonymous_args = 0
 1085              		@ link register save eliminated.
 1086 0000 80B4     		push	{r7}
 1087              		.cfi_def_cfa_offset 4
 1088              		.cfi_offset 7, -4
 1089 0002 83B0     		sub	sp, sp, #12
 1090              		.cfi_def_cfa_offset 16
 1091 0004 00AF     		add	r7, sp, #0
 1092              		.cfi_def_cfa_register 7
 1093 0006 0346     		mov	r3, r0
 1094 0008 FB71     		strb	r3, [r7, #7]
 207:bluetooth_rxtx.c **** 	rssi_max = (v > rssi_max) ? v : rssi_max;
 1095              		.loc 1 207 0
 1096 000a 144B     		ldr	r3, .L5
 1097 000c 1B78     		ldrb	r3, [r3]	@ zero_extendqisi2
 1098 000e 5AB2     		sxtb	r2, r3
 1099 0010 97F90730 		ldrsb	r3, [r7, #7]
 1100 0014 9342     		cmp	r3, r2
 1101 0016 B8BF     		it	lt
 1102 0018 1346     		movlt	r3, r2
 1103 001a DAB2     		uxtb	r2, r3
 1104 001c 0F4B     		ldr	r3, .L5
 1105 001e 1A70     		strb	r2, [r3]
 208:bluetooth_rxtx.c **** 	rssi_min = (v < rssi_min) ? v : rssi_min;
 1106              		.loc 1 208 0
 1107 0020 0F4B     		ldr	r3, .L5+4
 1108 0022 1B78     		ldrb	r3, [r3]	@ zero_extendqisi2
 1109 0024 5AB2     		sxtb	r2, r3
 1110 0026 97F90730 		ldrsb	r3, [r7, #7]
 1111 002a 9342     		cmp	r3, r2
 1112 002c A8BF     		it	ge
 1113 002e 1346     		movge	r3, r2
ARM GAS  /tmp/ccxwuSCA.s 			page 23


 1114 0030 DAB2     		uxtb	r2, r3
 1115 0032 0B4B     		ldr	r3, .L5+4
 1116 0034 1A70     		strb	r2, [r3]
 209:bluetooth_rxtx.c **** 	rssi_sum += ((int32_t)v * 256);  // scaled int math (x256)
 1117              		.loc 1 209 0
 1118 0036 97F90730 		ldrsb	r3, [r7, #7]
 1119 003a 1A02     		lsls	r2, r3, #8
 1120 003c 094B     		ldr	r3, .L5+8
 1121 003e 1B68     		ldr	r3, [r3]
 1122 0040 1344     		add	r3, r3, r2
 1123 0042 084A     		ldr	r2, .L5+8
 1124 0044 1360     		str	r3, [r2]
 210:bluetooth_rxtx.c **** 	rssi_count += 1;
 1125              		.loc 1 210 0
 1126 0046 084B     		ldr	r3, .L5+12
 1127 0048 1B78     		ldrb	r3, [r3]	@ zero_extendqisi2
 1128 004a 0133     		adds	r3, r3, #1
 1129 004c DAB2     		uxtb	r2, r3
 1130 004e 064B     		ldr	r3, .L5+12
 1131 0050 1A70     		strb	r2, [r3]
 211:bluetooth_rxtx.c **** }
 1132              		.loc 1 211 0
 1133 0052 0C37     		adds	r7, r7, #12
 1134              		.cfi_def_cfa_offset 4
 1135 0054 BD46     		mov	sp, r7
 1136              		.cfi_def_cfa_register 13
 1137              		@ sp needed
 1138 0056 5DF8047B 		ldr	r7, [sp], #4
 1139              		.cfi_restore 7
 1140              		.cfi_def_cfa_offset 0
 1141 005a 7047     		bx	lr
 1142              	.L6:
 1143              		.align	2
 1144              	.L5:
 1145 005c 00000000 		.word	rssi_max
 1146 0060 00000000 		.word	rssi_min
 1147 0064 00000000 		.word	rssi_sum
 1148 0068 00000000 		.word	rssi_count
 1149              		.cfi_endproc
 1150              	.LFE1:
 1152              		.section	.text.rssi_iir_update,"ax",%progbits
 1153              		.align	2
 1154              		.thumb
 1155              		.thumb_func
 1157              	rssi_iir_update:
 1158              	.LFB2:
 212:bluetooth_rxtx.c **** 
 213:bluetooth_rxtx.c **** /* For sweep mode, update IIR per channel. Otherwise, use single value. */
 214:bluetooth_rxtx.c **** static void rssi_iir_update(void)
 215:bluetooth_rxtx.c **** {
 1159              		.loc 1 215 0
 1160              		.cfi_startproc
 1161              		@ args = 0, pretend = 0, frame = 16
 1162              		@ frame_needed = 1, uses_anonymous_args = 0
 1163              		@ link register save eliminated.
 1164 0000 80B4     		push	{r7}
 1165              		.cfi_def_cfa_offset 4
ARM GAS  /tmp/ccxwuSCA.s 			page 24


 1166              		.cfi_offset 7, -4
 1167 0002 85B0     		sub	sp, sp, #20
 1168              		.cfi_def_cfa_offset 24
 1169 0004 00AF     		add	r7, sp, #0
 1170              		.cfi_def_cfa_register 7
 216:bluetooth_rxtx.c **** 	int i;
 217:bluetooth_rxtx.c **** 	int32_t avg;
 218:bluetooth_rxtx.c **** 	int32_t rssi_iir_acc;
 219:bluetooth_rxtx.c **** 
 220:bluetooth_rxtx.c **** 	/* Use array to track 79 Bluetooth channels, or just first
 221:bluetooth_rxtx.c **** 	 * slot of array if not sweeping. */
 222:bluetooth_rxtx.c **** 	if (hop_mode > 0)
 1171              		.loc 1 222 0
 1172 0006 1F4B     		ldr	r3, .L13
 1173 0008 1B78     		ldrb	r3, [r3]	@ zero_extendqisi2
 1174 000a 002B     		cmp	r3, #0
 1175 000c 06D0     		beq	.L8
 223:bluetooth_rxtx.c **** 		i = channel - 2402;
 1176              		.loc 1 223 0
 1177 000e 1E4B     		ldr	r3, .L13+4
 1178 0010 1B88     		ldrh	r3, [r3]	@ movhi
 1179 0012 9BB2     		uxth	r3, r3
 1180 0014 A3F66213 		subw	r3, r3, #2402
 1181 0018 FB60     		str	r3, [r7, #12]
 1182 001a 01E0     		b	.L9
 1183              	.L8:
 224:bluetooth_rxtx.c **** 	else
 225:bluetooth_rxtx.c **** 		i = 0;
 1184              		.loc 1 225 0
 1185 001c 0023     		movs	r3, #0
 1186 001e FB60     		str	r3, [r7, #12]
 1187              	.L9:
 226:bluetooth_rxtx.c **** 
 227:bluetooth_rxtx.c **** 	// IIR using scaled int math (x256)
 228:bluetooth_rxtx.c **** 	if (rssi_count != 0)
 1188              		.loc 1 228 0
 1189 0020 1A4B     		ldr	r3, .L13+8
 1190 0022 1B78     		ldrb	r3, [r3]	@ zero_extendqisi2
 1191 0024 002B     		cmp	r3, #0
 1192 0026 08D0     		beq	.L10
 229:bluetooth_rxtx.c **** 		avg = (rssi_sum  + 128) / rssi_count;
 1193              		.loc 1 229 0
 1194 0028 194B     		ldr	r3, .L13+12
 1195 002a 1B68     		ldr	r3, [r3]
 1196 002c 8033     		adds	r3, r3, #128
 1197 002e 174A     		ldr	r2, .L13+8
 1198 0030 1278     		ldrb	r2, [r2]	@ zero_extendqisi2
 1199 0032 93FBF2F3 		sdiv	r3, r3, r2
 1200 0036 BB60     		str	r3, [r7, #8]
 1201 0038 01E0     		b	.L11
 1202              	.L10:
 230:bluetooth_rxtx.c **** 	else
 231:bluetooth_rxtx.c **** 		avg = 0; // really an error
 1203              		.loc 1 231 0
 1204 003a 0023     		movs	r3, #0
 1205 003c BB60     		str	r3, [r7, #8]
 1206              	.L11:
ARM GAS  /tmp/ccxwuSCA.s 			page 25


 232:bluetooth_rxtx.c **** 	rssi_iir_acc = rssi_iir[i] * (256-RSSI_IIR_ALPHA);
 1207              		.loc 1 232 0
 1208 003e 154A     		ldr	r2, .L13+16
 1209 0040 FB68     		ldr	r3, [r7, #12]
 1210 0042 32F81330 		ldrh	r3, [r2, r3, lsl #1]
 1211 0046 1AB2     		sxth	r2, r3
 1212 0048 1346     		mov	r3, r2
 1213 004a 9B01     		lsls	r3, r3, #6
 1214 004c 9B1A     		subs	r3, r3, r2
 1215 004e 9B00     		lsls	r3, r3, #2
 1216 0050 1344     		add	r3, r3, r2
 1217 0052 7B60     		str	r3, [r7, #4]
 233:bluetooth_rxtx.c **** 	rssi_iir_acc += avg * RSSI_IIR_ALPHA;
 1218              		.loc 1 233 0
 1219 0054 BA68     		ldr	r2, [r7, #8]
 1220 0056 1346     		mov	r3, r2
 1221 0058 5B00     		lsls	r3, r3, #1
 1222 005a 1344     		add	r3, r3, r2
 1223 005c 7A68     		ldr	r2, [r7, #4]
 1224 005e 1344     		add	r3, r3, r2
 1225 0060 7B60     		str	r3, [r7, #4]
 234:bluetooth_rxtx.c **** 	rssi_iir[i] = (int16_t)((rssi_iir_acc + 128) / 256);
 1226              		.loc 1 234 0
 1227 0062 7B68     		ldr	r3, [r7, #4]
 1228 0064 8033     		adds	r3, r3, #128
 1229 0066 002B     		cmp	r3, #0
 1230 0068 00DA     		bge	.L12
 1231 006a FF33     		adds	r3, r3, #255
 1232              	.L12:
 1233 006c 1B12     		asrs	r3, r3, #8
 1234 006e 99B2     		uxth	r1, r3
 1235 0070 084A     		ldr	r2, .L13+16
 1236 0072 FB68     		ldr	r3, [r7, #12]
 1237 0074 22F81310 		strh	r1, [r2, r3, lsl #1]	@ movhi
 235:bluetooth_rxtx.c **** }
 1238              		.loc 1 235 0
 1239 0078 1437     		adds	r7, r7, #20
 1240              		.cfi_def_cfa_offset 4
 1241 007a BD46     		mov	sp, r7
 1242              		.cfi_def_cfa_register 13
 1243              		@ sp needed
 1244 007c 5DF8047B 		ldr	r7, [sp], #4
 1245              		.cfi_restore 7
 1246              		.cfi_def_cfa_offset 0
 1247 0080 7047     		bx	lr
 1248              	.L14:
 1249 0082 00BF     		.align	2
 1250              	.L13:
 1251 0084 00000000 		.word	hop_mode
 1252 0088 00000000 		.word	channel
 1253 008c 00000000 		.word	rssi_count
 1254 0090 00000000 		.word	rssi_sum
 1255 0094 00000000 		.word	rssi_iir
 1256              		.cfi_endproc
 1257              	.LFE2:
 1259              		.section	.text.cs_threshold_set,"ax",%progbits
 1260              		.align	2
ARM GAS  /tmp/ccxwuSCA.s 			page 26


 1261              		.thumb
 1262              		.thumb_func
 1264              	cs_threshold_set:
 1265              	.LFB3:
 236:bluetooth_rxtx.c **** 
 237:bluetooth_rxtx.c **** #define CS_SAMPLES_1 1
 238:bluetooth_rxtx.c **** #define CS_SAMPLES_2 2
 239:bluetooth_rxtx.c **** #define CS_SAMPLES_4 3
 240:bluetooth_rxtx.c **** #define CS_SAMPLES_8 4
 241:bluetooth_rxtx.c **** /* Set CC2400 carrier sense threshold and store value to
 242:bluetooth_rxtx.c ****  * global. CC2400 RSSI is determined by 54dBm + level. CS threshold is
 243:bluetooth_rxtx.c ****  * in 4dBm steps, so the provided level is rounded to the nearest
 244:bluetooth_rxtx.c ****  * multiple of 4 by adding 56. Useful range is -100 to -20. */
 245:bluetooth_rxtx.c **** static void cs_threshold_set(int8_t level, u8 samples)
 246:bluetooth_rxtx.c **** {
 1266              		.loc 1 246 0
 1267              		.cfi_startproc
 1268              		@ args = 0, pretend = 0, frame = 8
 1269              		@ frame_needed = 1, uses_anonymous_args = 0
 1270 0000 80B5     		push	{r7, lr}
 1271              		.cfi_def_cfa_offset 8
 1272              		.cfi_offset 7, -8
 1273              		.cfi_offset 14, -4
 1274 0002 82B0     		sub	sp, sp, #8
 1275              		.cfi_def_cfa_offset 16
 1276 0004 00AF     		add	r7, sp, #0
 1277              		.cfi_def_cfa_register 7
 1278 0006 0346     		mov	r3, r0
 1279 0008 0A46     		mov	r2, r1
 1280 000a FB71     		strb	r3, [r7, #7]
 1281 000c 1346     		mov	r3, r2
 1282 000e BB71     		strb	r3, [r7, #6]
 247:bluetooth_rxtx.c **** 	level = MIN(MAX(level,-120),(-20));
 1283              		.loc 1 247 0
 1284 0010 97F90730 		ldrsb	r3, [r7, #7]
 1285 0014 13F1140F 		cmn	r3, #20
 1286 0018 0DD0     		beq	.L16
 1287              		.loc 1 247 0 is_stmt 0 discriminator 1
 1288 001a 97F90730 		ldrsb	r3, [r7, #7]
 1289 001e 13F1130F 		cmn	r3, #19
 1290 0022 08DA     		bge	.L16
 1291              		.loc 1 247 0 discriminator 3
 1292 0024 97F90730 		ldrsb	r3, [r7, #7]
 1293 0028 6FF07702 		mvn	r2, #119
 1294 002c 9342     		cmp	r3, r2
 1295 002e B8BF     		it	lt
 1296 0030 1346     		movlt	r3, r2
 1297 0032 DBB2     		uxtb	r3, r3
 1298 0034 00E0     		b	.L17
 1299              	.L16:
 1300              		.loc 1 247 0 discriminator 4
 1301 0036 EC23     		movs	r3, #236
 1302              	.L17:
 1303              		.loc 1 247 0 discriminator 6
 1304 0038 FB71     		strb	r3, [r7, #7]
 248:bluetooth_rxtx.c **** 	cc2400_set(RSSI, (uint8_t)((level + 56) & (0x3f << 2)) | (samples&3));
 1305              		.loc 1 248 0 is_stmt 1 discriminator 6
ARM GAS  /tmp/ccxwuSCA.s 			page 27


 1306 003a FB79     		ldrb	r3, [r7, #7]	@ zero_extendqisi2
 1307 003c 3833     		adds	r3, r3, #56
 1308 003e DBB2     		uxtb	r3, r3
 1309 0040 9BB2     		uxth	r3, r3
 1310 0042 03F0FC03 		and	r3, r3, #252
 1311 0046 9AB2     		uxth	r2, r3
 1312 0048 BB79     		ldrb	r3, [r7, #6]	@ zero_extendqisi2
 1313 004a 9BB2     		uxth	r3, r3
 1314 004c 03F00303 		and	r3, r3, #3
 1315 0050 9BB2     		uxth	r3, r3
 1316 0052 1343     		orrs	r3, r3, r2
 1317 0054 9BB2     		uxth	r3, r3
 1318 0056 9BB2     		uxth	r3, r3
 1319 0058 0620     		movs	r0, #6
 1320 005a 1946     		mov	r1, r3
 1321 005c FFF7FEFF 		bl	cc2400_set
 249:bluetooth_rxtx.c **** 	cs_threshold_cur = level;
 1322              		.loc 1 249 0 discriminator 6
 1323 0060 084A     		ldr	r2, .L18
 1324 0062 FB79     		ldrb	r3, [r7, #7]
 1325 0064 1370     		strb	r3, [r2]
 250:bluetooth_rxtx.c **** 	cs_no_squelch = (level <= -120);
 1326              		.loc 1 250 0 discriminator 6
 1327 0066 97F90730 		ldrsb	r3, [r7, #7]
 1328 006a 13F1770F 		cmn	r3, #119
 1329 006e B4BF     		ite	lt
 1330 0070 0123     		movlt	r3, #1
 1331 0072 0023     		movge	r3, #0
 1332 0074 DBB2     		uxtb	r3, r3
 1333 0076 1A46     		mov	r2, r3
 1334 0078 034B     		ldr	r3, .L18+4
 1335 007a 1A70     		strb	r2, [r3]
 251:bluetooth_rxtx.c **** }
 1336              		.loc 1 251 0 discriminator 6
 1337 007c 0837     		adds	r7, r7, #8
 1338              		.cfi_def_cfa_offset 8
 1339 007e BD46     		mov	sp, r7
 1340              		.cfi_def_cfa_register 13
 1341              		@ sp needed
 1342 0080 80BD     		pop	{r7, pc}
 1343              	.L19:
 1344 0082 00BF     		.align	2
 1345              	.L18:
 1346 0084 00000000 		.word	cs_threshold_cur
 1347 0088 00000000 		.word	cs_no_squelch
 1348              		.cfi_endproc
 1349              	.LFE3:
 1351              		.section	.text.enqueue,"ax",%progbits
 1352              		.align	2
 1353              		.thumb
 1354              		.thumb_func
 1356              	enqueue:
 1357              	.LFB4:
 252:bluetooth_rxtx.c **** 
 253:bluetooth_rxtx.c **** static int enqueue(u8 type, u8 *buf)
 254:bluetooth_rxtx.c **** {
 1358              		.loc 1 254 0
ARM GAS  /tmp/ccxwuSCA.s 			page 28


 1359              		.cfi_startproc
 1360              		@ args = 0, pretend = 0, frame = 32
 1361              		@ frame_needed = 1, uses_anonymous_args = 0
 1362 0000 80B5     		push	{r7, lr}
 1363              		.cfi_def_cfa_offset 8
 1364              		.cfi_offset 7, -8
 1365              		.cfi_offset 14, -4
 1366 0002 88B0     		sub	sp, sp, #32
 1367              		.cfi_def_cfa_offset 40
 1368 0004 00AF     		add	r7, sp, #0
 1369              		.cfi_def_cfa_register 7
 1370 0006 0346     		mov	r3, r0
 1371 0008 3960     		str	r1, [r7]
 1372 000a FB71     		strb	r3, [r7, #7]
 255:bluetooth_rxtx.c **** 	usb_pkt_rx *f = usb_enqueue();
 1373              		.loc 1 255 0
 1374 000c FFF7FEFF 		bl	usb_enqueue
 1375 0010 F861     		str	r0, [r7, #28]
 256:bluetooth_rxtx.c **** 
 257:bluetooth_rxtx.c **** 	/* fail if queue is full */
 258:bluetooth_rxtx.c **** 	if (f == NULL) {
 1376              		.loc 1 258 0
 1377 0012 FB69     		ldr	r3, [r7, #28]
 1378 0014 002B     		cmp	r3, #0
 1379 0016 09D1     		bne	.L21
 259:bluetooth_rxtx.c **** 		status |= FIFO_OVERFLOW;
 1380              		.loc 1 259 0
 1381 0018 4E4B     		ldr	r3, .L25
 1382 001a 1B78     		ldrb	r3, [r3]
 1383 001c DBB2     		uxtb	r3, r3
 1384 001e 43F00403 		orr	r3, r3, #4
 1385 0022 DAB2     		uxtb	r2, r3
 1386 0024 4B4B     		ldr	r3, .L25
 1387 0026 1A70     		strb	r2, [r3]
 260:bluetooth_rxtx.c **** 		return 0;
 1388              		.loc 1 260 0
 1389 0028 0023     		movs	r3, #0
 1390 002a 8EE0     		b	.L22
 1391              	.L21:
 261:bluetooth_rxtx.c **** 	}
 262:bluetooth_rxtx.c **** 
 263:bluetooth_rxtx.c **** 	f->pkt_type = type;
 1392              		.loc 1 263 0
 1393 002c FB69     		ldr	r3, [r7, #28]
 1394 002e FA79     		ldrb	r2, [r7, #7]
 1395 0030 1A70     		strb	r2, [r3]
 264:bluetooth_rxtx.c **** 	if(type == SPECAN) {
 1396              		.loc 1 264 0
 1397 0032 FB79     		ldrb	r3, [r7, #7]	@ zero_extendqisi2
 1398 0034 042B     		cmp	r3, #4
 1399 0036 13D1     		bne	.L23
 265:bluetooth_rxtx.c **** 		f->clkn_high = (clkn >> 20) & 0xff;
 1400              		.loc 1 265 0
 1401 0038 474B     		ldr	r3, .L25+4
 1402 003a 1B68     		ldr	r3, [r3]
 1403 003c 1B0D     		lsrs	r3, r3, #20
 1404 003e DAB2     		uxtb	r2, r3
ARM GAS  /tmp/ccxwuSCA.s 			page 29


 1405 0040 FB69     		ldr	r3, [r7, #28]
 1406 0042 DA70     		strb	r2, [r3, #3]
 266:bluetooth_rxtx.c **** 		f->clk100ns = CLK100NS;
 1407              		.loc 1 266 0
 1408 0044 444B     		ldr	r3, .L25+4
 1409 0046 1B68     		ldr	r3, [r3]
 1410 0048 C3F31303 		ubfx	r3, r3, #0, #20
 1411 004c 40F63542 		movw	r2, #3125
 1412 0050 02FB03F2 		mul	r2, r2, r3
 1413 0054 414B     		ldr	r3, .L25+8
 1414 0056 1B68     		ldr	r3, [r3]
 1415 0058 1A44     		add	r2, r2, r3
 1416 005a FB69     		ldr	r3, [r7, #28]
 1417 005c 5A60     		str	r2, [r3, #4]
 1418 005e 08E0     		b	.L24
 1419              	.L23:
 267:bluetooth_rxtx.c **** 	} else {
 268:bluetooth_rxtx.c **** 		f->clkn_high = idle_buf_clkn_high;
 1420              		.loc 1 268 0
 1421 0060 3F4B     		ldr	r3, .L25+12
 1422 0062 1B68     		ldr	r3, [r3]
 1423 0064 DAB2     		uxtb	r2, r3
 1424 0066 FB69     		ldr	r3, [r7, #28]
 1425 0068 DA70     		strb	r2, [r3, #3]
 269:bluetooth_rxtx.c **** 		f->clk100ns = idle_buf_clk100ns;
 1426              		.loc 1 269 0
 1427 006a 3E4B     		ldr	r3, .L25+16
 1428 006c 1A68     		ldr	r2, [r3]
 1429 006e FB69     		ldr	r3, [r7, #28]
 1430 0070 5A60     		str	r2, [r3, #4]
 1431              	.L24:
 270:bluetooth_rxtx.c **** 	}
 271:bluetooth_rxtx.c **** 	f->channel = idle_buf_channel - 2402;
 1432              		.loc 1 271 0
 1433 0072 3D4B     		ldr	r3, .L25+20
 1434 0074 1B88     		ldrh	r3, [r3]	@ movhi
 1435 0076 9BB2     		uxth	r3, r3
 1436 0078 DBB2     		uxtb	r3, r3
 1437 007a 623B     		subs	r3, r3, #98
 1438 007c DAB2     		uxtb	r2, r3
 1439 007e FB69     		ldr	r3, [r7, #28]
 1440 0080 9A70     		strb	r2, [r3, #2]
 272:bluetooth_rxtx.c **** 	f->rssi_min = rssi_min;
 1441              		.loc 1 272 0
 1442 0082 3A4B     		ldr	r3, .L25+24
 1443 0084 1B78     		ldrb	r3, [r3]	@ zero_extendqisi2
 1444 0086 DAB2     		uxtb	r2, r3
 1445 0088 FB69     		ldr	r3, [r7, #28]
 1446 008a 5A72     		strb	r2, [r3, #9]
 273:bluetooth_rxtx.c **** 	f->rssi_max = rssi_max;
 1447              		.loc 1 273 0
 1448 008c 384B     		ldr	r3, .L25+28
 1449 008e 1B78     		ldrb	r3, [r3]	@ zero_extendqisi2
 1450 0090 DAB2     		uxtb	r2, r3
 1451 0092 FB69     		ldr	r3, [r7, #28]
 1452 0094 1A72     		strb	r2, [r3, #8]
 274:bluetooth_rxtx.c **** 	f->reserved[0] = device_index;
ARM GAS  /tmp/ccxwuSCA.s 			page 30


 1453              		.loc 1 274 0
 1454 0096 374B     		ldr	r3, .L25+32
 1455 0098 1A78     		ldrb	r2, [r3]	@ zero_extendqisi2
 1456 009a FB69     		ldr	r3, [r7, #28]
 1457 009c 1A73     		strb	r2, [r3, #12]
 275:bluetooth_rxtx.c **** //	f->rssi_avg = device_index;
 276:bluetooth_rxtx.c **** 	
 277:bluetooth_rxtx.c **** //	f->rssi_count = device_index;
 278:bluetooth_rxtx.c **** 
 279:bluetooth_rxtx.c **** 	USRLED_SET;
 1458              		.loc 1 279 0
 1459 009e 364B     		ldr	r3, .L25+36
 1460 00a0 0222     		movs	r2, #2
 1461 00a2 1A60     		str	r2, [r3]
 280:bluetooth_rxtx.c **** 
 281:bluetooth_rxtx.c **** 	// Unrolled copy of 50 bytes from buf to fifo
 282:bluetooth_rxtx.c **** 	u32 *p1 = (u32 *)f->data;
 1462              		.loc 1 282 0
 1463 00a4 FB69     		ldr	r3, [r7, #28]
 1464 00a6 0E33     		adds	r3, r3, #14
 1465 00a8 BB61     		str	r3, [r7, #24]
 283:bluetooth_rxtx.c **** 	u32 *p2 = (u32 *)buf;
 1466              		.loc 1 283 0
 1467 00aa 3B68     		ldr	r3, [r7]
 1468 00ac 7B61     		str	r3, [r7, #20]
 284:bluetooth_rxtx.c **** 	p1[0] = p2[0];
 1469              		.loc 1 284 0
 1470 00ae 7B69     		ldr	r3, [r7, #20]
 1471 00b0 1A68     		ldr	r2, [r3]
 1472 00b2 BB69     		ldr	r3, [r7, #24]
 1473 00b4 1A60     		str	r2, [r3]
 285:bluetooth_rxtx.c **** 	p1[1] = p2[1];
 1474              		.loc 1 285 0
 1475 00b6 BB69     		ldr	r3, [r7, #24]
 1476 00b8 0433     		adds	r3, r3, #4
 1477 00ba 7A69     		ldr	r2, [r7, #20]
 1478 00bc 5268     		ldr	r2, [r2, #4]
 1479 00be 1A60     		str	r2, [r3]
 286:bluetooth_rxtx.c **** 	p1[2] = p2[2];
 1480              		.loc 1 286 0
 1481 00c0 BB69     		ldr	r3, [r7, #24]
 1482 00c2 0833     		adds	r3, r3, #8
 1483 00c4 7A69     		ldr	r2, [r7, #20]
 1484 00c6 9268     		ldr	r2, [r2, #8]
 1485 00c8 1A60     		str	r2, [r3]
 287:bluetooth_rxtx.c **** 	p1[3] = p2[3];
 1486              		.loc 1 287 0
 1487 00ca BB69     		ldr	r3, [r7, #24]
 1488 00cc 0C33     		adds	r3, r3, #12
 1489 00ce 7A69     		ldr	r2, [r7, #20]
 1490 00d0 D268     		ldr	r2, [r2, #12]
 1491 00d2 1A60     		str	r2, [r3]
 288:bluetooth_rxtx.c **** 	p1[4] = p2[4];
 1492              		.loc 1 288 0
 1493 00d4 BB69     		ldr	r3, [r7, #24]
 1494 00d6 1033     		adds	r3, r3, #16
 1495 00d8 7A69     		ldr	r2, [r7, #20]
ARM GAS  /tmp/ccxwuSCA.s 			page 31


 1496 00da 1269     		ldr	r2, [r2, #16]
 1497 00dc 1A60     		str	r2, [r3]
 289:bluetooth_rxtx.c **** 	p1[5] = p2[5];
 1498              		.loc 1 289 0
 1499 00de BB69     		ldr	r3, [r7, #24]
 1500 00e0 1433     		adds	r3, r3, #20
 1501 00e2 7A69     		ldr	r2, [r7, #20]
 1502 00e4 5269     		ldr	r2, [r2, #20]
 1503 00e6 1A60     		str	r2, [r3]
 290:bluetooth_rxtx.c **** 	p1[6] = p2[6];
 1504              		.loc 1 290 0
 1505 00e8 BB69     		ldr	r3, [r7, #24]
 1506 00ea 1833     		adds	r3, r3, #24
 1507 00ec 7A69     		ldr	r2, [r7, #20]
 1508 00ee 9269     		ldr	r2, [r2, #24]
 1509 00f0 1A60     		str	r2, [r3]
 291:bluetooth_rxtx.c **** 	p1[7] = p2[7];
 1510              		.loc 1 291 0
 1511 00f2 BB69     		ldr	r3, [r7, #24]
 1512 00f4 1C33     		adds	r3, r3, #28
 1513 00f6 7A69     		ldr	r2, [r7, #20]
 1514 00f8 D269     		ldr	r2, [r2, #28]
 1515 00fa 1A60     		str	r2, [r3]
 292:bluetooth_rxtx.c **** 	p1[8] = p2[8];
 1516              		.loc 1 292 0
 1517 00fc BB69     		ldr	r3, [r7, #24]
 1518 00fe 2033     		adds	r3, r3, #32
 1519 0100 7A69     		ldr	r2, [r7, #20]
 1520 0102 126A     		ldr	r2, [r2, #32]
 1521 0104 1A60     		str	r2, [r3]
 293:bluetooth_rxtx.c **** 	p1[9] = p2[9];
 1522              		.loc 1 293 0
 1523 0106 BB69     		ldr	r3, [r7, #24]
 1524 0108 2433     		adds	r3, r3, #36
 1525 010a 7A69     		ldr	r2, [r7, #20]
 1526 010c 526A     		ldr	r2, [r2, #36]
 1527 010e 1A60     		str	r2, [r3]
 294:bluetooth_rxtx.c **** 	p1[10] = p2[10];
 1528              		.loc 1 294 0
 1529 0110 BB69     		ldr	r3, [r7, #24]
 1530 0112 2833     		adds	r3, r3, #40
 1531 0114 7A69     		ldr	r2, [r7, #20]
 1532 0116 926A     		ldr	r2, [r2, #40]
 1533 0118 1A60     		str	r2, [r3]
 295:bluetooth_rxtx.c **** 	p1[11] = p2[11];
 1534              		.loc 1 295 0
 1535 011a BB69     		ldr	r3, [r7, #24]
 1536 011c 2C33     		adds	r3, r3, #44
 1537 011e 7A69     		ldr	r2, [r7, #20]
 1538 0120 D26A     		ldr	r2, [r2, #44]
 1539 0122 1A60     		str	r2, [r3]
 296:bluetooth_rxtx.c **** 	/* Avoid gcc warning about strict-aliasing */
 297:bluetooth_rxtx.c **** 	u16 *p3 = (u16 *)f->data;
 1540              		.loc 1 297 0
 1541 0124 FB69     		ldr	r3, [r7, #28]
 1542 0126 0E33     		adds	r3, r3, #14
 1543 0128 3B61     		str	r3, [r7, #16]
ARM GAS  /tmp/ccxwuSCA.s 			page 32


 298:bluetooth_rxtx.c **** 	u16 *p4 = (u16 *)buf;
 1544              		.loc 1 298 0
 1545 012a 3B68     		ldr	r3, [r7]
 1546 012c FB60     		str	r3, [r7, #12]
 299:bluetooth_rxtx.c **** 	p3[24] = p4[24];
 1547              		.loc 1 299 0
 1548 012e 3B69     		ldr	r3, [r7, #16]
 1549 0130 3033     		adds	r3, r3, #48
 1550 0132 FA68     		ldr	r2, [r7, #12]
 1551 0134 128E     		ldrh	r2, [r2, #48]
 1552 0136 1A80     		strh	r2, [r3]	@ movhi
 300:bluetooth_rxtx.c **** 
 301:bluetooth_rxtx.c **** 	f->status = status;
 1553              		.loc 1 301 0
 1554 0138 064B     		ldr	r3, .L25
 1555 013a 1B78     		ldrb	r3, [r3]
 1556 013c DAB2     		uxtb	r2, r3
 1557 013e FB69     		ldr	r3, [r7, #28]
 1558 0140 5A70     		strb	r2, [r3, #1]
 302:bluetooth_rxtx.c **** 	status = 0;
 1559              		.loc 1 302 0
 1560 0142 044B     		ldr	r3, .L25
 1561 0144 0022     		movs	r2, #0
 1562 0146 1A70     		strb	r2, [r3]
 303:bluetooth_rxtx.c **** 
 304:bluetooth_rxtx.c **** 	return 1;
 1563              		.loc 1 304 0
 1564 0148 0123     		movs	r3, #1
 1565              	.L22:
 305:bluetooth_rxtx.c **** }
 1566              		.loc 1 305 0
 1567 014a 1846     		mov	r0, r3
 1568 014c 2037     		adds	r7, r7, #32
 1569              		.cfi_def_cfa_offset 8
 1570 014e BD46     		mov	sp, r7
 1571              		.cfi_def_cfa_register 13
 1572              		@ sp needed
 1573 0150 80BD     		pop	{r7, pc}
 1574              	.L26:
 1575 0152 00BF     		.align	2
 1576              	.L25:
 1577 0154 00000000 		.word	status
 1578 0158 00000000 		.word	clkn
 1579 015c 08400040 		.word	1073758216
 1580 0160 00000000 		.word	idle_buf_clkn_high
 1581 0164 00000000 		.word	idle_buf_clk100ns
 1582 0168 00000000 		.word	idle_buf_channel
 1583 016c 00000000 		.word	rssi_min
 1584 0170 00000000 		.word	rssi_max
 1585 0174 00000000 		.word	device_index
 1586 0178 38C00920 		.word	537509944
 1587              		.cfi_endproc
 1588              	.LFE4:
 1590              		.section	.text.enqueue_with_ts,"ax",%progbits
 1591              		.align	2
 1592              		.global	enqueue_with_ts
 1593              		.thumb
ARM GAS  /tmp/ccxwuSCA.s 			page 33


 1594              		.thumb_func
 1596              	enqueue_with_ts:
 1597              	.LFB5:
 306:bluetooth_rxtx.c **** 
 307:bluetooth_rxtx.c **** int enqueue_with_ts(u8 type, u8 *buf, u32 ts)
 308:bluetooth_rxtx.c **** {
 1598              		.loc 1 308 0
 1599              		.cfi_startproc
 1600              		@ args = 0, pretend = 0, frame = 40
 1601              		@ frame_needed = 1, uses_anonymous_args = 0
 1602 0000 80B5     		push	{r7, lr}
 1603              		.cfi_def_cfa_offset 8
 1604              		.cfi_offset 7, -8
 1605              		.cfi_offset 14, -4
 1606 0002 8AB0     		sub	sp, sp, #40
 1607              		.cfi_def_cfa_offset 48
 1608 0004 00AF     		add	r7, sp, #0
 1609              		.cfi_def_cfa_register 7
 1610 0006 0346     		mov	r3, r0
 1611 0008 B960     		str	r1, [r7, #8]
 1612 000a 7A60     		str	r2, [r7, #4]
 1613 000c FB73     		strb	r3, [r7, #15]
 309:bluetooth_rxtx.c **** 	usb_pkt_rx *f = usb_enqueue();
 1614              		.loc 1 309 0
 1615 000e FFF7FEFF 		bl	usb_enqueue
 1616 0012 7862     		str	r0, [r7, #36]
 310:bluetooth_rxtx.c **** 
 311:bluetooth_rxtx.c **** 	/* fail if queue is full */
 312:bluetooth_rxtx.c **** 	if (f == NULL) {
 1617              		.loc 1 312 0
 1618 0014 7B6A     		ldr	r3, [r7, #36]
 1619 0016 002B     		cmp	r3, #0
 1620 0018 09D1     		bne	.L28
 313:bluetooth_rxtx.c **** 		status |= FIFO_OVERFLOW;
 1621              		.loc 1 313 0
 1622 001a 3C4B     		ldr	r3, .L30
 1623 001c 1B78     		ldrb	r3, [r3]
 1624 001e DBB2     		uxtb	r3, r3
 1625 0020 43F00403 		orr	r3, r3, #4
 1626 0024 DAB2     		uxtb	r2, r3
 1627 0026 394B     		ldr	r3, .L30
 1628 0028 1A70     		strb	r2, [r3]
 314:bluetooth_rxtx.c **** 		return 0;
 1629              		.loc 1 314 0
 1630 002a 0023     		movs	r3, #0
 1631 002c 69E0     		b	.L29
 1632              	.L28:
 315:bluetooth_rxtx.c **** 	}
 316:bluetooth_rxtx.c **** 
 317:bluetooth_rxtx.c **** 	f->clkn_high = 0;
 1633              		.loc 1 317 0
 1634 002e 7B6A     		ldr	r3, [r7, #36]
 1635 0030 0022     		movs	r2, #0
 1636 0032 DA70     		strb	r2, [r3, #3]
 318:bluetooth_rxtx.c **** 	f->clk100ns = ts;
 1637              		.loc 1 318 0
 1638 0034 7B6A     		ldr	r3, [r7, #36]
ARM GAS  /tmp/ccxwuSCA.s 			page 34


 1639 0036 7A68     		ldr	r2, [r7, #4]
 1640 0038 5A60     		str	r2, [r3, #4]
 319:bluetooth_rxtx.c **** 
 320:bluetooth_rxtx.c **** 	f->channel = channel - 2402;
 1641              		.loc 1 320 0
 1642 003a 354B     		ldr	r3, .L30+4
 1643 003c 1B88     		ldrh	r3, [r3]	@ movhi
 1644 003e 9BB2     		uxth	r3, r3
 1645 0040 DBB2     		uxtb	r3, r3
 1646 0042 623B     		subs	r3, r3, #98
 1647 0044 DAB2     		uxtb	r2, r3
 1648 0046 7B6A     		ldr	r3, [r7, #36]
 1649 0048 9A70     		strb	r2, [r3, #2]
 321:bluetooth_rxtx.c **** 	f->rssi_avg = 0;
 1650              		.loc 1 321 0
 1651 004a 7B6A     		ldr	r3, [r7, #36]
 1652 004c 0022     		movs	r2, #0
 1653 004e 9A72     		strb	r2, [r3, #10]
 322:bluetooth_rxtx.c **** 	f->rssi_count = 0;
 1654              		.loc 1 322 0
 1655 0050 7B6A     		ldr	r3, [r7, #36]
 1656 0052 0022     		movs	r2, #0
 1657 0054 DA72     		strb	r2, [r3, #11]
 323:bluetooth_rxtx.c **** 
 324:bluetooth_rxtx.c **** 	USRLED_SET;
 1658              		.loc 1 324 0
 1659 0056 2F4B     		ldr	r3, .L30+8
 1660 0058 0222     		movs	r2, #2
 1661 005a 1A60     		str	r2, [r3]
 325:bluetooth_rxtx.c **** 
 326:bluetooth_rxtx.c **** 	// Unrolled copy of 50 bytes from buf to fifo
 327:bluetooth_rxtx.c **** 	u32 *p1 = (u32 *)f->data;
 1662              		.loc 1 327 0
 1663 005c 7B6A     		ldr	r3, [r7, #36]
 1664 005e 0E33     		adds	r3, r3, #14
 1665 0060 3B62     		str	r3, [r7, #32]
 328:bluetooth_rxtx.c **** 	u32 *p2 = (u32 *)buf;
 1666              		.loc 1 328 0
 1667 0062 BB68     		ldr	r3, [r7, #8]
 1668 0064 FB61     		str	r3, [r7, #28]
 329:bluetooth_rxtx.c **** 	p1[0] = p2[0];
 1669              		.loc 1 329 0
 1670 0066 FB69     		ldr	r3, [r7, #28]
 1671 0068 1A68     		ldr	r2, [r3]
 1672 006a 3B6A     		ldr	r3, [r7, #32]
 1673 006c 1A60     		str	r2, [r3]
 330:bluetooth_rxtx.c **** 	p1[1] = p2[1];
 1674              		.loc 1 330 0
 1675 006e 3B6A     		ldr	r3, [r7, #32]
 1676 0070 0433     		adds	r3, r3, #4
 1677 0072 FA69     		ldr	r2, [r7, #28]
 1678 0074 5268     		ldr	r2, [r2, #4]
 1679 0076 1A60     		str	r2, [r3]
 331:bluetooth_rxtx.c **** 	p1[2] = p2[2];
 1680              		.loc 1 331 0
 1681 0078 3B6A     		ldr	r3, [r7, #32]
 1682 007a 0833     		adds	r3, r3, #8
ARM GAS  /tmp/ccxwuSCA.s 			page 35


 1683 007c FA69     		ldr	r2, [r7, #28]
 1684 007e 9268     		ldr	r2, [r2, #8]
 1685 0080 1A60     		str	r2, [r3]
 332:bluetooth_rxtx.c **** 	p1[3] = p2[3];
 1686              		.loc 1 332 0
 1687 0082 3B6A     		ldr	r3, [r7, #32]
 1688 0084 0C33     		adds	r3, r3, #12
 1689 0086 FA69     		ldr	r2, [r7, #28]
 1690 0088 D268     		ldr	r2, [r2, #12]
 1691 008a 1A60     		str	r2, [r3]
 333:bluetooth_rxtx.c **** 	p1[4] = p2[4];
 1692              		.loc 1 333 0
 1693 008c 3B6A     		ldr	r3, [r7, #32]
 1694 008e 1033     		adds	r3, r3, #16
 1695 0090 FA69     		ldr	r2, [r7, #28]
 1696 0092 1269     		ldr	r2, [r2, #16]
 1697 0094 1A60     		str	r2, [r3]
 334:bluetooth_rxtx.c **** 	p1[5] = p2[5];
 1698              		.loc 1 334 0
 1699 0096 3B6A     		ldr	r3, [r7, #32]
 1700 0098 1433     		adds	r3, r3, #20
 1701 009a FA69     		ldr	r2, [r7, #28]
 1702 009c 5269     		ldr	r2, [r2, #20]
 1703 009e 1A60     		str	r2, [r3]
 335:bluetooth_rxtx.c **** 	p1[6] = p2[6];
 1704              		.loc 1 335 0
 1705 00a0 3B6A     		ldr	r3, [r7, #32]
 1706 00a2 1833     		adds	r3, r3, #24
 1707 00a4 FA69     		ldr	r2, [r7, #28]
 1708 00a6 9269     		ldr	r2, [r2, #24]
 1709 00a8 1A60     		str	r2, [r3]
 336:bluetooth_rxtx.c **** 	p1[7] = p2[7];
 1710              		.loc 1 336 0
 1711 00aa 3B6A     		ldr	r3, [r7, #32]
 1712 00ac 1C33     		adds	r3, r3, #28
 1713 00ae FA69     		ldr	r2, [r7, #28]
 1714 00b0 D269     		ldr	r2, [r2, #28]
 1715 00b2 1A60     		str	r2, [r3]
 337:bluetooth_rxtx.c **** 	p1[8] = p2[8];
 1716              		.loc 1 337 0
 1717 00b4 3B6A     		ldr	r3, [r7, #32]
 1718 00b6 2033     		adds	r3, r3, #32
 1719 00b8 FA69     		ldr	r2, [r7, #28]
 1720 00ba 126A     		ldr	r2, [r2, #32]
 1721 00bc 1A60     		str	r2, [r3]
 338:bluetooth_rxtx.c **** 	p1[9] = p2[9];
 1722              		.loc 1 338 0
 1723 00be 3B6A     		ldr	r3, [r7, #32]
 1724 00c0 2433     		adds	r3, r3, #36
 1725 00c2 FA69     		ldr	r2, [r7, #28]
 1726 00c4 526A     		ldr	r2, [r2, #36]
 1727 00c6 1A60     		str	r2, [r3]
 339:bluetooth_rxtx.c **** 	p1[10] = p2[10];
 1728              		.loc 1 339 0
 1729 00c8 3B6A     		ldr	r3, [r7, #32]
 1730 00ca 2833     		adds	r3, r3, #40
 1731 00cc FA69     		ldr	r2, [r7, #28]
ARM GAS  /tmp/ccxwuSCA.s 			page 36


 1732 00ce 926A     		ldr	r2, [r2, #40]
 1733 00d0 1A60     		str	r2, [r3]
 340:bluetooth_rxtx.c **** 	p1[11] = p2[11];
 1734              		.loc 1 340 0
 1735 00d2 3B6A     		ldr	r3, [r7, #32]
 1736 00d4 2C33     		adds	r3, r3, #44
 1737 00d6 FA69     		ldr	r2, [r7, #28]
 1738 00d8 D26A     		ldr	r2, [r2, #44]
 1739 00da 1A60     		str	r2, [r3]
 341:bluetooth_rxtx.c **** 	/* Avoid gcc warning about strict-aliasing */
 342:bluetooth_rxtx.c **** 	u16 *p3 = (u16 *)f->data;
 1740              		.loc 1 342 0
 1741 00dc 7B6A     		ldr	r3, [r7, #36]
 1742 00de 0E33     		adds	r3, r3, #14
 1743 00e0 BB61     		str	r3, [r7, #24]
 343:bluetooth_rxtx.c **** 	u16 *p4 = (u16 *)buf;
 1744              		.loc 1 343 0
 1745 00e2 BB68     		ldr	r3, [r7, #8]
 1746 00e4 7B61     		str	r3, [r7, #20]
 344:bluetooth_rxtx.c **** 	p3[24] = p4[24];
 1747              		.loc 1 344 0
 1748 00e6 BB69     		ldr	r3, [r7, #24]
 1749 00e8 3033     		adds	r3, r3, #48
 1750 00ea 7A69     		ldr	r2, [r7, #20]
 1751 00ec 128E     		ldrh	r2, [r2, #48]
 1752 00ee 1A80     		strh	r2, [r3]	@ movhi
 345:bluetooth_rxtx.c **** 
 346:bluetooth_rxtx.c **** 	f->status = status;
 1753              		.loc 1 346 0
 1754 00f0 064B     		ldr	r3, .L30
 1755 00f2 1B78     		ldrb	r3, [r3]
 1756 00f4 DAB2     		uxtb	r2, r3
 1757 00f6 7B6A     		ldr	r3, [r7, #36]
 1758 00f8 5A70     		strb	r2, [r3, #1]
 347:bluetooth_rxtx.c **** 	status = 0;
 1759              		.loc 1 347 0
 1760 00fa 044B     		ldr	r3, .L30
 1761 00fc 0022     		movs	r2, #0
 1762 00fe 1A70     		strb	r2, [r3]
 348:bluetooth_rxtx.c **** 
 349:bluetooth_rxtx.c **** 	return 1;
 1763              		.loc 1 349 0
 1764 0100 0123     		movs	r3, #1
 1765              	.L29:
 350:bluetooth_rxtx.c **** }
 1766              		.loc 1 350 0
 1767 0102 1846     		mov	r0, r3
 1768 0104 2837     		adds	r7, r7, #40
 1769              		.cfi_def_cfa_offset 8
 1770 0106 BD46     		mov	sp, r7
 1771              		.cfi_def_cfa_register 13
 1772              		@ sp needed
 1773 0108 80BD     		pop	{r7, pc}
 1774              	.L31:
 1775 010a 00BF     		.align	2
 1776              	.L30:
 1777 010c 00000000 		.word	status
ARM GAS  /tmp/ccxwuSCA.s 			page 37


 1778 0110 00000000 		.word	channel
 1779 0114 38C00920 		.word	537509944
 1780              		.cfi_endproc
 1781              	.LFE5:
 1783              		.section	.text.cs_threshold_calc_and_set,"ax",%progbits
 1784              		.align	2
 1785              		.thumb
 1786              		.thumb_func
 1788              	cs_threshold_calc_and_set:
 1789              	.LFB6:
 351:bluetooth_rxtx.c **** 
 352:bluetooth_rxtx.c **** static void cs_threshold_calc_and_set(void)
 353:bluetooth_rxtx.c **** {
 1790              		.loc 1 353 0
 1791              		.cfi_startproc
 1792              		@ args = 0, pretend = 0, frame = 8
 1793              		@ frame_needed = 1, uses_anonymous_args = 0
 1794 0000 80B5     		push	{r7, lr}
 1795              		.cfi_def_cfa_offset 8
 1796              		.cfi_offset 7, -8
 1797              		.cfi_offset 14, -4
 1798 0002 82B0     		sub	sp, sp, #8
 1799              		.cfi_def_cfa_offset 16
 1800 0004 00AF     		add	r7, sp, #0
 1801              		.cfi_def_cfa_register 7
 354:bluetooth_rxtx.c **** 	int8_t level;
 355:bluetooth_rxtx.c **** 
 356:bluetooth_rxtx.c **** 	/* If threshold is max/avg based (>0), reset here while rx is
 357:bluetooth_rxtx.c **** 	 * off.  TODO - max-to-iir only works in SWEEP mode, where the
 358:bluetooth_rxtx.c **** 	 * channel is known to be in the BT band, i.e., rssi_iir has a
 359:bluetooth_rxtx.c **** 	 * value for it. */
 360:bluetooth_rxtx.c **** 	if ((hop_mode > 0) && (cs_threshold_req > 0)) {
 1802              		.loc 1 360 0
 1803 0006 174B     		ldr	r3, .L36
 1804 0008 1B78     		ldrb	r3, [r3]	@ zero_extendqisi2
 1805 000a 002B     		cmp	r3, #0
 1806 000c 1DD0     		beq	.L33
 1807              		.loc 1 360 0 is_stmt 0 discriminator 1
 1808 000e 164B     		ldr	r3, .L36+4
 1809 0010 1B78     		ldrb	r3, [r3]	@ zero_extendqisi2
 1810 0012 5BB2     		sxtb	r3, r3
 1811 0014 002B     		cmp	r3, #0
 1812 0016 18DD     		ble	.L33
 1813              	.LBB2:
 361:bluetooth_rxtx.c **** 		int8_t rssi = (int8_t)((rssi_iir[channel-2402] + 128)/256);
 1814              		.loc 1 361 0 is_stmt 1
 1815 0018 144B     		ldr	r3, .L36+8
 1816 001a 1B88     		ldrh	r3, [r3]	@ movhi
 1817 001c 9BB2     		uxth	r3, r3
 1818 001e A3F66213 		subw	r3, r3, #2402
 1819 0022 134A     		ldr	r2, .L36+12
 1820 0024 32F81330 		ldrh	r3, [r2, r3, lsl #1]
 1821 0028 1BB2     		sxth	r3, r3
 1822 002a 8033     		adds	r3, r3, #128
 1823 002c 002B     		cmp	r3, #0
 1824 002e 00DA     		bge	.L34
 1825 0030 FF33     		adds	r3, r3, #255
ARM GAS  /tmp/ccxwuSCA.s 			page 38


 1826              	.L34:
 1827 0032 1B12     		asrs	r3, r3, #8
 1828 0034 BB71     		strb	r3, [r7, #6]
 362:bluetooth_rxtx.c **** 		level = rssi - 54 + cs_threshold_req;
 1829              		.loc 1 362 0
 1830 0036 BA79     		ldrb	r2, [r7, #6]	@ zero_extendqisi2
 1831 0038 0B4B     		ldr	r3, .L36+4
 1832 003a 1B78     		ldrb	r3, [r3]	@ zero_extendqisi2
 1833 003c DBB2     		uxtb	r3, r3
 1834 003e 1344     		add	r3, r3, r2
 1835 0040 DBB2     		uxtb	r3, r3
 1836 0042 363B     		subs	r3, r3, #54
 1837 0044 DBB2     		uxtb	r3, r3
 1838 0046 FB71     		strb	r3, [r7, #7]
 1839              	.LBE2:
 360:bluetooth_rxtx.c **** 		int8_t rssi = (int8_t)((rssi_iir[channel-2402] + 128)/256);
 1840              		.loc 1 360 0
 1841 0048 02E0     		b	.L35
 1842              	.L33:
 363:bluetooth_rxtx.c **** 	}
 364:bluetooth_rxtx.c **** 	else {
 365:bluetooth_rxtx.c **** 		level = cs_threshold_req;
 1843              		.loc 1 365 0
 1844 004a 074B     		ldr	r3, .L36+4
 1845 004c 1B78     		ldrb	r3, [r3]
 1846 004e FB71     		strb	r3, [r7, #7]
 1847              	.L35:
 366:bluetooth_rxtx.c **** 	}
 367:bluetooth_rxtx.c **** 	cs_threshold_set(level, CS_SAMPLES_4);
 1848              		.loc 1 367 0
 1849 0050 97F90730 		ldrsb	r3, [r7, #7]
 1850 0054 1846     		mov	r0, r3
 1851 0056 0321     		movs	r1, #3
 1852 0058 FFF7FEFF 		bl	cs_threshold_set
 368:bluetooth_rxtx.c **** }
 1853              		.loc 1 368 0
 1854 005c 0837     		adds	r7, r7, #8
 1855              		.cfi_def_cfa_offset 8
 1856 005e BD46     		mov	sp, r7
 1857              		.cfi_def_cfa_register 13
 1858              		@ sp needed
 1859 0060 80BD     		pop	{r7, pc}
 1860              	.L37:
 1861 0062 00BF     		.align	2
 1862              	.L36:
 1863 0064 00000000 		.word	hop_mode
 1864 0068 00000000 		.word	cs_threshold_req
 1865 006c 00000000 		.word	channel
 1866 0070 00000000 		.word	rssi_iir
 1867              		.cfi_endproc
 1868              	.LFE6:
 1870              		.section	.text.cs_trigger_enable,"ax",%progbits
 1871              		.align	2
 1872              		.thumb
 1873              		.thumb_func
 1875              	cs_trigger_enable:
 1876              	.LFB7:
ARM GAS  /tmp/ccxwuSCA.s 			page 39


 369:bluetooth_rxtx.c **** 
 370:bluetooth_rxtx.c **** /* CS comes from CC2400 GIO6, which is LPC P2.2, active low. GPIO
 371:bluetooth_rxtx.c ****  * triggers EINT3, which could be used for other things (but is not
 372:bluetooth_rxtx.c ****  * currently). TODO - EINT3 should be managed globally, not turned on
 373:bluetooth_rxtx.c ****  * and off here. */
 374:bluetooth_rxtx.c **** static void cs_trigger_enable(void)
 375:bluetooth_rxtx.c **** {
 1877              		.loc 1 375 0
 1878              		.cfi_startproc
 1879              		@ args = 0, pretend = 0, frame = 0
 1880              		@ frame_needed = 1, uses_anonymous_args = 0
 1881              		@ link register save eliminated.
 1882 0000 80B4     		push	{r7}
 1883              		.cfi_def_cfa_offset 4
 1884              		.cfi_offset 7, -4
 1885 0002 00AF     		add	r7, sp, #0
 1886              		.cfi_def_cfa_register 7
 376:bluetooth_rxtx.c **** 	cs_trigger = 0;
 1887              		.loc 1 376 0
 1888 0004 094B     		ldr	r3, .L39
 1889 0006 0022     		movs	r2, #0
 1890 0008 1A70     		strb	r2, [r3]
 377:bluetooth_rxtx.c **** 	ISER0 = ISER0_ISE_EINT3;
 1891              		.loc 1 377 0
 1892 000a 094B     		ldr	r3, .L39+4
 1893 000c 4FF40012 		mov	r2, #2097152
 1894 0010 1A60     		str	r2, [r3]
 378:bluetooth_rxtx.c **** 	IO2IntClr = PIN_GIO6;      // Clear pending
 1895              		.loc 1 378 0
 1896 0012 084B     		ldr	r3, .L39+8
 1897 0014 0422     		movs	r2, #4
 1898 0016 1A60     		str	r2, [r3]
 379:bluetooth_rxtx.c **** 	IO2IntEnF |= PIN_GIO6;     // Enable port 2.2 falling (CS active low)
 1899              		.loc 1 379 0
 1900 0018 074A     		ldr	r2, .L39+12
 1901 001a 074B     		ldr	r3, .L39+12
 1902 001c 1B68     		ldr	r3, [r3]
 1903 001e 43F00403 		orr	r3, r3, #4
 1904 0022 1360     		str	r3, [r2]
 380:bluetooth_rxtx.c **** }
 1905              		.loc 1 380 0
 1906 0024 BD46     		mov	sp, r7
 1907              		.cfi_def_cfa_register 13
 1908              		@ sp needed
 1909 0026 5DF8047B 		ldr	r7, [sp], #4
 1910              		.cfi_restore 7
 1911              		.cfi_def_cfa_offset 0
 1912 002a 7047     		bx	lr
 1913              	.L40:
 1914              		.align	2
 1915              	.L39:
 1916 002c 00000000 		.word	cs_trigger
 1917 0030 00E100E0 		.word	-536813312
 1918 0034 AC800240 		.word	1073905836
 1919 0038 B4800240 		.word	1073905844
 1920              		.cfi_endproc
 1921              	.LFE7:
ARM GAS  /tmp/ccxwuSCA.s 			page 40


 1923              		.section	.text.cs_trigger_disable,"ax",%progbits
 1924              		.align	2
 1925              		.thumb
 1926              		.thumb_func
 1928              	cs_trigger_disable:
 1929              	.LFB8:
 381:bluetooth_rxtx.c **** 
 382:bluetooth_rxtx.c **** static void cs_trigger_disable(void)
 383:bluetooth_rxtx.c **** {
 1930              		.loc 1 383 0
 1931              		.cfi_startproc
 1932              		@ args = 0, pretend = 0, frame = 0
 1933              		@ frame_needed = 1, uses_anonymous_args = 0
 1934              		@ link register save eliminated.
 1935 0000 80B4     		push	{r7}
 1936              		.cfi_def_cfa_offset 4
 1937              		.cfi_offset 7, -4
 1938 0002 00AF     		add	r7, sp, #0
 1939              		.cfi_def_cfa_register 7
 384:bluetooth_rxtx.c **** 	IO2IntEnF &= ~PIN_GIO6;    // Disable port 2.2 falling (CS active low)
 1940              		.loc 1 384 0
 1941 0004 094A     		ldr	r2, .L42
 1942 0006 094B     		ldr	r3, .L42
 1943 0008 1B68     		ldr	r3, [r3]
 1944 000a 23F00403 		bic	r3, r3, #4
 1945 000e 1360     		str	r3, [r2]
 385:bluetooth_rxtx.c **** 	IO2IntClr = PIN_GIO6;      // Clear pending
 1946              		.loc 1 385 0
 1947 0010 074B     		ldr	r3, .L42+4
 1948 0012 0422     		movs	r2, #4
 1949 0014 1A60     		str	r2, [r3]
 386:bluetooth_rxtx.c **** 	ICER0 = ICER0_ICE_EINT3;
 1950              		.loc 1 386 0
 1951 0016 074B     		ldr	r3, .L42+8
 1952 0018 4FF40012 		mov	r2, #2097152
 1953 001c 1A60     		str	r2, [r3]
 387:bluetooth_rxtx.c **** 	cs_trigger = 0;
 1954              		.loc 1 387 0
 1955 001e 064B     		ldr	r3, .L42+12
 1956 0020 0022     		movs	r2, #0
 1957 0022 1A70     		strb	r2, [r3]
 388:bluetooth_rxtx.c **** }
 1958              		.loc 1 388 0
 1959 0024 BD46     		mov	sp, r7
 1960              		.cfi_def_cfa_register 13
 1961              		@ sp needed
 1962 0026 5DF8047B 		ldr	r7, [sp], #4
 1963              		.cfi_restore 7
 1964              		.cfi_def_cfa_offset 0
 1965 002a 7047     		bx	lr
 1966              	.L43:
 1967              		.align	2
 1968              	.L42:
 1969 002c B4800240 		.word	1073905844
 1970 0030 AC800240 		.word	1073905836
 1971 0034 80E100E0 		.word	-536813184
 1972 0038 00000000 		.word	cs_trigger
ARM GAS  /tmp/ccxwuSCA.s 			page 41


 1973              		.cfi_endproc
 1974              	.LFE8:
 1976              		.section	.rodata
 1977 08d1 000000   		.align	2
 1978              	.LC3:
 1979 08d4 32303135 		.ascii	"2015-10-R1\000"
 1979      2D31302D 
 1979      523100
 1980              		.section	.text.vendor_request_handler,"ax",%progbits
 1981              		.align	2
 1982              		.thumb
 1983              		.thumb_func
 1985              	vendor_request_handler:
 1986              	.LFB9:
 389:bluetooth_rxtx.c **** 
 390:bluetooth_rxtx.c **** static int vendor_request_handler(u8 request, u16 *request_params, u8 *data, int *data_len)
 391:bluetooth_rxtx.c **** {
 1987              		.loc 1 391 0
 1988              		.cfi_startproc
 1989              		@ args = 0, pretend = 0, frame = 80
 1990              		@ frame_needed = 1, uses_anonymous_args = 0
 1991 0000 2DE9F04F 		push	{r4, r5, r6, r7, r8, r9, r10, fp, lr}
 1992              		.cfi_def_cfa_offset 36
 1993              		.cfi_offset 4, -36
 1994              		.cfi_offset 5, -32
 1995              		.cfi_offset 6, -28
 1996              		.cfi_offset 7, -24
 1997              		.cfi_offset 8, -20
 1998              		.cfi_offset 9, -16
 1999              		.cfi_offset 10, -12
 2000              		.cfi_offset 11, -8
 2001              		.cfi_offset 14, -4
 2002 0004 95B0     		sub	sp, sp, #84
 2003              		.cfi_def_cfa_offset 120
 2004 0006 00AF     		add	r7, sp, #0
 2005              		.cfi_def_cfa_register 7
 2006 0008 B960     		str	r1, [r7, #8]
 2007 000a 7A60     		str	r2, [r7, #4]
 2008 000c 3B60     		str	r3, [r7]
 2009 000e 0346     		mov	r3, r0
 2010 0010 FB73     		strb	r3, [r7, #15]
 392:bluetooth_rxtx.c **** 	u32 command[5];
 393:bluetooth_rxtx.c **** 	u32 result[5];
 394:bluetooth_rxtx.c **** 	u64 ac_copy;
 395:bluetooth_rxtx.c **** 	int i; // loop counter
 396:bluetooth_rxtx.c **** 	u32 clock;
 397:bluetooth_rxtx.c **** 	int clock_offset;
 398:bluetooth_rxtx.c **** 	u8 length; // string length
 399:bluetooth_rxtx.c **** 	usb_pkt_rx *p = NULL;
 2011              		.loc 1 399 0
 2012 0012 0023     		movs	r3, #0
 2013 0014 7B64     		str	r3, [r7, #68]
 400:bluetooth_rxtx.c **** 	u16 reg_val;
 401:bluetooth_rxtx.c **** 
 402:bluetooth_rxtx.c **** 	switch (request) {
 2014              		.loc 1 402 0
 2015 0016 FB7B     		ldrb	r3, [r7, #15]	@ zero_extendqisi2
ARM GAS  /tmp/ccxwuSCA.s 			page 42


 2016 0018 3C2B     		cmp	r3, #60
 2017 001a 00F25185 		bhi	.L45
 2018 001e 01A2     		adr	r2, .L47
 2019 0020 52F823F0 		ldr	pc, [r2, r3, lsl #2]
 2020              		.p2align 2
 2021              	.L47:
 2022 0024 19010000 		.word	.L46+1
 2023 0028 23010000 		.word	.L48+1
 2024 002c C10A0000 		.word	.L45+1
 2025 0030 33010000 		.word	.L49+1
 2026 0034 55010000 		.word	.L50+1
 2027 0038 71010000 		.word	.L51+1
 2028 003c 93010000 		.word	.L52+1
 2029 0040 AF010000 		.word	.L53+1
 2030 0044 D1010000 		.word	.L54+1
 2031 0048 F1010000 		.word	.L55+1
 2032 004c 13020000 		.word	.L56+1
 2033 0050 B7040000 		.word	.L57+1
 2034 0054 DD040000 		.word	.L58+1
 2035 0058 89020000 		.word	.L59+1
 2036 005c 93020000 		.word	.L60+1
 2037 0060 33020000 		.word	.L61+1
 2038 0064 71030000 		.word	.L62+1
 2039 0068 91030000 		.word	.L63+1
 2040 006c C9030000 		.word	.L64+1
 2041 0070 E9030000 		.word	.L65+1
 2042 0074 05040000 		.word	.L66+1
 2043 0078 91040000 		.word	.L67+1
 2044 007c 99040000 		.word	.L68+1
 2045 0080 AB040000 		.word	.L69+1
 2046 0084 67050000 		.word	.L70+1
 2047 0088 85050000 		.word	.L71+1
 2048 008c C10A0000 		.word	.L45+1
 2049 0090 91050000 		.word	.L72+1
 2050 0094 0D040000 		.word	.L73+1
 2051 0098 29040000 		.word	.L74+1
 2052 009c 51040000 		.word	.L75+1
 2053 00a0 49040000 		.word	.L76+1
 2054 00a4 59040000 		.word	.L77+1
 2055 00a8 55060000 		.word	.L78+1
 2056 00ac ED050000 		.word	.L79+1
 2057 00b0 C9060000 		.word	.L80+1
 2058 00b4 D7060000 		.word	.L81+1
 2059 00b8 E7060000 		.word	.L82+1
 2060 00bc F9060000 		.word	.L83+1
 2061 00c0 C5070000 		.word	.L84+1
 2062 00c4 0B080000 		.word	.L85+1
 2063 00c8 99080000 		.word	.L86+1
 2064 00cc CD080000 		.word	.L87+1
 2065 00d0 EF080000 		.word	.L88+1
 2066 00d4 47090000 		.word	.L89+1
 2067 00d8 C50A0000 		.word	.L148+1
 2068 00dc 79090000 		.word	.L91+1
 2069 00e0 8F090000 		.word	.L92+1
 2070 00e4 AB090000 		.word	.L93+1
 2071 00e8 C1090000 		.word	.L94+1
 2072 00ec ED090000 		.word	.L95+1
ARM GAS  /tmp/ccxwuSCA.s 			page 43


 2073 00f0 3D080000 		.word	.L96+1
 2074 00f4 6F080000 		.word	.L97+1
 2075 00f8 090A0000 		.word	.L98+1
 2076 00fc 4D0A0000 		.word	.L99+1
 2077 0100 97060000 		.word	.L100+1
 2078 0104 5F0A0000 		.word	.L101+1
 2079 0108 C10A0000 		.word	.L45+1
 2080 010c 370A0000 		.word	.L102+1
 2081 0110 A30A0000 		.word	.L103+1
 2082 0114 AF0A0000 		.word	.L104+1
 2083              		.p2align 1
 2084              	.L46:
 403:bluetooth_rxtx.c **** 
 404:bluetooth_rxtx.c **** 	case UBERTOOTH_PING:
 405:bluetooth_rxtx.c **** 		*data_len = 0;
 2085              		.loc 1 405 0
 2086 0118 3B68     		ldr	r3, [r7]
 2087 011a 0022     		movs	r2, #0
 2088 011c 1A60     		str	r2, [r3]
 406:bluetooth_rxtx.c **** 		break;
 2089              		.loc 1 406 0
 2090 011e 00F0D2BC 		b	.L105
 2091              	.L48:
 407:bluetooth_rxtx.c **** 
 408:bluetooth_rxtx.c **** 	case UBERTOOTH_RX_SYMBOLS:
 409:bluetooth_rxtx.c **** 		requested_mode = MODE_RX_SYMBOLS;
 2092              		.loc 1 409 0
 2093 0122 A14B     		ldr	r3, .L149
 2094 0124 0122     		movs	r2, #1
 2095 0126 1A70     		strb	r2, [r3]
 410:bluetooth_rxtx.c **** 		*data_len = 0;
 2096              		.loc 1 410 0
 2097 0128 3B68     		ldr	r3, [r7]
 2098 012a 0022     		movs	r2, #0
 2099 012c 1A60     		str	r2, [r3]
 411:bluetooth_rxtx.c **** 		break;
 2100              		.loc 1 411 0
 2101 012e 00F0CABC 		b	.L105
 2102              	.L49:
 412:bluetooth_rxtx.c **** 
 413:bluetooth_rxtx.c **** 	case UBERTOOTH_GET_USRLED:
 414:bluetooth_rxtx.c **** 		data[0] = (USRLED) ? 1 : 0;
 2103              		.loc 1 414 0
 2104 0132 9E4B     		ldr	r3, .L149+4
 2105 0134 1B68     		ldr	r3, [r3]
 2106 0136 03F00203 		and	r3, r3, #2
 2107 013a 002B     		cmp	r3, #0
 2108 013c 14BF     		ite	ne
 2109 013e 0123     		movne	r3, #1
 2110 0140 0023     		moveq	r3, #0
 2111 0142 DBB2     		uxtb	r3, r3
 2112 0144 1A46     		mov	r2, r3
 2113 0146 7B68     		ldr	r3, [r7, #4]
 2114 0148 1A70     		strb	r2, [r3]
 415:bluetooth_rxtx.c **** 		*data_len = 1;
 2115              		.loc 1 415 0
 2116 014a 3B68     		ldr	r3, [r7]
ARM GAS  /tmp/ccxwuSCA.s 			page 44


 2117 014c 0122     		movs	r2, #1
 2118 014e 1A60     		str	r2, [r3]
 416:bluetooth_rxtx.c **** 		break;
 2119              		.loc 1 416 0
 2120 0150 00F0B9BC 		b	.L105
 2121              	.L50:
 417:bluetooth_rxtx.c **** 
 418:bluetooth_rxtx.c **** 	case UBERTOOTH_SET_USRLED:
 419:bluetooth_rxtx.c **** 		if (request_params[0])
 2122              		.loc 1 419 0
 2123 0154 BB68     		ldr	r3, [r7, #8]
 2124 0156 1B88     		ldrh	r3, [r3]
 2125 0158 002B     		cmp	r3, #0
 2126 015a 04D0     		beq	.L106
 420:bluetooth_rxtx.c **** 			USRLED_SET;
 2127              		.loc 1 420 0
 2128 015c 944B     		ldr	r3, .L149+8
 2129 015e 0222     		movs	r2, #2
 2130 0160 1A60     		str	r2, [r3]
 421:bluetooth_rxtx.c **** 		else
 422:bluetooth_rxtx.c **** 			USRLED_CLR;
 423:bluetooth_rxtx.c **** 		break;
 2131              		.loc 1 423 0
 2132 0162 00F0B0BC 		b	.L105
 2133              	.L106:
 422:bluetooth_rxtx.c **** 		break;
 2134              		.loc 1 422 0
 2135 0166 934B     		ldr	r3, .L149+12
 2136 0168 0222     		movs	r2, #2
 2137 016a 1A60     		str	r2, [r3]
 2138              		.loc 1 423 0
 2139 016c 00F0ABBC 		b	.L105
 2140              	.L51:
 424:bluetooth_rxtx.c **** 
 425:bluetooth_rxtx.c **** 	case UBERTOOTH_GET_RXLED:
 426:bluetooth_rxtx.c **** 		data[0] = (RXLED) ? 1 : 0;
 2141              		.loc 1 426 0
 2142 0170 8E4B     		ldr	r3, .L149+4
 2143 0172 1B68     		ldr	r3, [r3]
 2144 0174 03F01003 		and	r3, r3, #16
 2145 0178 002B     		cmp	r3, #0
 2146 017a 14BF     		ite	ne
 2147 017c 0123     		movne	r3, #1
 2148 017e 0023     		moveq	r3, #0
 2149 0180 DBB2     		uxtb	r3, r3
 2150 0182 1A46     		mov	r2, r3
 2151 0184 7B68     		ldr	r3, [r7, #4]
 2152 0186 1A70     		strb	r2, [r3]
 427:bluetooth_rxtx.c **** 		*data_len = 1;
 2153              		.loc 1 427 0
 2154 0188 3B68     		ldr	r3, [r7]
 2155 018a 0122     		movs	r2, #1
 2156 018c 1A60     		str	r2, [r3]
 428:bluetooth_rxtx.c **** 		break;
 2157              		.loc 1 428 0
 2158 018e 00F09ABC 		b	.L105
 2159              	.L52:
ARM GAS  /tmp/ccxwuSCA.s 			page 45


 429:bluetooth_rxtx.c **** 
 430:bluetooth_rxtx.c **** 	case UBERTOOTH_SET_RXLED:
 431:bluetooth_rxtx.c **** 		if (request_params[0])
 2160              		.loc 1 431 0
 2161 0192 BB68     		ldr	r3, [r7, #8]
 2162 0194 1B88     		ldrh	r3, [r3]
 2163 0196 002B     		cmp	r3, #0
 2164 0198 04D0     		beq	.L108
 432:bluetooth_rxtx.c **** 			RXLED_SET;
 2165              		.loc 1 432 0
 2166 019a 854B     		ldr	r3, .L149+8
 2167 019c 1022     		movs	r2, #16
 2168 019e 1A60     		str	r2, [r3]
 433:bluetooth_rxtx.c **** 		else
 434:bluetooth_rxtx.c **** 			RXLED_CLR;
 435:bluetooth_rxtx.c **** 		break;
 2169              		.loc 1 435 0
 2170 01a0 00F091BC 		b	.L105
 2171              	.L108:
 434:bluetooth_rxtx.c **** 		break;
 2172              		.loc 1 434 0
 2173 01a4 834B     		ldr	r3, .L149+12
 2174 01a6 1022     		movs	r2, #16
 2175 01a8 1A60     		str	r2, [r3]
 2176              		.loc 1 435 0
 2177 01aa 00F08CBC 		b	.L105
 2178              	.L53:
 436:bluetooth_rxtx.c **** 
 437:bluetooth_rxtx.c **** 	case UBERTOOTH_GET_TXLED:
 438:bluetooth_rxtx.c **** 		data[0] = (TXLED) ? 1 : 0;
 2179              		.loc 1 438 0
 2180 01ae 7F4B     		ldr	r3, .L149+4
 2181 01b0 1B68     		ldr	r3, [r3]
 2182 01b2 03F48073 		and	r3, r3, #256
 2183 01b6 002B     		cmp	r3, #0
 2184 01b8 14BF     		ite	ne
 2185 01ba 0123     		movne	r3, #1
 2186 01bc 0023     		moveq	r3, #0
 2187 01be DBB2     		uxtb	r3, r3
 2188 01c0 1A46     		mov	r2, r3
 2189 01c2 7B68     		ldr	r3, [r7, #4]
 2190 01c4 1A70     		strb	r2, [r3]
 439:bluetooth_rxtx.c **** 		*data_len = 1;
 2191              		.loc 1 439 0
 2192 01c6 3B68     		ldr	r3, [r7]
 2193 01c8 0122     		movs	r2, #1
 2194 01ca 1A60     		str	r2, [r3]
 440:bluetooth_rxtx.c **** 		break;
 2195              		.loc 1 440 0
 2196 01cc 00F07BBC 		b	.L105
 2197              	.L54:
 441:bluetooth_rxtx.c **** 
 442:bluetooth_rxtx.c **** 	case UBERTOOTH_SET_TXLED:
 443:bluetooth_rxtx.c **** 		if (request_params[0])
 2198              		.loc 1 443 0
 2199 01d0 BB68     		ldr	r3, [r7, #8]
 2200 01d2 1B88     		ldrh	r3, [r3]
ARM GAS  /tmp/ccxwuSCA.s 			page 46


 2201 01d4 002B     		cmp	r3, #0
 2202 01d6 05D0     		beq	.L110
 444:bluetooth_rxtx.c **** 			TXLED_SET;
 2203              		.loc 1 444 0
 2204 01d8 754B     		ldr	r3, .L149+8
 2205 01da 4FF48072 		mov	r2, #256
 2206 01de 1A60     		str	r2, [r3]
 445:bluetooth_rxtx.c **** 		else
 446:bluetooth_rxtx.c **** 			TXLED_CLR;
 447:bluetooth_rxtx.c **** 		break;
 2207              		.loc 1 447 0
 2208 01e0 00F071BC 		b	.L105
 2209              	.L110:
 446:bluetooth_rxtx.c **** 		break;
 2210              		.loc 1 446 0
 2211 01e4 734B     		ldr	r3, .L149+12
 2212 01e6 4FF48072 		mov	r2, #256
 2213 01ea 1A60     		str	r2, [r3]
 2214              		.loc 1 447 0
 2215 01ec 00F06BBC 		b	.L105
 2216              	.L55:
 448:bluetooth_rxtx.c **** 
 449:bluetooth_rxtx.c **** 	case UBERTOOTH_GET_1V8:
 450:bluetooth_rxtx.c **** 		data[0] = (CC1V8) ? 1 : 0;
 2217              		.loc 1 450 0
 2218 01f0 6E4B     		ldr	r3, .L149+4
 2219 01f2 1B68     		ldr	r3, [r3]
 2220 01f4 03F40073 		and	r3, r3, #512
 2221 01f8 002B     		cmp	r3, #0
 2222 01fa 14BF     		ite	ne
 2223 01fc 0123     		movne	r3, #1
 2224 01fe 0023     		moveq	r3, #0
 2225 0200 DBB2     		uxtb	r3, r3
 2226 0202 1A46     		mov	r2, r3
 2227 0204 7B68     		ldr	r3, [r7, #4]
 2228 0206 1A70     		strb	r2, [r3]
 451:bluetooth_rxtx.c **** 		*data_len = 1;
 2229              		.loc 1 451 0
 2230 0208 3B68     		ldr	r3, [r7]
 2231 020a 0122     		movs	r2, #1
 2232 020c 1A60     		str	r2, [r3]
 452:bluetooth_rxtx.c **** 		break;
 2233              		.loc 1 452 0
 2234 020e 00F05ABC 		b	.L105
 2235              	.L56:
 453:bluetooth_rxtx.c **** 
 454:bluetooth_rxtx.c **** 	case UBERTOOTH_SET_1V8:
 455:bluetooth_rxtx.c **** 		if (request_params[0])
 2236              		.loc 1 455 0
 2237 0212 BB68     		ldr	r3, [r7, #8]
 2238 0214 1B88     		ldrh	r3, [r3]
 2239 0216 002B     		cmp	r3, #0
 2240 0218 05D0     		beq	.L112
 456:bluetooth_rxtx.c **** 			CC1V8_SET;
 2241              		.loc 1 456 0
 2242 021a 654B     		ldr	r3, .L149+8
 2243 021c 4FF40072 		mov	r2, #512
ARM GAS  /tmp/ccxwuSCA.s 			page 47


 2244 0220 1A60     		str	r2, [r3]
 457:bluetooth_rxtx.c **** 		else
 458:bluetooth_rxtx.c **** 			CC1V8_CLR;
 459:bluetooth_rxtx.c **** 		break;
 2245              		.loc 1 459 0
 2246 0222 00F050BC 		b	.L105
 2247              	.L112:
 458:bluetooth_rxtx.c **** 		break;
 2248              		.loc 1 458 0
 2249 0226 634B     		ldr	r3, .L149+12
 2250 0228 4FF40072 		mov	r2, #512
 2251 022c 1A60     		str	r2, [r3]
 2252              		.loc 1 459 0
 2253 022e 00F04ABC 		b	.L105
 2254              	.L61:
 460:bluetooth_rxtx.c **** 
 461:bluetooth_rxtx.c **** 	case UBERTOOTH_GET_PARTNUM:
 462:bluetooth_rxtx.c **** 		command[0] = 54; /* read part number */
 2255              		.loc 1 462 0
 2256 0232 3623     		movs	r3, #54
 2257 0234 7B62     		str	r3, [r7, #36]
 463:bluetooth_rxtx.c **** 		iap_entry(command, result);
 2258              		.loc 1 463 0
 2259 0236 604B     		ldr	r3, .L149+16
 2260 0238 1B68     		ldr	r3, [r3]
 2261 023a 07F12401 		add	r1, r7, #36
 2262 023e 07F11002 		add	r2, r7, #16
 2263 0242 0846     		mov	r0, r1
 2264 0244 1146     		mov	r1, r2
 2265 0246 9847     		blx	r3
 464:bluetooth_rxtx.c **** 		data[0] = result[0] & 0xFF; /* status */
 2266              		.loc 1 464 0
 2267 0248 3B69     		ldr	r3, [r7, #16]
 2268 024a DAB2     		uxtb	r2, r3
 2269 024c 7B68     		ldr	r3, [r7, #4]
 2270 024e 1A70     		strb	r2, [r3]
 465:bluetooth_rxtx.c **** 		data[1] = result[1] & 0xFF;
 2271              		.loc 1 465 0
 2272 0250 7B68     		ldr	r3, [r7, #4]
 2273 0252 0133     		adds	r3, r3, #1
 2274 0254 7A69     		ldr	r2, [r7, #20]
 2275 0256 D2B2     		uxtb	r2, r2
 2276 0258 1A70     		strb	r2, [r3]
 466:bluetooth_rxtx.c **** 		data[2] = (result[1] >> 8) & 0xFF;
 2277              		.loc 1 466 0
 2278 025a 7B68     		ldr	r3, [r7, #4]
 2279 025c 0233     		adds	r3, r3, #2
 2280 025e 7A69     		ldr	r2, [r7, #20]
 2281 0260 120A     		lsrs	r2, r2, #8
 2282 0262 D2B2     		uxtb	r2, r2
 2283 0264 1A70     		strb	r2, [r3]
 467:bluetooth_rxtx.c **** 		data[3] = (result[1] >> 16) & 0xFF;
 2284              		.loc 1 467 0
 2285 0266 7B68     		ldr	r3, [r7, #4]
 2286 0268 0333     		adds	r3, r3, #3
 2287 026a 7A69     		ldr	r2, [r7, #20]
 2288 026c 120C     		lsrs	r2, r2, #16
ARM GAS  /tmp/ccxwuSCA.s 			page 48


 2289 026e D2B2     		uxtb	r2, r2
 2290 0270 1A70     		strb	r2, [r3]
 468:bluetooth_rxtx.c **** 		data[4] = (result[1] >> 24) & 0xFF;
 2291              		.loc 1 468 0
 2292 0272 7B68     		ldr	r3, [r7, #4]
 2293 0274 0433     		adds	r3, r3, #4
 2294 0276 7A69     		ldr	r2, [r7, #20]
 2295 0278 120E     		lsrs	r2, r2, #24
 2296 027a D2B2     		uxtb	r2, r2
 2297 027c 1A70     		strb	r2, [r3]
 469:bluetooth_rxtx.c **** 		*data_len = 5;
 2298              		.loc 1 469 0
 2299 027e 3B68     		ldr	r3, [r7]
 2300 0280 0522     		movs	r2, #5
 2301 0282 1A60     		str	r2, [r3]
 470:bluetooth_rxtx.c **** 		break;
 2302              		.loc 1 470 0
 2303 0284 00F01FBC 		b	.L105
 2304              	.L59:
 471:bluetooth_rxtx.c **** 
 472:bluetooth_rxtx.c **** 	case UBERTOOTH_RESET:
 473:bluetooth_rxtx.c **** 		requested_mode = MODE_RESET;
 2305              		.loc 1 473 0
 2306 0288 474B     		ldr	r3, .L149
 2307 028a 0B22     		movs	r2, #11
 2308 028c 1A70     		strb	r2, [r3]
 474:bluetooth_rxtx.c **** 		break;
 2309              		.loc 1 474 0
 2310 028e 00F01ABC 		b	.L105
 2311              	.L60:
 475:bluetooth_rxtx.c **** 
 476:bluetooth_rxtx.c **** 	case UBERTOOTH_GET_SERIAL:
 477:bluetooth_rxtx.c **** 		command[0] = 58; /* read device serial number */
 2312              		.loc 1 477 0
 2313 0292 3A23     		movs	r3, #58
 2314 0294 7B62     		str	r3, [r7, #36]
 478:bluetooth_rxtx.c **** 		iap_entry(command, result);
 2315              		.loc 1 478 0
 2316 0296 484B     		ldr	r3, .L149+16
 2317 0298 1B68     		ldr	r3, [r3]
 2318 029a 07F12401 		add	r1, r7, #36
 2319 029e 07F11002 		add	r2, r7, #16
 2320 02a2 0846     		mov	r0, r1
 2321 02a4 1146     		mov	r1, r2
 2322 02a6 9847     		blx	r3
 479:bluetooth_rxtx.c **** 		data[0] = result[0] & 0xFF; /* status */
 2323              		.loc 1 479 0
 2324 02a8 3B69     		ldr	r3, [r7, #16]
 2325 02aa DAB2     		uxtb	r2, r3
 2326 02ac 7B68     		ldr	r3, [r7, #4]
 2327 02ae 1A70     		strb	r2, [r3]
 480:bluetooth_rxtx.c **** 		data[1] = result[1] & 0xFF;
 2328              		.loc 1 480 0
 2329 02b0 7B68     		ldr	r3, [r7, #4]
 2330 02b2 0133     		adds	r3, r3, #1
 2331 02b4 7A69     		ldr	r2, [r7, #20]
 2332 02b6 D2B2     		uxtb	r2, r2
ARM GAS  /tmp/ccxwuSCA.s 			page 49


 2333 02b8 1A70     		strb	r2, [r3]
 481:bluetooth_rxtx.c **** 		data[2] = (result[1] >> 8) & 0xFF;
 2334              		.loc 1 481 0
 2335 02ba 7B68     		ldr	r3, [r7, #4]
 2336 02bc 0233     		adds	r3, r3, #2
 2337 02be 7A69     		ldr	r2, [r7, #20]
 2338 02c0 120A     		lsrs	r2, r2, #8
 2339 02c2 D2B2     		uxtb	r2, r2
 2340 02c4 1A70     		strb	r2, [r3]
 482:bluetooth_rxtx.c **** 		data[3] = (result[1] >> 16) & 0xFF;
 2341              		.loc 1 482 0
 2342 02c6 7B68     		ldr	r3, [r7, #4]
 2343 02c8 0333     		adds	r3, r3, #3
 2344 02ca 7A69     		ldr	r2, [r7, #20]
 2345 02cc 120C     		lsrs	r2, r2, #16
 2346 02ce D2B2     		uxtb	r2, r2
 2347 02d0 1A70     		strb	r2, [r3]
 483:bluetooth_rxtx.c **** 		data[4] = (result[1] >> 24) & 0xFF;
 2348              		.loc 1 483 0
 2349 02d2 7B68     		ldr	r3, [r7, #4]
 2350 02d4 0433     		adds	r3, r3, #4
 2351 02d6 7A69     		ldr	r2, [r7, #20]
 2352 02d8 120E     		lsrs	r2, r2, #24
 2353 02da D2B2     		uxtb	r2, r2
 2354 02dc 1A70     		strb	r2, [r3]
 484:bluetooth_rxtx.c **** 		data[5] = result[2] & 0xFF;
 2355              		.loc 1 484 0
 2356 02de 7B68     		ldr	r3, [r7, #4]
 2357 02e0 0533     		adds	r3, r3, #5
 2358 02e2 BA69     		ldr	r2, [r7, #24]
 2359 02e4 D2B2     		uxtb	r2, r2
 2360 02e6 1A70     		strb	r2, [r3]
 485:bluetooth_rxtx.c **** 		data[6] = (result[2] >> 8) & 0xFF;
 2361              		.loc 1 485 0
 2362 02e8 7B68     		ldr	r3, [r7, #4]
 2363 02ea 0633     		adds	r3, r3, #6
 2364 02ec BA69     		ldr	r2, [r7, #24]
 2365 02ee 120A     		lsrs	r2, r2, #8
 2366 02f0 D2B2     		uxtb	r2, r2
 2367 02f2 1A70     		strb	r2, [r3]
 486:bluetooth_rxtx.c **** 		data[7] = (result[2] >> 16) & 0xFF;
 2368              		.loc 1 486 0
 2369 02f4 7B68     		ldr	r3, [r7, #4]
 2370 02f6 0733     		adds	r3, r3, #7
 2371 02f8 BA69     		ldr	r2, [r7, #24]
 2372 02fa 120C     		lsrs	r2, r2, #16
 2373 02fc D2B2     		uxtb	r2, r2
 2374 02fe 1A70     		strb	r2, [r3]
 487:bluetooth_rxtx.c **** 		data[8] = (result[2] >> 24) & 0xFF;
 2375              		.loc 1 487 0
 2376 0300 7B68     		ldr	r3, [r7, #4]
 2377 0302 0833     		adds	r3, r3, #8
 2378 0304 BA69     		ldr	r2, [r7, #24]
 2379 0306 120E     		lsrs	r2, r2, #24
 2380 0308 D2B2     		uxtb	r2, r2
 2381 030a 1A70     		strb	r2, [r3]
 488:bluetooth_rxtx.c **** 		data[9] = result[3] & 0xFF;
ARM GAS  /tmp/ccxwuSCA.s 			page 50


 2382              		.loc 1 488 0
 2383 030c 7B68     		ldr	r3, [r7, #4]
 2384 030e 0933     		adds	r3, r3, #9
 2385 0310 FA69     		ldr	r2, [r7, #28]
 2386 0312 D2B2     		uxtb	r2, r2
 2387 0314 1A70     		strb	r2, [r3]
 489:bluetooth_rxtx.c **** 		data[10] = (result[3] >> 8) & 0xFF;
 2388              		.loc 1 489 0
 2389 0316 7B68     		ldr	r3, [r7, #4]
 2390 0318 0A33     		adds	r3, r3, #10
 2391 031a FA69     		ldr	r2, [r7, #28]
 2392 031c 120A     		lsrs	r2, r2, #8
 2393 031e D2B2     		uxtb	r2, r2
 2394 0320 1A70     		strb	r2, [r3]
 490:bluetooth_rxtx.c **** 		data[11] = (result[3] >> 16) & 0xFF;
 2395              		.loc 1 490 0
 2396 0322 7B68     		ldr	r3, [r7, #4]
 2397 0324 0B33     		adds	r3, r3, #11
 2398 0326 FA69     		ldr	r2, [r7, #28]
 2399 0328 120C     		lsrs	r2, r2, #16
 2400 032a D2B2     		uxtb	r2, r2
 2401 032c 1A70     		strb	r2, [r3]
 491:bluetooth_rxtx.c **** 		data[12] = (result[3] >> 24) & 0xFF;
 2402              		.loc 1 491 0
 2403 032e 7B68     		ldr	r3, [r7, #4]
 2404 0330 0C33     		adds	r3, r3, #12
 2405 0332 FA69     		ldr	r2, [r7, #28]
 2406 0334 120E     		lsrs	r2, r2, #24
 2407 0336 D2B2     		uxtb	r2, r2
 2408 0338 1A70     		strb	r2, [r3]
 492:bluetooth_rxtx.c **** 		data[13] = result[4] & 0xFF;
 2409              		.loc 1 492 0
 2410 033a 7B68     		ldr	r3, [r7, #4]
 2411 033c 0D33     		adds	r3, r3, #13
 2412 033e 3A6A     		ldr	r2, [r7, #32]
 2413 0340 D2B2     		uxtb	r2, r2
 2414 0342 1A70     		strb	r2, [r3]
 493:bluetooth_rxtx.c **** 		data[14] = (result[4] >> 8) & 0xFF;
 2415              		.loc 1 493 0
 2416 0344 7B68     		ldr	r3, [r7, #4]
 2417 0346 0E33     		adds	r3, r3, #14
 2418 0348 3A6A     		ldr	r2, [r7, #32]
 2419 034a 120A     		lsrs	r2, r2, #8
 2420 034c D2B2     		uxtb	r2, r2
 2421 034e 1A70     		strb	r2, [r3]
 494:bluetooth_rxtx.c **** 		data[15] = (result[4] >> 16) & 0xFF;
 2422              		.loc 1 494 0
 2423 0350 7B68     		ldr	r3, [r7, #4]
 2424 0352 0F33     		adds	r3, r3, #15
 2425 0354 3A6A     		ldr	r2, [r7, #32]
 2426 0356 120C     		lsrs	r2, r2, #16
 2427 0358 D2B2     		uxtb	r2, r2
 2428 035a 1A70     		strb	r2, [r3]
 495:bluetooth_rxtx.c **** 		data[16] = (result[4] >> 24) & 0xFF;
 2429              		.loc 1 495 0
 2430 035c 7B68     		ldr	r3, [r7, #4]
 2431 035e 1033     		adds	r3, r3, #16
ARM GAS  /tmp/ccxwuSCA.s 			page 51


 2432 0360 3A6A     		ldr	r2, [r7, #32]
 2433 0362 120E     		lsrs	r2, r2, #24
 2434 0364 D2B2     		uxtb	r2, r2
 2435 0366 1A70     		strb	r2, [r3]
 496:bluetooth_rxtx.c **** 		*data_len = 17;
 2436              		.loc 1 496 0
 2437 0368 3B68     		ldr	r3, [r7]
 2438 036a 1122     		movs	r2, #17
 2439 036c 1A60     		str	r2, [r3]
 497:bluetooth_rxtx.c **** 		break;
 2440              		.loc 1 497 0
 2441 036e AAE3     		b	.L105
 2442              	.L62:
 498:bluetooth_rxtx.c **** 
 499:bluetooth_rxtx.c **** #ifdef UBERTOOTH_ONE
 500:bluetooth_rxtx.c **** 	case UBERTOOTH_GET_PAEN:
 501:bluetooth_rxtx.c **** 		data[0] = (PAEN) ? 1 : 0;
 2443              		.loc 1 501 0
 2444 0370 124B     		ldr	r3, .L149+20
 2445 0372 1B68     		ldr	r3, [r3]
 2446 0374 03F08003 		and	r3, r3, #128
 2447 0378 002B     		cmp	r3, #0
 2448 037a 14BF     		ite	ne
 2449 037c 0123     		movne	r3, #1
 2450 037e 0023     		moveq	r3, #0
 2451 0380 DBB2     		uxtb	r3, r3
 2452 0382 1A46     		mov	r2, r3
 2453 0384 7B68     		ldr	r3, [r7, #4]
 2454 0386 1A70     		strb	r2, [r3]
 502:bluetooth_rxtx.c **** 		*data_len = 1;
 2455              		.loc 1 502 0
 2456 0388 3B68     		ldr	r3, [r7]
 2457 038a 0122     		movs	r2, #1
 2458 038c 1A60     		str	r2, [r3]
 503:bluetooth_rxtx.c **** 		break;
 2459              		.loc 1 503 0
 2460 038e 9AE3     		b	.L105
 2461              	.L63:
 504:bluetooth_rxtx.c **** 
 505:bluetooth_rxtx.c **** 	case UBERTOOTH_SET_PAEN:
 506:bluetooth_rxtx.c **** 		if (request_params[0])
 2462              		.loc 1 506 0
 2463 0390 BB68     		ldr	r3, [r7, #8]
 2464 0392 1B88     		ldrh	r3, [r3]
 2465 0394 002B     		cmp	r3, #0
 2466 0396 03D0     		beq	.L114
 507:bluetooth_rxtx.c **** 			PAEN_SET;
 2467              		.loc 1 507 0
 2468 0398 094B     		ldr	r3, .L149+24
 2469 039a 8022     		movs	r2, #128
 2470 039c 1A60     		str	r2, [r3]
 508:bluetooth_rxtx.c **** 		else
 509:bluetooth_rxtx.c **** 			PAEN_CLR;
 510:bluetooth_rxtx.c **** 		break;
 2471              		.loc 1 510 0
 2472 039e 92E3     		b	.L105
 2473              	.L114:
ARM GAS  /tmp/ccxwuSCA.s 			page 52


 509:bluetooth_rxtx.c **** 		break;
 2474              		.loc 1 509 0
 2475 03a0 084B     		ldr	r3, .L149+28
 2476 03a2 8022     		movs	r2, #128
 2477 03a4 1A60     		str	r2, [r3]
 2478              		.loc 1 510 0
 2479 03a6 8EE3     		b	.L105
 2480              	.L150:
 2481              		.align	2
 2482              	.L149:
 2483 03a8 00000000 		.word	requested_mode
 2484 03ac 34C00920 		.word	537509940
 2485 03b0 38C00920 		.word	537509944
 2486 03b4 3CC00920 		.word	537509948
 2487 03b8 00000000 		.word	iap_entry
 2488 03bc 54C00920 		.word	537509972
 2489 03c0 58C00920 		.word	537509976
 2490 03c4 5CC00920 		.word	537509980
 2491              	.L64:
 511:bluetooth_rxtx.c **** 
 512:bluetooth_rxtx.c **** 	case UBERTOOTH_GET_HGM:
 513:bluetooth_rxtx.c **** 		data[0] = (HGM) ? 1 : 0;
 2492              		.loc 1 513 0
 2493 03c8 924B     		ldr	r3, .L151
 2494 03ca 1B68     		ldr	r3, [r3]
 2495 03cc 03F48073 		and	r3, r3, #256
 2496 03d0 002B     		cmp	r3, #0
 2497 03d2 14BF     		ite	ne
 2498 03d4 0123     		movne	r3, #1
 2499 03d6 0023     		moveq	r3, #0
 2500 03d8 DBB2     		uxtb	r3, r3
 2501 03da 1A46     		mov	r2, r3
 2502 03dc 7B68     		ldr	r3, [r7, #4]
 2503 03de 1A70     		strb	r2, [r3]
 514:bluetooth_rxtx.c **** 		*data_len = 1;
 2504              		.loc 1 514 0
 2505 03e0 3B68     		ldr	r3, [r7]
 2506 03e2 0122     		movs	r2, #1
 2507 03e4 1A60     		str	r2, [r3]
 515:bluetooth_rxtx.c **** 		break;
 2508              		.loc 1 515 0
 2509 03e6 6EE3     		b	.L105
 2510              	.L65:
 516:bluetooth_rxtx.c **** 
 517:bluetooth_rxtx.c **** 	case UBERTOOTH_SET_HGM:
 518:bluetooth_rxtx.c **** 		if (request_params[0])
 2511              		.loc 1 518 0
 2512 03e8 BB68     		ldr	r3, [r7, #8]
 2513 03ea 1B88     		ldrh	r3, [r3]
 2514 03ec 002B     		cmp	r3, #0
 2515 03ee 04D0     		beq	.L116
 519:bluetooth_rxtx.c **** 			HGM_SET;
 2516              		.loc 1 519 0
 2517 03f0 894B     		ldr	r3, .L151+4
 2518 03f2 4FF48072 		mov	r2, #256
 2519 03f6 1A60     		str	r2, [r3]
 520:bluetooth_rxtx.c **** 		else
ARM GAS  /tmp/ccxwuSCA.s 			page 53


 521:bluetooth_rxtx.c **** 			HGM_CLR;
 522:bluetooth_rxtx.c **** 		break;
 2520              		.loc 1 522 0
 2521 03f8 65E3     		b	.L105
 2522              	.L116:
 521:bluetooth_rxtx.c **** 		break;
 2523              		.loc 1 521 0
 2524 03fa 884B     		ldr	r3, .L151+8
 2525 03fc 4FF48072 		mov	r2, #256
 2526 0400 1A60     		str	r2, [r3]
 2527              		.loc 1 522 0
 2528 0402 60E3     		b	.L105
 2529              	.L66:
 523:bluetooth_rxtx.c **** #endif
 524:bluetooth_rxtx.c **** 
 525:bluetooth_rxtx.c **** #ifdef TX_ENABLE
 526:bluetooth_rxtx.c **** 	case UBERTOOTH_TX_TEST:
 527:bluetooth_rxtx.c **** 		requested_mode = MODE_TX_TEST;
 2530              		.loc 1 527 0
 2531 0404 864B     		ldr	r3, .L151+12
 2532 0406 0322     		movs	r2, #3
 2533 0408 1A70     		strb	r2, [r3]
 528:bluetooth_rxtx.c **** 		break;
 2534              		.loc 1 528 0
 2535 040a 5CE3     		b	.L105
 2536              	.L73:
 529:bluetooth_rxtx.c **** 
 530:bluetooth_rxtx.c **** 	case UBERTOOTH_GET_PALEVEL:
 531:bluetooth_rxtx.c **** 		data[0] = cc2400_get(FREND) & 0x7;
 2537              		.loc 1 531 0
 2538 040c 0520     		movs	r0, #5
 2539 040e FFF7FEFF 		bl	cc2400_get
 2540 0412 0346     		mov	r3, r0
 2541 0414 DBB2     		uxtb	r3, r3
 2542 0416 03F00703 		and	r3, r3, #7
 2543 041a DAB2     		uxtb	r2, r3
 2544 041c 7B68     		ldr	r3, [r7, #4]
 2545 041e 1A70     		strb	r2, [r3]
 532:bluetooth_rxtx.c **** 		*data_len = 1;
 2546              		.loc 1 532 0
 2547 0420 3B68     		ldr	r3, [r7]
 2548 0422 0122     		movs	r2, #1
 2549 0424 1A60     		str	r2, [r3]
 533:bluetooth_rxtx.c **** 		break;
 2550              		.loc 1 533 0
 2551 0426 4EE3     		b	.L105
 2552              	.L74:
 534:bluetooth_rxtx.c **** 
 535:bluetooth_rxtx.c **** 	case UBERTOOTH_SET_PALEVEL:
 536:bluetooth_rxtx.c **** 		if( request_params[0] < 8 ) {
 2553              		.loc 1 536 0
 2554 0428 BB68     		ldr	r3, [r7, #8]
 2555 042a 1B88     		ldrh	r3, [r3]
 2556 042c 072B     		cmp	r3, #7
 2557 042e 09D8     		bhi	.L118
 537:bluetooth_rxtx.c **** 			cc2400_set(FREND, 8 | request_params[0]);
 2558              		.loc 1 537 0
ARM GAS  /tmp/ccxwuSCA.s 			page 54


 2559 0430 BB68     		ldr	r3, [r7, #8]
 2560 0432 1B88     		ldrh	r3, [r3]
 2561 0434 43F00803 		orr	r3, r3, #8
 2562 0438 9BB2     		uxth	r3, r3
 2563 043a 0520     		movs	r0, #5
 2564 043c 1946     		mov	r1, r3
 2565 043e FFF7FEFF 		bl	cc2400_set
 538:bluetooth_rxtx.c **** 		} else {
 539:bluetooth_rxtx.c **** 			return 0;
 540:bluetooth_rxtx.c **** 		}
 541:bluetooth_rxtx.c **** 		break;
 2566              		.loc 1 541 0
 2567 0442 40E3     		b	.L105
 2568              	.L118:
 539:bluetooth_rxtx.c **** 		}
 2569              		.loc 1 539 0
 2570 0444 0023     		movs	r3, #0
 2571 0446 3FE3     		b	.L147
 2572              	.L76:
 542:bluetooth_rxtx.c **** 
 543:bluetooth_rxtx.c **** 	case UBERTOOTH_RANGE_TEST:
 544:bluetooth_rxtx.c **** 		requested_mode = MODE_RANGE_TEST;
 2573              		.loc 1 544 0
 2574 0448 754B     		ldr	r3, .L151+12
 2575 044a 0522     		movs	r2, #5
 2576 044c 1A70     		strb	r2, [r3]
 545:bluetooth_rxtx.c **** 		break;
 2577              		.loc 1 545 0
 2578 044e 3AE3     		b	.L105
 2579              	.L75:
 546:bluetooth_rxtx.c **** 
 547:bluetooth_rxtx.c **** 	case UBERTOOTH_REPEATER:
 548:bluetooth_rxtx.c **** 		requested_mode = MODE_REPEATER;
 2580              		.loc 1 548 0
 2581 0450 734B     		ldr	r3, .L151+12
 2582 0452 0622     		movs	r2, #6
 2583 0454 1A70     		strb	r2, [r3]
 549:bluetooth_rxtx.c **** 		break;
 2584              		.loc 1 549 0
 2585 0456 36E3     		b	.L105
 2586              	.L77:
 550:bluetooth_rxtx.c **** #endif
 551:bluetooth_rxtx.c **** 
 552:bluetooth_rxtx.c **** 	case UBERTOOTH_RANGE_CHECK:
 553:bluetooth_rxtx.c **** 		data[0] = rr.valid;
 2587              		.loc 1 553 0
 2588 0458 724B     		ldr	r3, .L151+16
 2589 045a 1A78     		ldrb	r2, [r3]	@ zero_extendqisi2
 2590 045c 7B68     		ldr	r3, [r7, #4]
 2591 045e 1A70     		strb	r2, [r3]
 554:bluetooth_rxtx.c **** 		data[1] = rr.request_pa;
 2592              		.loc 1 554 0
 2593 0460 7B68     		ldr	r3, [r7, #4]
 2594 0462 0133     		adds	r3, r3, #1
 2595 0464 6F4A     		ldr	r2, .L151+16
 2596 0466 5278     		ldrb	r2, [r2, #1]	@ zero_extendqisi2
 2597 0468 1A70     		strb	r2, [r3]
ARM GAS  /tmp/ccxwuSCA.s 			page 55


 555:bluetooth_rxtx.c **** 		data[2] = rr.request_num;
 2598              		.loc 1 555 0
 2599 046a 7B68     		ldr	r3, [r7, #4]
 2600 046c 0233     		adds	r3, r3, #2
 2601 046e 6D4A     		ldr	r2, .L151+16
 2602 0470 9278     		ldrb	r2, [r2, #2]	@ zero_extendqisi2
 2603 0472 1A70     		strb	r2, [r3]
 556:bluetooth_rxtx.c **** 		data[3] = rr.reply_pa;
 2604              		.loc 1 556 0
 2605 0474 7B68     		ldr	r3, [r7, #4]
 2606 0476 0333     		adds	r3, r3, #3
 2607 0478 6A4A     		ldr	r2, .L151+16
 2608 047a D278     		ldrb	r2, [r2, #3]	@ zero_extendqisi2
 2609 047c 1A70     		strb	r2, [r3]
 557:bluetooth_rxtx.c **** 		data[4] = rr.reply_num;
 2610              		.loc 1 557 0
 2611 047e 7B68     		ldr	r3, [r7, #4]
 2612 0480 0433     		adds	r3, r3, #4
 2613 0482 684A     		ldr	r2, .L151+16
 2614 0484 1279     		ldrb	r2, [r2, #4]	@ zero_extendqisi2
 2615 0486 1A70     		strb	r2, [r3]
 558:bluetooth_rxtx.c **** 		*data_len = 5;
 2616              		.loc 1 558 0
 2617 0488 3B68     		ldr	r3, [r7]
 2618 048a 0522     		movs	r2, #5
 2619 048c 1A60     		str	r2, [r3]
 559:bluetooth_rxtx.c **** 		break;
 2620              		.loc 1 559 0
 2621 048e 1AE3     		b	.L105
 2622              	.L67:
 560:bluetooth_rxtx.c **** 
 561:bluetooth_rxtx.c **** 	case UBERTOOTH_STOP:
 562:bluetooth_rxtx.c **** 		requested_mode = MODE_IDLE;
 2623              		.loc 1 562 0
 2624 0490 634B     		ldr	r3, .L151+12
 2625 0492 0022     		movs	r2, #0
 2626 0494 1A70     		strb	r2, [r3]
 563:bluetooth_rxtx.c **** 		break;
 2627              		.loc 1 563 0
 2628 0496 16E3     		b	.L105
 2629              	.L68:
 564:bluetooth_rxtx.c **** 
 565:bluetooth_rxtx.c **** 	case UBERTOOTH_GET_MOD:
 566:bluetooth_rxtx.c **** 		data[0] = modulation;
 2630              		.loc 1 566 0
 2631 0498 634B     		ldr	r3, .L151+20
 2632 049a 1B78     		ldrb	r3, [r3]
 2633 049c DAB2     		uxtb	r2, r3
 2634 049e 7B68     		ldr	r3, [r7, #4]
 2635 04a0 1A70     		strb	r2, [r3]
 567:bluetooth_rxtx.c **** 		*data_len = 1;
 2636              		.loc 1 567 0
 2637 04a2 3B68     		ldr	r3, [r7]
 2638 04a4 0122     		movs	r2, #1
 2639 04a6 1A60     		str	r2, [r3]
 568:bluetooth_rxtx.c **** 		break;
 2640              		.loc 1 568 0
ARM GAS  /tmp/ccxwuSCA.s 			page 56


 2641 04a8 0DE3     		b	.L105
 2642              	.L69:
 569:bluetooth_rxtx.c **** 
 570:bluetooth_rxtx.c **** 	case UBERTOOTH_SET_MOD:
 571:bluetooth_rxtx.c **** 		modulation = request_params[0];
 2643              		.loc 1 571 0
 2644 04aa BB68     		ldr	r3, [r7, #8]
 2645 04ac 1B88     		ldrh	r3, [r3]
 2646 04ae DAB2     		uxtb	r2, r3
 2647 04b0 5D4B     		ldr	r3, .L151+20
 2648 04b2 1A70     		strb	r2, [r3]
 572:bluetooth_rxtx.c **** 		break;
 2649              		.loc 1 572 0
 2650 04b4 07E3     		b	.L105
 2651              	.L57:
 573:bluetooth_rxtx.c **** 
 574:bluetooth_rxtx.c **** 	case UBERTOOTH_GET_CHANNEL:
 575:bluetooth_rxtx.c **** 		data[0] = channel & 0xFF;
 2652              		.loc 1 575 0
 2653 04b6 5D4B     		ldr	r3, .L151+24
 2654 04b8 1B88     		ldrh	r3, [r3]	@ movhi
 2655 04ba 9BB2     		uxth	r3, r3
 2656 04bc DAB2     		uxtb	r2, r3
 2657 04be 7B68     		ldr	r3, [r7, #4]
 2658 04c0 1A70     		strb	r2, [r3]
 576:bluetooth_rxtx.c **** 		data[1] = (channel >> 8) & 0xFF;
 2659              		.loc 1 576 0
 2660 04c2 7B68     		ldr	r3, [r7, #4]
 2661 04c4 0133     		adds	r3, r3, #1
 2662 04c6 594A     		ldr	r2, .L151+24
 2663 04c8 1288     		ldrh	r2, [r2]	@ movhi
 2664 04ca 92B2     		uxth	r2, r2
 2665 04cc 120A     		lsrs	r2, r2, #8
 2666 04ce 92B2     		uxth	r2, r2
 2667 04d0 D2B2     		uxtb	r2, r2
 2668 04d2 1A70     		strb	r2, [r3]
 577:bluetooth_rxtx.c **** 		*data_len = 2;
 2669              		.loc 1 577 0
 2670 04d4 3B68     		ldr	r3, [r7]
 2671 04d6 0222     		movs	r2, #2
 2672 04d8 1A60     		str	r2, [r3]
 578:bluetooth_rxtx.c **** 		break;
 2673              		.loc 1 578 0
 2674 04da F4E2     		b	.L105
 2675              	.L58:
 579:bluetooth_rxtx.c **** 
 580:bluetooth_rxtx.c **** 	case UBERTOOTH_SET_CHANNEL:
 581:bluetooth_rxtx.c **** 		requested_channel = request_params[0];
 2676              		.loc 1 581 0
 2677 04dc BB68     		ldr	r3, [r7, #8]
 2678 04de 1A88     		ldrh	r2, [r3]
 2679 04e0 534B     		ldr	r3, .L151+28
 2680 04e2 1A80     		strh	r2, [r3]	@ movhi
 582:bluetooth_rxtx.c **** 		/* bluetooth band sweep mode, start at channel 2402 */
 583:bluetooth_rxtx.c **** 		if (requested_channel > MAX_FREQ) {
 2681              		.loc 1 583 0
 2682 04e4 524B     		ldr	r3, .L151+28
ARM GAS  /tmp/ccxwuSCA.s 			page 57


 2683 04e6 1B88     		ldrh	r3, [r3]	@ movhi
 2684 04e8 9BB2     		uxth	r3, r3
 2685 04ea 40F6EA22 		movw	r2, #2794
 2686 04ee 9342     		cmp	r3, r2
 2687 04f0 07D9     		bls	.L121
 584:bluetooth_rxtx.c **** 			hop_mode = HOP_SWEEP;
 2688              		.loc 1 584 0
 2689 04f2 504B     		ldr	r3, .L151+32
 2690 04f4 0122     		movs	r2, #1
 2691 04f6 1A70     		strb	r2, [r3]
 585:bluetooth_rxtx.c **** 			requested_channel = 2402;
 2692              		.loc 1 585 0
 2693 04f8 4D4B     		ldr	r3, .L151+28
 2694 04fa 40F66212 		movw	r2, #2402
 2695 04fe 1A80     		strh	r2, [r3]	@ movhi
 2696 0500 20E0     		b	.L122
 2697              	.L121:
 586:bluetooth_rxtx.c **** 		}
 587:bluetooth_rxtx.c **** 		/* fixed channel mode, can be outside bluetooth band */
 588:bluetooth_rxtx.c **** 		else {
 589:bluetooth_rxtx.c **** 			hop_mode = HOP_NONE;
 2698              		.loc 1 589 0
 2699 0502 4C4B     		ldr	r3, .L151+32
 2700 0504 0022     		movs	r2, #0
 2701 0506 1A70     		strb	r2, [r3]
 590:bluetooth_rxtx.c **** 			requested_channel = MAX(requested_channel, MIN_FREQ);
 2702              		.loc 1 590 0
 2703 0508 494B     		ldr	r3, .L151+28
 2704 050a 1B88     		ldrh	r3, [r3]	@ movhi
 2705 050c 9BB2     		uxth	r3, r3
 2706 050e 40F6DC02 		movw	r2, #2268
 2707 0512 9342     		cmp	r3, r2
 2708 0514 03D9     		bls	.L123
 2709              		.loc 1 590 0 is_stmt 0 discriminator 1
 2710 0516 464B     		ldr	r3, .L151+28
 2711 0518 1B88     		ldrh	r3, [r3]	@ movhi
 2712 051a 9BB2     		uxth	r3, r3
 2713 051c 01E0     		b	.L124
 2714              	.L123:
 2715              		.loc 1 590 0 discriminator 2
 2716 051e 40F6DC03 		movw	r3, #2268
 2717              	.L124:
 2718              		.loc 1 590 0 discriminator 4
 2719 0522 434A     		ldr	r2, .L151+28
 2720 0524 1380     		strh	r3, [r2]	@ movhi
 591:bluetooth_rxtx.c **** 			requested_channel = MIN(requested_channel, MAX_FREQ);
 2721              		.loc 1 591 0 is_stmt 1 discriminator 4
 2722 0526 424B     		ldr	r3, .L151+28
 2723 0528 1B88     		ldrh	r3, [r3]	@ movhi
 2724 052a 9BB2     		uxth	r3, r3
 2725 052c 40F6E922 		movw	r2, #2793
 2726 0530 9342     		cmp	r3, r2
 2727 0532 03D8     		bhi	.L125
 2728              		.loc 1 591 0 is_stmt 0 discriminator 1
 2729 0534 3E4B     		ldr	r3, .L151+28
 2730 0536 1B88     		ldrh	r3, [r3]	@ movhi
 2731 0538 9BB2     		uxth	r3, r3
ARM GAS  /tmp/ccxwuSCA.s 			page 58


 2732 053a 01E0     		b	.L126
 2733              	.L125:
 2734              		.loc 1 591 0 discriminator 2
 2735 053c 40F6EA23 		movw	r3, #2794
 2736              	.L126:
 2737              		.loc 1 591 0 discriminator 4
 2738 0540 3B4A     		ldr	r2, .L151+28
 2739 0542 1380     		strh	r3, [r2]	@ movhi
 2740              	.L122:
 592:bluetooth_rxtx.c **** 		}
 593:bluetooth_rxtx.c **** 
 594:bluetooth_rxtx.c **** 		if (mode != MODE_BT_FOLLOW_LE) {
 2741              		.loc 1 594 0 is_stmt 1
 2742 0544 3C4B     		ldr	r3, .L151+36
 2743 0546 1B78     		ldrb	r3, [r3]
 2744 0548 DBB2     		uxtb	r3, r3
 2745 054a 092B     		cmp	r3, #9
 2746 054c 0AD0     		beq	.L127
 595:bluetooth_rxtx.c **** 			channel = requested_channel;
 2747              		.loc 1 595 0
 2748 054e 384B     		ldr	r3, .L151+28
 2749 0550 1B88     		ldrh	r3, [r3]	@ movhi
 2750 0552 9AB2     		uxth	r2, r3
 2751 0554 354B     		ldr	r3, .L151+24
 2752 0556 1A80     		strh	r2, [r3]	@ movhi
 596:bluetooth_rxtx.c **** 			requested_channel = 0;
 2753              		.loc 1 596 0
 2754 0558 354B     		ldr	r3, .L151+28
 2755 055a 0022     		movs	r2, #0
 2756 055c 1A80     		strh	r2, [r3]	@ movhi
 597:bluetooth_rxtx.c **** 
 598:bluetooth_rxtx.c **** 			/* CS threshold is mode-dependent. Update it after
 599:bluetooth_rxtx.c **** 			 * possible mode change. TODO - kludgy. */
 600:bluetooth_rxtx.c **** 			cs_threshold_calc_and_set();
 2757              		.loc 1 600 0
 2758 055e FFF7FEFF 		bl	cs_threshold_calc_and_set
 601:bluetooth_rxtx.c **** 		}
 602:bluetooth_rxtx.c **** 		break;
 2759              		.loc 1 602 0
 2760 0562 B0E2     		b	.L105
 2761              	.L127:
 2762 0564 AFE2     		b	.L105
 2763              	.L70:
 603:bluetooth_rxtx.c **** 
 604:bluetooth_rxtx.c **** 	case UBERTOOTH_SET_ISP:
 605:bluetooth_rxtx.c **** 		command[0] = 57;
 2764              		.loc 1 605 0
 2765 0566 3923     		movs	r3, #57
 2766 0568 7B62     		str	r3, [r7, #36]
 606:bluetooth_rxtx.c **** 		iap_entry(command, result);
 2767              		.loc 1 606 0
 2768 056a 344B     		ldr	r3, .L151+40
 2769 056c 1B68     		ldr	r3, [r3]
 2770 056e 07F12401 		add	r1, r7, #36
 2771 0572 07F11002 		add	r2, r7, #16
 2772 0576 0846     		mov	r0, r1
 2773 0578 1146     		mov	r1, r2
ARM GAS  /tmp/ccxwuSCA.s 			page 59


 2774 057a 9847     		blx	r3
 607:bluetooth_rxtx.c **** 		*data_len = 0; /* should never return */
 2775              		.loc 1 607 0
 2776 057c 3B68     		ldr	r3, [r7]
 2777 057e 0022     		movs	r2, #0
 2778 0580 1A60     		str	r2, [r3]
 608:bluetooth_rxtx.c **** 		break;
 2779              		.loc 1 608 0
 2780 0582 A0E2     		b	.L105
 2781              	.L71:
 609:bluetooth_rxtx.c **** 
 610:bluetooth_rxtx.c **** 	case UBERTOOTH_FLASH:
 611:bluetooth_rxtx.c **** 		bootloader_ctrl = DFU_MODE;
 2782              		.loc 1 611 0
 2783 0584 2E4B     		ldr	r3, .L151+44
 2784 0586 2F4A     		ldr	r2, .L151+48
 2785 0588 1A60     		str	r2, [r3]
 612:bluetooth_rxtx.c **** 		reset();
 2786              		.loc 1 612 0
 2787 058a FFF7FEFF 		bl	reset
 613:bluetooth_rxtx.c **** 		break;
 2788              		.loc 1 613 0
 2789 058e 9AE2     		b	.L105
 2790              	.L72:
 614:bluetooth_rxtx.c **** 
 615:bluetooth_rxtx.c **** 	case UBERTOOTH_SPECAN:
 616:bluetooth_rxtx.c **** 		if (request_params[0] < 2049 || request_params[0] > 3072 || 
 2791              		.loc 1 616 0
 2792 0590 BB68     		ldr	r3, [r7, #8]
 2793 0592 1B88     		ldrh	r3, [r3]
 2794 0594 B3F5006F 		cmp	r3, #2048
 2795 0598 17D9     		bls	.L128
 2796              		.loc 1 616 0 is_stmt 0 discriminator 1
 2797 059a BB68     		ldr	r3, [r7, #8]
 2798 059c 1B88     		ldrh	r3, [r3]
 2799 059e B3F5406F 		cmp	r3, #3072
 2800 05a2 12D8     		bhi	.L128
 617:bluetooth_rxtx.c **** 				request_params[1] < 2049 || request_params[1] > 3072 ||
 2801              		.loc 1 617 0 is_stmt 1 discriminator 2
 2802 05a4 BB68     		ldr	r3, [r7, #8]
 2803 05a6 0233     		adds	r3, r3, #2
 2804 05a8 1B88     		ldrh	r3, [r3]
 616:bluetooth_rxtx.c **** 				request_params[1] < 2049 || request_params[1] > 3072 ||
 2805              		.loc 1 616 0 discriminator 2
 2806 05aa B3F5006F 		cmp	r3, #2048
 2807 05ae 0CD9     		bls	.L128
 2808              		.loc 1 617 0
 2809 05b0 BB68     		ldr	r3, [r7, #8]
 2810 05b2 0233     		adds	r3, r3, #2
 2811 05b4 1B88     		ldrh	r3, [r3]
 2812 05b6 B3F5406F 		cmp	r3, #3072
 2813 05ba 06D8     		bhi	.L128
 618:bluetooth_rxtx.c **** 				request_params[1] < request_params[0])
 2814              		.loc 1 618 0 discriminator 1
 2815 05bc BB68     		ldr	r3, [r7, #8]
 2816 05be 0233     		adds	r3, r3, #2
 2817 05c0 1A88     		ldrh	r2, [r3]
ARM GAS  /tmp/ccxwuSCA.s 			page 60


 2818 05c2 BB68     		ldr	r3, [r7, #8]
 2819 05c4 1B88     		ldrh	r3, [r3]
 617:bluetooth_rxtx.c **** 				request_params[1] < 2049 || request_params[1] > 3072 ||
 2820              		.loc 1 617 0 discriminator 1
 2821 05c6 9A42     		cmp	r2, r3
 2822 05c8 01D2     		bcs	.L129
 2823              	.L128:
 619:bluetooth_rxtx.c **** 			return 0;
 2824              		.loc 1 619 0
 2825 05ca 0023     		movs	r3, #0
 2826 05cc 7CE2     		b	.L147
 2827              	.L129:
 620:bluetooth_rxtx.c **** 		low_freq = request_params[0];
 2828              		.loc 1 620 0
 2829 05ce BB68     		ldr	r3, [r7, #8]
 2830 05d0 1A88     		ldrh	r2, [r3]
 2831 05d2 1D4B     		ldr	r3, .L151+52
 2832 05d4 1A80     		strh	r2, [r3]	@ movhi
 621:bluetooth_rxtx.c **** 		high_freq = request_params[1];
 2833              		.loc 1 621 0
 2834 05d6 BB68     		ldr	r3, [r7, #8]
 2835 05d8 5A88     		ldrh	r2, [r3, #2]
 2836 05da 1C4B     		ldr	r3, .L151+56
 2837 05dc 1A80     		strh	r2, [r3]	@ movhi
 622:bluetooth_rxtx.c **** 		requested_mode = MODE_SPECAN;
 2838              		.loc 1 622 0
 2839 05de 104B     		ldr	r3, .L151+12
 2840 05e0 0422     		movs	r2, #4
 2841 05e2 1A70     		strb	r2, [r3]
 623:bluetooth_rxtx.c **** 		*data_len = 0;
 2842              		.loc 1 623 0
 2843 05e4 3B68     		ldr	r3, [r7]
 2844 05e6 0022     		movs	r2, #0
 2845 05e8 1A60     		str	r2, [r3]
 624:bluetooth_rxtx.c **** 		break;
 2846              		.loc 1 624 0
 2847 05ea 6CE2     		b	.L105
 2848              	.L79:
 625:bluetooth_rxtx.c **** 
 626:bluetooth_rxtx.c **** 	case UBERTOOTH_LED_SPECAN:
 627:bluetooth_rxtx.c **** 		if (request_params[0] > 256)
 2849              		.loc 1 627 0
 2850 05ec BB68     		ldr	r3, [r7, #8]
 2851 05ee 1B88     		ldrh	r3, [r3]
 2852 05f0 B3F5807F 		cmp	r3, #256
 2853 05f4 01D9     		bls	.L130
 628:bluetooth_rxtx.c **** 			return 0;
 2854              		.loc 1 628 0
 2855 05f6 0023     		movs	r3, #0
 2856 05f8 66E2     		b	.L147
 2857              	.L130:
 629:bluetooth_rxtx.c **** 		rssi_threshold = (int8_t)request_params[0];
 2858              		.loc 1 629 0
 2859 05fa BB68     		ldr	r3, [r7, #8]
 2860 05fc 1B88     		ldrh	r3, [r3]
 2861 05fe DAB2     		uxtb	r2, r3
 2862 0600 134B     		ldr	r3, .L151+60
ARM GAS  /tmp/ccxwuSCA.s 			page 61


 2863 0602 1A70     		strb	r2, [r3]
 630:bluetooth_rxtx.c **** 		requested_mode = MODE_LED_SPECAN;
 2864              		.loc 1 630 0
 2865 0604 064B     		ldr	r3, .L151+12
 2866 0606 0722     		movs	r2, #7
 2867 0608 1A70     		strb	r2, [r3]
 631:bluetooth_rxtx.c **** 		*data_len = 0;
 2868              		.loc 1 631 0
 2869 060a 3B68     		ldr	r3, [r7]
 2870 060c 0022     		movs	r2, #0
 2871 060e 1A60     		str	r2, [r3]
 632:bluetooth_rxtx.c **** 		break;
 2872              		.loc 1 632 0
 2873 0610 59E2     		b	.L105
 2874              	.L152:
 2875 0612 00BF     		.align	2
 2876              	.L151:
 2877 0614 54C00920 		.word	537509972
 2878 0618 58C00920 		.word	537509976
 2879 061c 5CC00920 		.word	537509980
 2880 0620 00000000 		.word	requested_mode
 2881 0624 00000000 		.word	rr
 2882 0628 00000000 		.word	modulation
 2883 062c 00000000 		.word	channel
 2884 0630 00000000 		.word	requested_channel
 2885 0634 00000000 		.word	hop_mode
 2886 0638 00000000 		.word	mode
 2887 063c 00000000 		.word	iap_entry
 2888 0640 00000000 		.word	bootloader_ctrl
 2889 0644 21BB0543 		.word	1124449057
 2890 0648 00000000 		.word	low_freq
 2891 064c 00000000 		.word	high_freq
 2892 0650 00000000 		.word	rssi_threshold
 2893              	.L78:
 633:bluetooth_rxtx.c **** 
 634:bluetooth_rxtx.c **** 	case UBERTOOTH_GET_REV_NUM:
 635:bluetooth_rxtx.c **** 		data[0] = 0x00;
 2894              		.loc 1 635 0
 2895 0654 7B68     		ldr	r3, [r7, #4]
 2896 0656 0022     		movs	r2, #0
 2897 0658 1A70     		strb	r2, [r3]
 636:bluetooth_rxtx.c **** 		data[1] = 0x00;
 2898              		.loc 1 636 0
 2899 065a 7B68     		ldr	r3, [r7, #4]
 2900 065c 0133     		adds	r3, r3, #1
 2901 065e 0022     		movs	r2, #0
 2902 0660 1A70     		strb	r2, [r3]
 637:bluetooth_rxtx.c **** 
 638:bluetooth_rxtx.c **** 		length = (u8)strlen(GIT_REVISION);
 2903              		.loc 1 638 0
 2904 0662 A448     		ldr	r0, .L153
 2905 0664 FFF7FEFF 		bl	strlen
 2906 0668 0346     		mov	r3, r0
 2907 066a 87F84330 		strb	r3, [r7, #67]
 639:bluetooth_rxtx.c **** 		data[2] = length;
 2908              		.loc 1 639 0
 2909 066e 7B68     		ldr	r3, [r7, #4]
ARM GAS  /tmp/ccxwuSCA.s 			page 62


 2910 0670 0233     		adds	r3, r3, #2
 2911 0672 97F84320 		ldrb	r2, [r7, #67]
 2912 0676 1A70     		strb	r2, [r3]
 640:bluetooth_rxtx.c **** 
 641:bluetooth_rxtx.c **** 		memcpy(&data[3], GIT_REVISION, length);
 2913              		.loc 1 641 0
 2914 0678 7B68     		ldr	r3, [r7, #4]
 2915 067a DA1C     		adds	r2, r3, #3
 2916 067c 97F84330 		ldrb	r3, [r7, #67]	@ zero_extendqisi2
 2917 0680 1046     		mov	r0, r2
 2918 0682 9C49     		ldr	r1, .L153
 2919 0684 1A46     		mov	r2, r3
 2920 0686 FFF7FEFF 		bl	memcpy
 642:bluetooth_rxtx.c **** 
 643:bluetooth_rxtx.c **** 		*data_len = 2 + 1 + length;
 2921              		.loc 1 643 0
 2922 068a 97F84330 		ldrb	r3, [r7, #67]	@ zero_extendqisi2
 2923 068e DA1C     		adds	r2, r3, #3
 2924 0690 3B68     		ldr	r3, [r7]
 2925 0692 1A60     		str	r2, [r3]
 644:bluetooth_rxtx.c **** 		break;
 2926              		.loc 1 644 0
 2927 0694 17E2     		b	.L105
 2928              	.L100:
 645:bluetooth_rxtx.c **** 
 646:bluetooth_rxtx.c **** 	case UBERTOOTH_GET_COMPILE_INFO:
 647:bluetooth_rxtx.c **** 		length = (u8)strlen(compile_info);
 2929              		.loc 1 647 0
 2930 0696 9848     		ldr	r0, .L153+4
 2931 0698 FFF7FEFF 		bl	strlen
 2932 069c 0346     		mov	r3, r0
 2933 069e 87F84330 		strb	r3, [r7, #67]
 648:bluetooth_rxtx.c **** 		data[0] = length;
 2934              		.loc 1 648 0
 2935 06a2 7B68     		ldr	r3, [r7, #4]
 2936 06a4 97F84320 		ldrb	r2, [r7, #67]
 2937 06a8 1A70     		strb	r2, [r3]
 649:bluetooth_rxtx.c **** 		memcpy(&data[1], compile_info, length);
 2938              		.loc 1 649 0
 2939 06aa 7B68     		ldr	r3, [r7, #4]
 2940 06ac 5A1C     		adds	r2, r3, #1
 2941 06ae 97F84330 		ldrb	r3, [r7, #67]	@ zero_extendqisi2
 2942 06b2 1046     		mov	r0, r2
 2943 06b4 9049     		ldr	r1, .L153+4
 2944 06b6 1A46     		mov	r2, r3
 2945 06b8 FFF7FEFF 		bl	memcpy
 650:bluetooth_rxtx.c **** 		*data_len = 1 + length;
 2946              		.loc 1 650 0
 2947 06bc 97F84330 		ldrb	r3, [r7, #67]	@ zero_extendqisi2
 2948 06c0 5A1C     		adds	r2, r3, #1
 2949 06c2 3B68     		ldr	r3, [r7]
 2950 06c4 1A60     		str	r2, [r3]
 651:bluetooth_rxtx.c **** 		break;
 2951              		.loc 1 651 0
 2952 06c6 FEE1     		b	.L105
 2953              	.L80:
 652:bluetooth_rxtx.c **** 
ARM GAS  /tmp/ccxwuSCA.s 			page 63


 653:bluetooth_rxtx.c **** 	case UBERTOOTH_GET_BOARD_ID:
 654:bluetooth_rxtx.c **** 		data[0] = BOARD_ID;
 2954              		.loc 1 654 0
 2955 06c8 7B68     		ldr	r3, [r7, #4]
 2956 06ca 0122     		movs	r2, #1
 2957 06cc 1A70     		strb	r2, [r3]
 655:bluetooth_rxtx.c **** 		*data_len = 1;
 2958              		.loc 1 655 0
 2959 06ce 3B68     		ldr	r3, [r7]
 2960 06d0 0122     		movs	r2, #1
 2961 06d2 1A60     		str	r2, [r3]
 656:bluetooth_rxtx.c **** 		break;
 2962              		.loc 1 656 0
 2963 06d4 F7E1     		b	.L105
 2964              	.L81:
 657:bluetooth_rxtx.c **** 
 658:bluetooth_rxtx.c **** 	case UBERTOOTH_SET_SQUELCH:
 659:bluetooth_rxtx.c **** 		cs_threshold_req = (int8_t)request_params[0];
 2965              		.loc 1 659 0
 2966 06d6 BB68     		ldr	r3, [r7, #8]
 2967 06d8 1B88     		ldrh	r3, [r3]
 2968 06da DAB2     		uxtb	r2, r3
 2969 06dc 874B     		ldr	r3, .L153+8
 2970 06de 1A70     		strb	r2, [r3]
 660:bluetooth_rxtx.c **** 		cs_threshold_calc_and_set();
 2971              		.loc 1 660 0
 2972 06e0 FFF7FEFF 		bl	cs_threshold_calc_and_set
 661:bluetooth_rxtx.c **** 		break;
 2973              		.loc 1 661 0
 2974 06e4 EFE1     		b	.L105
 2975              	.L82:
 662:bluetooth_rxtx.c **** 
 663:bluetooth_rxtx.c **** 	case UBERTOOTH_GET_SQUELCH:
 664:bluetooth_rxtx.c **** 		data[0] = cs_threshold_req;
 2976              		.loc 1 664 0
 2977 06e6 854B     		ldr	r3, .L153+8
 2978 06e8 1B78     		ldrb	r3, [r3]	@ zero_extendqisi2
 2979 06ea DAB2     		uxtb	r2, r3
 2980 06ec 7B68     		ldr	r3, [r7, #4]
 2981 06ee 1A70     		strb	r2, [r3]
 665:bluetooth_rxtx.c **** 		*data_len = 1;
 2982              		.loc 1 665 0
 2983 06f0 3B68     		ldr	r3, [r7]
 2984 06f2 0122     		movs	r2, #1
 2985 06f4 1A60     		str	r2, [r3]
 666:bluetooth_rxtx.c **** 		break;
 2986              		.loc 1 666 0
 2987 06f6 E6E1     		b	.L105
 2988              	.L83:
 667:bluetooth_rxtx.c **** 
 668:bluetooth_rxtx.c **** 	case UBERTOOTH_SET_BDADDR:
 669:bluetooth_rxtx.c **** 		target.address = 0;
 2989              		.loc 1 669 0
 2990 06f8 8149     		ldr	r1, .L153+12
 2991 06fa 4FF00002 		mov	r2, #0
 2992 06fe 4FF00003 		mov	r3, #0
 2993 0702 C1E90023 		strd	r2, [r1]
ARM GAS  /tmp/ccxwuSCA.s 			page 64


 670:bluetooth_rxtx.c **** 		target.access_code = 0;
 2994              		.loc 1 670 0
 2995 0706 7E49     		ldr	r1, .L153+12
 2996 0708 4FF00002 		mov	r2, #0
 2997 070c 4FF00003 		mov	r3, #0
 2998 0710 C1E90223 		strd	r2, [r1, #8]
 671:bluetooth_rxtx.c **** 		for(i=0; i < 8; i++) {
 2999              		.loc 1 671 0
 3000 0714 0023     		movs	r3, #0
 3001 0716 FB64     		str	r3, [r7, #76]
 3002 0718 25E0     		b	.L131
 3003              	.L132:
 672:bluetooth_rxtx.c **** 			target.address |= (uint64_t)data[i] << 8*i;
 3004              		.loc 1 672 0 discriminator 3
 3005 071a 794B     		ldr	r3, .L153+12
 3006 071c D3E900AB 		ldrd	r10, [r3]
 3007 0720 FB6C     		ldr	r3, [r7, #76]
 3008 0722 7A68     		ldr	r2, [r7, #4]
 3009 0724 1344     		add	r3, r3, r2
 3010 0726 1B78     		ldrb	r3, [r3]	@ zero_extendqisi2
 3011 0728 DAB2     		uxtb	r2, r3
 3012 072a 4FF00003 		mov	r3, #0
 3013 072e F96C     		ldr	r1, [r7, #76]
 3014 0730 C900     		lsls	r1, r1, #3
 3015 0732 A1F12006 		sub	r6, r1, #32
 3016 0736 C1F12000 		rsb	r0, r1, #32
 3017 073a 03FA01F9 		lsl	r9, r3, r1
 3018 073e 02FA06F6 		lsl	r6, r2, r6
 3019 0742 49EA0609 		orr	r9, r9, r6
 3020 0746 22FA00F0 		lsr	r0, r2, r0
 3021 074a 49EA0009 		orr	r9, r9, r0
 3022 074e 02FA01F8 		lsl	r8, r2, r1
 3023 0752 4AEA0802 		orr	r2, r10, r8
 3024 0756 4BEA0903 		orr	r3, fp, r9
 3025 075a 6949     		ldr	r1, .L153+12
 3026 075c C1E90023 		strd	r2, [r1]
 671:bluetooth_rxtx.c **** 		for(i=0; i < 8; i++) {
 3027              		.loc 1 671 0 discriminator 3
 3028 0760 FB6C     		ldr	r3, [r7, #76]
 3029 0762 0133     		adds	r3, r3, #1
 3030 0764 FB64     		str	r3, [r7, #76]
 3031              	.L131:
 671:bluetooth_rxtx.c **** 		for(i=0; i < 8; i++) {
 3032              		.loc 1 671 0 is_stmt 0 discriminator 1
 3033 0766 FB6C     		ldr	r3, [r7, #76]
 3034 0768 072B     		cmp	r3, #7
 3035 076a D6DD     		ble	.L132
 673:bluetooth_rxtx.c **** 		}
 674:bluetooth_rxtx.c **** 		for(i=0; i < 8; i++) {
 3036              		.loc 1 674 0 is_stmt 1
 3037 076c 0023     		movs	r3, #0
 3038 076e FB64     		str	r3, [r7, #76]
 3039 0770 24E0     		b	.L133
 3040              	.L134:
 675:bluetooth_rxtx.c **** 			target.access_code |= (uint64_t)data[i+8] << 8*i;
 3041              		.loc 1 675 0 discriminator 3
 3042 0772 634B     		ldr	r3, .L153+12
ARM GAS  /tmp/ccxwuSCA.s 			page 65


 3043 0774 D3E90289 		ldrd	r8, [r3, #8]
 3044 0778 FB6C     		ldr	r3, [r7, #76]
 3045 077a 0833     		adds	r3, r3, #8
 3046 077c 7A68     		ldr	r2, [r7, #4]
 3047 077e 1344     		add	r3, r3, r2
 3048 0780 1B78     		ldrb	r3, [r3]	@ zero_extendqisi2
 3049 0782 DAB2     		uxtb	r2, r3
 3050 0784 4FF00003 		mov	r3, #0
 3051 0788 F96C     		ldr	r1, [r7, #76]
 3052 078a C900     		lsls	r1, r1, #3
 3053 078c A1F12006 		sub	r6, r1, #32
 3054 0790 C1F12000 		rsb	r0, r1, #32
 3055 0794 03FA01F5 		lsl	r5, r3, r1
 3056 0798 02FA06F6 		lsl	r6, r2, r6
 3057 079c 3543     		orrs	r5, r5, r6
 3058 079e 22FA00F0 		lsr	r0, r2, r0
 3059 07a2 0543     		orrs	r5, r5, r0
 3060 07a4 02FA01F4 		lsl	r4, r2, r1
 3061 07a8 48EA0402 		orr	r2, r8, r4
 3062 07ac 49EA0503 		orr	r3, r9, r5
 3063 07b0 5349     		ldr	r1, .L153+12
 3064 07b2 C1E90223 		strd	r2, [r1, #8]
 674:bluetooth_rxtx.c **** 			target.access_code |= (uint64_t)data[i+8] << 8*i;
 3065              		.loc 1 674 0 discriminator 3
 3066 07b6 FB6C     		ldr	r3, [r7, #76]
 3067 07b8 0133     		adds	r3, r3, #1
 3068 07ba FB64     		str	r3, [r7, #76]
 3069              	.L133:
 674:bluetooth_rxtx.c **** 			target.access_code |= (uint64_t)data[i+8] << 8*i;
 3070              		.loc 1 674 0 is_stmt 0 discriminator 1
 3071 07bc FB6C     		ldr	r3, [r7, #76]
 3072 07be 072B     		cmp	r3, #7
 3073 07c0 D7DD     		ble	.L134
 676:bluetooth_rxtx.c **** 		}
 677:bluetooth_rxtx.c **** 		break;
 3074              		.loc 1 677 0 is_stmt 1
 3075 07c2 80E1     		b	.L105
 3076              	.L84:
 678:bluetooth_rxtx.c **** 
 679:bluetooth_rxtx.c **** 	case UBERTOOTH_START_HOPPING:
 680:bluetooth_rxtx.c **** 		clock_offset = 0;
 3077              		.loc 1 680 0
 3078 07c4 0023     		movs	r3, #0
 3079 07c6 BB64     		str	r3, [r7, #72]
 681:bluetooth_rxtx.c **** 		for(i=0; i < 4; i++) {
 3080              		.loc 1 681 0
 3081 07c8 0023     		movs	r3, #0
 3082 07ca FB64     		str	r3, [r7, #76]
 3083 07cc 0DE0     		b	.L135
 3084              	.L136:
 682:bluetooth_rxtx.c **** 			clock_offset <<= 8;
 3085              		.loc 1 682 0 discriminator 3
 3086 07ce BB6C     		ldr	r3, [r7, #72]
 3087 07d0 1B02     		lsls	r3, r3, #8
 3088 07d2 BB64     		str	r3, [r7, #72]
 683:bluetooth_rxtx.c **** 			clock_offset |= data[i];
 3089              		.loc 1 683 0 discriminator 3
ARM GAS  /tmp/ccxwuSCA.s 			page 66


 3090 07d4 FB6C     		ldr	r3, [r7, #76]
 3091 07d6 7A68     		ldr	r2, [r7, #4]
 3092 07d8 1344     		add	r3, r3, r2
 3093 07da 1B78     		ldrb	r3, [r3]	@ zero_extendqisi2
 3094 07dc 1A46     		mov	r2, r3
 3095 07de BB6C     		ldr	r3, [r7, #72]
 3096 07e0 1343     		orrs	r3, r3, r2
 3097 07e2 BB64     		str	r3, [r7, #72]
 681:bluetooth_rxtx.c **** 		for(i=0; i < 4; i++) {
 3098              		.loc 1 681 0 discriminator 3
 3099 07e4 FB6C     		ldr	r3, [r7, #76]
 3100 07e6 0133     		adds	r3, r3, #1
 3101 07e8 FB64     		str	r3, [r7, #76]
 3102              	.L135:
 681:bluetooth_rxtx.c **** 		for(i=0; i < 4; i++) {
 3103              		.loc 1 681 0 is_stmt 0 discriminator 1
 3104 07ea FB6C     		ldr	r3, [r7, #76]
 3105 07ec 032B     		cmp	r3, #3
 3106 07ee EEDD     		ble	.L136
 684:bluetooth_rxtx.c **** 		}
 685:bluetooth_rxtx.c **** 		clkn += clock_offset;
 3107              		.loc 1 685 0 is_stmt 1
 3108 07f0 444B     		ldr	r3, .L153+16
 3109 07f2 1A68     		ldr	r2, [r3]
 3110 07f4 BB6C     		ldr	r3, [r7, #72]
 3111 07f6 1344     		add	r3, r3, r2
 3112 07f8 424A     		ldr	r2, .L153+16
 3113 07fa 1360     		str	r3, [r2]
 686:bluetooth_rxtx.c **** 		hop_mode = HOP_BLUETOOTH;
 3114              		.loc 1 686 0
 3115 07fc 424B     		ldr	r3, .L153+20
 3116 07fe 0222     		movs	r2, #2
 3117 0800 1A70     		strb	r2, [r3]
 687:bluetooth_rxtx.c **** 		requested_mode = MODE_BT_FOLLOW;
 3118              		.loc 1 687 0
 3119 0802 424B     		ldr	r3, .L153+24
 3120 0804 0822     		movs	r2, #8
 3121 0806 1A70     		strb	r2, [r3]
 688:bluetooth_rxtx.c **** 		break;
 3122              		.loc 1 688 0
 3123 0808 5DE1     		b	.L105
 3124              	.L85:
 689:bluetooth_rxtx.c **** 
 690:bluetooth_rxtx.c **** 	case UBERTOOTH_SET_CLOCK:
 691:bluetooth_rxtx.c **** 		clock = data[0] | data[1] << 8 | data[2] << 16 | data[3] << 24;
 3125              		.loc 1 691 0
 3126 080a 7B68     		ldr	r3, [r7, #4]
 3127 080c 1B78     		ldrb	r3, [r3]	@ zero_extendqisi2
 3128 080e 1A46     		mov	r2, r3
 3129 0810 7B68     		ldr	r3, [r7, #4]
 3130 0812 0133     		adds	r3, r3, #1
 3131 0814 1B78     		ldrb	r3, [r3]	@ zero_extendqisi2
 3132 0816 1B02     		lsls	r3, r3, #8
 3133 0818 1A43     		orrs	r2, r2, r3
 3134 081a 7B68     		ldr	r3, [r7, #4]
 3135 081c 0233     		adds	r3, r3, #2
 3136 081e 1B78     		ldrb	r3, [r3]	@ zero_extendqisi2
ARM GAS  /tmp/ccxwuSCA.s 			page 67


 3137 0820 1B04     		lsls	r3, r3, #16
 3138 0822 1A43     		orrs	r2, r2, r3
 3139 0824 7B68     		ldr	r3, [r7, #4]
 3140 0826 0333     		adds	r3, r3, #3
 3141 0828 1B78     		ldrb	r3, [r3]	@ zero_extendqisi2
 3142 082a 1B06     		lsls	r3, r3, #24
 3143 082c 1343     		orrs	r3, r3, r2
 3144 082e FB63     		str	r3, [r7, #60]
 692:bluetooth_rxtx.c **** 		clkn = clock;
 3145              		.loc 1 692 0
 3146 0830 344A     		ldr	r2, .L153+16
 3147 0832 FB6B     		ldr	r3, [r7, #60]
 3148 0834 1360     		str	r3, [r2]
 693:bluetooth_rxtx.c **** 		cs_threshold_calc_and_set();
 3149              		.loc 1 693 0
 3150 0836 FFF7FEFF 		bl	cs_threshold_calc_and_set
 694:bluetooth_rxtx.c **** 		break;
 3151              		.loc 1 694 0
 3152 083a 44E1     		b	.L105
 3153              	.L96:
 695:bluetooth_rxtx.c **** 
 696:bluetooth_rxtx.c **** 	case UBERTOOTH_SET_AFHMAP:
 697:bluetooth_rxtx.c **** 		for(i=0; i < 10; i++) {
 3154              		.loc 1 697 0
 3155 083c 0023     		movs	r3, #0
 3156 083e FB64     		str	r3, [r7, #76]
 3157 0840 0BE0     		b	.L137
 3158              	.L138:
 698:bluetooth_rxtx.c **** 			afh_map[i] = data[i];
 3159              		.loc 1 698 0 discriminator 3
 3160 0842 FB6C     		ldr	r3, [r7, #76]
 3161 0844 7A68     		ldr	r2, [r7, #4]
 3162 0846 1344     		add	r3, r3, r2
 3163 0848 1978     		ldrb	r1, [r3]	@ zero_extendqisi2
 3164 084a 314A     		ldr	r2, .L153+28
 3165 084c FB6C     		ldr	r3, [r7, #76]
 3166 084e 1344     		add	r3, r3, r2
 3167 0850 0A46     		mov	r2, r1
 3168 0852 1A70     		strb	r2, [r3]
 697:bluetooth_rxtx.c **** 			afh_map[i] = data[i];
 3169              		.loc 1 697 0 discriminator 3
 3170 0854 FB6C     		ldr	r3, [r7, #76]
 3171 0856 0133     		adds	r3, r3, #1
 3172 0858 FB64     		str	r3, [r7, #76]
 3173              	.L137:
 697:bluetooth_rxtx.c **** 			afh_map[i] = data[i];
 3174              		.loc 1 697 0 is_stmt 0 discriminator 1
 3175 085a FB6C     		ldr	r3, [r7, #76]
 3176 085c 092B     		cmp	r3, #9
 3177 085e F0DD     		ble	.L138
 699:bluetooth_rxtx.c **** 		}
 700:bluetooth_rxtx.c **** 		afh_enabled = 1;
 3178              		.loc 1 700 0 is_stmt 1
 3179 0860 2C4B     		ldr	r3, .L153+32
 3180 0862 0122     		movs	r2, #1
 3181 0864 1A70     		strb	r2, [r3]
 701:bluetooth_rxtx.c **** 		*data_len = 10;
ARM GAS  /tmp/ccxwuSCA.s 			page 68


 3182              		.loc 1 701 0
 3183 0866 3B68     		ldr	r3, [r7]
 3184 0868 0A22     		movs	r2, #10
 3185 086a 1A60     		str	r2, [r3]
 702:bluetooth_rxtx.c **** 		break;
 3186              		.loc 1 702 0
 3187 086c 2BE1     		b	.L105
 3188              	.L97:
 703:bluetooth_rxtx.c **** 
 704:bluetooth_rxtx.c **** 	case UBERTOOTH_CLEAR_AFHMAP:
 705:bluetooth_rxtx.c **** 		for(i=0; i < 10; i++) {
 3189              		.loc 1 705 0
 3190 086e 0023     		movs	r3, #0
 3191 0870 FB64     		str	r3, [r7, #76]
 3192 0872 07E0     		b	.L139
 3193              	.L140:
 706:bluetooth_rxtx.c **** 			afh_map[i] = 0;
 3194              		.loc 1 706 0 discriminator 3
 3195 0874 264A     		ldr	r2, .L153+28
 3196 0876 FB6C     		ldr	r3, [r7, #76]
 3197 0878 1344     		add	r3, r3, r2
 3198 087a 0022     		movs	r2, #0
 3199 087c 1A70     		strb	r2, [r3]
 705:bluetooth_rxtx.c **** 			afh_map[i] = 0;
 3200              		.loc 1 705 0 discriminator 3
 3201 087e FB6C     		ldr	r3, [r7, #76]
 3202 0880 0133     		adds	r3, r3, #1
 3203 0882 FB64     		str	r3, [r7, #76]
 3204              	.L139:
 705:bluetooth_rxtx.c **** 			afh_map[i] = 0;
 3205              		.loc 1 705 0 is_stmt 0 discriminator 1
 3206 0884 FB6C     		ldr	r3, [r7, #76]
 3207 0886 092B     		cmp	r3, #9
 3208 0888 F4DD     		ble	.L140
 707:bluetooth_rxtx.c **** 		}
 708:bluetooth_rxtx.c **** 		afh_enabled = 0;
 3209              		.loc 1 708 0 is_stmt 1
 3210 088a 224B     		ldr	r3, .L153+32
 3211 088c 0022     		movs	r2, #0
 3212 088e 1A70     		strb	r2, [r3]
 709:bluetooth_rxtx.c **** 		*data_len = 10;
 3213              		.loc 1 709 0
 3214 0890 3B68     		ldr	r3, [r7]
 3215 0892 0A22     		movs	r2, #10
 3216 0894 1A60     		str	r2, [r3]
 710:bluetooth_rxtx.c **** 		break;
 3217              		.loc 1 710 0
 3218 0896 16E1     		b	.L105
 3219              	.L86:
 711:bluetooth_rxtx.c **** 
 712:bluetooth_rxtx.c **** 	case UBERTOOTH_GET_CLOCK:
 713:bluetooth_rxtx.c **** 		clock = clkn;
 3220              		.loc 1 713 0
 3221 0898 1A4B     		ldr	r3, .L153+16
 3222 089a 1B68     		ldr	r3, [r3]
 3223 089c FB63     		str	r3, [r7, #60]
 714:bluetooth_rxtx.c **** 		for(i=0; i < 4; i++) {
ARM GAS  /tmp/ccxwuSCA.s 			page 69


 3224              		.loc 1 714 0
 3225 089e 0023     		movs	r3, #0
 3226 08a0 FB64     		str	r3, [r7, #76]
 3227 08a2 0CE0     		b	.L141
 3228              	.L142:
 715:bluetooth_rxtx.c **** 			data[i] = (clock >> (8*i)) & 0xff;
 3229              		.loc 1 715 0 discriminator 3
 3230 08a4 FB6C     		ldr	r3, [r7, #76]
 3231 08a6 7A68     		ldr	r2, [r7, #4]
 3232 08a8 1344     		add	r3, r3, r2
 3233 08aa FA6C     		ldr	r2, [r7, #76]
 3234 08ac D200     		lsls	r2, r2, #3
 3235 08ae F96B     		ldr	r1, [r7, #60]
 3236 08b0 21FA02F2 		lsr	r2, r1, r2
 3237 08b4 D2B2     		uxtb	r2, r2
 3238 08b6 1A70     		strb	r2, [r3]
 714:bluetooth_rxtx.c **** 		for(i=0; i < 4; i++) {
 3239              		.loc 1 714 0 discriminator 3
 3240 08b8 FB6C     		ldr	r3, [r7, #76]
 3241 08ba 0133     		adds	r3, r3, #1
 3242 08bc FB64     		str	r3, [r7, #76]
 3243              	.L141:
 714:bluetooth_rxtx.c **** 		for(i=0; i < 4; i++) {
 3244              		.loc 1 714 0 is_stmt 0 discriminator 1
 3245 08be FB6C     		ldr	r3, [r7, #76]
 3246 08c0 032B     		cmp	r3, #3
 3247 08c2 EFDD     		ble	.L142
 716:bluetooth_rxtx.c **** 		}
 717:bluetooth_rxtx.c **** 		*data_len = 4;
 3248              		.loc 1 717 0 is_stmt 1
 3249 08c4 3B68     		ldr	r3, [r7]
 3250 08c6 0422     		movs	r2, #4
 3251 08c8 1A60     		str	r2, [r3]
 718:bluetooth_rxtx.c **** 		break;
 3252              		.loc 1 718 0
 3253 08ca FCE0     		b	.L105
 3254              	.L87:
 719:bluetooth_rxtx.c **** 
 720:bluetooth_rxtx.c **** 	case UBERTOOTH_BTLE_SNIFFING:
 721:bluetooth_rxtx.c **** 		*data_len = 0;
 3255              		.loc 1 721 0
 3256 08cc 3B68     		ldr	r3, [r7]
 3257 08ce 0022     		movs	r2, #0
 3258 08d0 1A60     		str	r2, [r3]
 722:bluetooth_rxtx.c **** 
 723:bluetooth_rxtx.c **** 		do_hop = 0;
 3259              		.loc 1 723 0
 3260 08d2 114B     		ldr	r3, .L153+36
 3261 08d4 0022     		movs	r2, #0
 3262 08d6 1A70     		strb	r2, [r3]
 724:bluetooth_rxtx.c **** 		hop_mode = HOP_BTLE;
 3263              		.loc 1 724 0
 3264 08d8 0B4B     		ldr	r3, .L153+20
 3265 08da 0322     		movs	r2, #3
 3266 08dc 1A70     		strb	r2, [r3]
 725:bluetooth_rxtx.c **** 		requested_mode = MODE_BT_FOLLOW_LE;
 3267              		.loc 1 725 0
ARM GAS  /tmp/ccxwuSCA.s 			page 70


 3268 08de 0B4B     		ldr	r3, .L153+24
 3269 08e0 0922     		movs	r2, #9
 3270 08e2 1A70     		strb	r2, [r3]
 726:bluetooth_rxtx.c **** 
 727:bluetooth_rxtx.c **** 		queue_init();
 3271              		.loc 1 727 0
 3272 08e4 FFF7FEFF 		bl	queue_init
 728:bluetooth_rxtx.c **** 		cs_threshold_calc_and_set();
 3273              		.loc 1 728 0
 3274 08e8 FFF7FEFF 		bl	cs_threshold_calc_and_set
 729:bluetooth_rxtx.c **** 		break;
 3275              		.loc 1 729 0
 3276 08ec EBE0     		b	.L105
 3277              	.L88:
 730:bluetooth_rxtx.c **** 
 731:bluetooth_rxtx.c **** 	case UBERTOOTH_GET_ACCESS_ADDRESS:
 732:bluetooth_rxtx.c **** 		for(i=0; i < 4; i++) {
 3278              		.loc 1 732 0
 3279 08ee 0023     		movs	r3, #0
 3280 08f0 FB64     		str	r3, [r7, #76]
 3281 08f2 21E0     		b	.L143
 3282              	.L154:
 3283              		.align	2
 3284              	.L153:
 3285 08f4 D4080000 		.word	.LC3
 3286 08f8 00000000 		.word	compile_info
 3287 08fc 00000000 		.word	cs_threshold_req
 3288 0900 00000000 		.word	target
 3289 0904 00000000 		.word	clkn
 3290 0908 00000000 		.word	hop_mode
 3291 090c 00000000 		.word	requested_mode
 3292 0910 00000000 		.word	afh_map
 3293 0914 00000000 		.word	afh_enabled
 3294 0918 00000000 		.word	do_hop
 3295              	.L144:
 733:bluetooth_rxtx.c **** 			data[i] = (le.access_address >> (8*i)) & 0xff;
 3296              		.loc 1 733 0 discriminator 3
 3297 091c FB6C     		ldr	r3, [r7, #76]
 3298 091e 7A68     		ldr	r2, [r7, #4]
 3299 0920 1344     		add	r3, r3, r2
 3300 0922 6C4A     		ldr	r2, .L155
 3301 0924 1168     		ldr	r1, [r2]
 3302 0926 FA6C     		ldr	r2, [r7, #76]
 3303 0928 D200     		lsls	r2, r2, #3
 3304 092a 21FA02F2 		lsr	r2, r1, r2
 3305 092e D2B2     		uxtb	r2, r2
 3306 0930 1A70     		strb	r2, [r3]
 732:bluetooth_rxtx.c **** 			data[i] = (le.access_address >> (8*i)) & 0xff;
 3307              		.loc 1 732 0 discriminator 3
 3308 0932 FB6C     		ldr	r3, [r7, #76]
 3309 0934 0133     		adds	r3, r3, #1
 3310 0936 FB64     		str	r3, [r7, #76]
 3311              	.L143:
 732:bluetooth_rxtx.c **** 			data[i] = (le.access_address >> (8*i)) & 0xff;
 3312              		.loc 1 732 0 is_stmt 0 discriminator 1
 3313 0938 FB6C     		ldr	r3, [r7, #76]
 3314 093a 032B     		cmp	r3, #3
ARM GAS  /tmp/ccxwuSCA.s 			page 71


 3315 093c EEDD     		ble	.L144
 734:bluetooth_rxtx.c **** 		}
 735:bluetooth_rxtx.c **** 		*data_len = 4;
 3316              		.loc 1 735 0 is_stmt 1
 3317 093e 3B68     		ldr	r3, [r7]
 3318 0940 0422     		movs	r2, #4
 3319 0942 1A60     		str	r2, [r3]
 736:bluetooth_rxtx.c **** 		break;
 3320              		.loc 1 736 0
 3321 0944 BFE0     		b	.L105
 3322              	.L89:
 737:bluetooth_rxtx.c **** 
 738:bluetooth_rxtx.c **** 	case UBERTOOTH_SET_ACCESS_ADDRESS:
 739:bluetooth_rxtx.c **** 		le_set_access_address(data[0] | data[1] << 8 | data[2] << 16 | data[3] << 24);
 3323              		.loc 1 739 0
 3324 0946 7B68     		ldr	r3, [r7, #4]
 3325 0948 1B78     		ldrb	r3, [r3]	@ zero_extendqisi2
 3326 094a 1A46     		mov	r2, r3
 3327 094c 7B68     		ldr	r3, [r7, #4]
 3328 094e 0133     		adds	r3, r3, #1
 3329 0950 1B78     		ldrb	r3, [r3]	@ zero_extendqisi2
 3330 0952 1B02     		lsls	r3, r3, #8
 3331 0954 1A43     		orrs	r2, r2, r3
 3332 0956 7B68     		ldr	r3, [r7, #4]
 3333 0958 0233     		adds	r3, r3, #2
 3334 095a 1B78     		ldrb	r3, [r3]	@ zero_extendqisi2
 3335 095c 1B04     		lsls	r3, r3, #16
 3336 095e 1A43     		orrs	r2, r2, r3
 3337 0960 7B68     		ldr	r3, [r7, #4]
 3338 0962 0333     		adds	r3, r3, #3
 3339 0964 1B78     		ldrb	r3, [r3]	@ zero_extendqisi2
 3340 0966 1B06     		lsls	r3, r3, #24
 3341 0968 1343     		orrs	r3, r3, r2
 3342 096a 1846     		mov	r0, r3
 3343 096c FFF7FEFF 		bl	le_set_access_address
 740:bluetooth_rxtx.c **** 		le.target_set = 1;
 3344              		.loc 1 740 0
 3345 0970 584B     		ldr	r3, .L155
 3346 0972 0122     		movs	r2, #1
 3347 0974 DA63     		str	r2, [r3, #60]
 741:bluetooth_rxtx.c **** 		break;
 3348              		.loc 1 741 0
 3349 0976 A6E0     		b	.L105
 3350              	.L91:
 742:bluetooth_rxtx.c **** 
 743:bluetooth_rxtx.c **** 	case UBERTOOTH_DO_SOMETHING:
 744:bluetooth_rxtx.c **** 		// do something! just don't commit anything here
 745:bluetooth_rxtx.c **** 		break;
 746:bluetooth_rxtx.c **** 
 747:bluetooth_rxtx.c **** 	case UBERTOOTH_DO_SOMETHING_REPLY:
 748:bluetooth_rxtx.c **** 		// after you do something, tell me what you did!
 749:bluetooth_rxtx.c **** 		// don't commit here please
 750:bluetooth_rxtx.c **** 		data[0] = 0x13;
 3351              		.loc 1 750 0
 3352 0978 7B68     		ldr	r3, [r7, #4]
 3353 097a 1322     		movs	r2, #19
 3354 097c 1A70     		strb	r2, [r3]
ARM GAS  /tmp/ccxwuSCA.s 			page 72


 751:bluetooth_rxtx.c **** 		data[1] = 0x37;
 3355              		.loc 1 751 0
 3356 097e 7B68     		ldr	r3, [r7, #4]
 3357 0980 0133     		adds	r3, r3, #1
 3358 0982 3722     		movs	r2, #55
 3359 0984 1A70     		strb	r2, [r3]
 752:bluetooth_rxtx.c **** 		*data_len = 2;
 3360              		.loc 1 752 0
 3361 0986 3B68     		ldr	r3, [r7]
 3362 0988 0222     		movs	r2, #2
 3363 098a 1A60     		str	r2, [r3]
 753:bluetooth_rxtx.c **** 		break;
 3364              		.loc 1 753 0
 3365 098c 9BE0     		b	.L105
 3366              	.L92:
 754:bluetooth_rxtx.c **** 
 755:bluetooth_rxtx.c **** 	case UBERTOOTH_GET_CRC_VERIFY:
 756:bluetooth_rxtx.c **** 		data[0] = le.crc_verify ? 1 : 0;
 3367              		.loc 1 756 0
 3368 098e 514B     		ldr	r3, .L155
 3369 0990 1B69     		ldr	r3, [r3, #16]
 3370 0992 002B     		cmp	r3, #0
 3371 0994 14BF     		ite	ne
 3372 0996 0123     		movne	r3, #1
 3373 0998 0023     		moveq	r3, #0
 3374 099a DBB2     		uxtb	r3, r3
 3375 099c 1A46     		mov	r2, r3
 3376 099e 7B68     		ldr	r3, [r7, #4]
 3377 09a0 1A70     		strb	r2, [r3]
 757:bluetooth_rxtx.c **** 		*data_len = 1;
 3378              		.loc 1 757 0
 3379 09a2 3B68     		ldr	r3, [r7]
 3380 09a4 0122     		movs	r2, #1
 3381 09a6 1A60     		str	r2, [r3]
 758:bluetooth_rxtx.c **** 		break;
 3382              		.loc 1 758 0
 3383 09a8 8DE0     		b	.L105
 3384              	.L93:
 759:bluetooth_rxtx.c **** 
 760:bluetooth_rxtx.c **** 	case UBERTOOTH_SET_CRC_VERIFY:
 761:bluetooth_rxtx.c **** 		le.crc_verify = request_params[0] ? 1 : 0;
 3385              		.loc 1 761 0
 3386 09aa BB68     		ldr	r3, [r7, #8]
 3387 09ac 1B88     		ldrh	r3, [r3]
 3388 09ae 002B     		cmp	r3, #0
 3389 09b0 14BF     		ite	ne
 3390 09b2 0123     		movne	r3, #1
 3391 09b4 0023     		moveq	r3, #0
 3392 09b6 DBB2     		uxtb	r3, r3
 3393 09b8 1A46     		mov	r2, r3
 3394 09ba 464B     		ldr	r3, .L155
 3395 09bc 1A61     		str	r2, [r3, #16]
 762:bluetooth_rxtx.c **** 		break;
 3396              		.loc 1 762 0
 3397 09be 82E0     		b	.L105
 3398              	.L94:
 763:bluetooth_rxtx.c **** 
ARM GAS  /tmp/ccxwuSCA.s 			page 73


 764:bluetooth_rxtx.c **** 	case UBERTOOTH_POLL:
 765:bluetooth_rxtx.c **** 		p = dequeue();
 3399              		.loc 1 765 0
 3400 09c0 FFF7FEFF 		bl	dequeue
 3401 09c4 7864     		str	r0, [r7, #68]
 766:bluetooth_rxtx.c **** 		if (p != NULL) {
 3402              		.loc 1 766 0
 3403 09c6 7B6C     		ldr	r3, [r7, #68]
 3404 09c8 002B     		cmp	r3, #0
 3405 09ca 08D0     		beq	.L145
 767:bluetooth_rxtx.c **** 			memcpy(data, (void *)p, sizeof(usb_pkt_rx));
 3406              		.loc 1 767 0
 3407 09cc 7868     		ldr	r0, [r7, #4]
 3408 09ce 796C     		ldr	r1, [r7, #68]
 3409 09d0 4022     		movs	r2, #64
 3410 09d2 FFF7FEFF 		bl	memcpy
 768:bluetooth_rxtx.c **** 			*data_len = sizeof(usb_pkt_rx);
 3411              		.loc 1 768 0
 3412 09d6 3B68     		ldr	r3, [r7]
 3413 09d8 4022     		movs	r2, #64
 3414 09da 1A60     		str	r2, [r3]
 769:bluetooth_rxtx.c **** 		} else {
 770:bluetooth_rxtx.c **** 			data[0] = 0;
 771:bluetooth_rxtx.c **** 			*data_len = 1;
 772:bluetooth_rxtx.c **** 		}
 773:bluetooth_rxtx.c **** 		break;
 3415              		.loc 1 773 0
 3416 09dc 73E0     		b	.L105
 3417              	.L145:
 770:bluetooth_rxtx.c **** 			*data_len = 1;
 3418              		.loc 1 770 0
 3419 09de 7B68     		ldr	r3, [r7, #4]
 3420 09e0 0022     		movs	r2, #0
 3421 09e2 1A70     		strb	r2, [r3]
 771:bluetooth_rxtx.c **** 		}
 3422              		.loc 1 771 0
 3423 09e4 3B68     		ldr	r3, [r7]
 3424 09e6 0122     		movs	r2, #1
 3425 09e8 1A60     		str	r2, [r3]
 3426              		.loc 1 773 0
 3427 09ea 6CE0     		b	.L105
 3428              	.L95:
 774:bluetooth_rxtx.c **** 
 775:bluetooth_rxtx.c **** 	case UBERTOOTH_BTLE_PROMISC:
 776:bluetooth_rxtx.c **** 		*data_len = 0;
 3429              		.loc 1 776 0
 3430 09ec 3B68     		ldr	r3, [r7]
 3431 09ee 0022     		movs	r2, #0
 3432 09f0 1A60     		str	r2, [r3]
 777:bluetooth_rxtx.c **** 
 778:bluetooth_rxtx.c **** 		hop_mode = HOP_NONE;
 3433              		.loc 1 778 0
 3434 09f2 394B     		ldr	r3, .L155+4
 3435 09f4 0022     		movs	r2, #0
 3436 09f6 1A70     		strb	r2, [r3]
 779:bluetooth_rxtx.c **** 		requested_mode = MODE_BT_PROMISC_LE;
 3437              		.loc 1 779 0
ARM GAS  /tmp/ccxwuSCA.s 			page 74


 3438 09f8 384B     		ldr	r3, .L155+8
 3439 09fa 0A22     		movs	r2, #10
 3440 09fc 1A70     		strb	r2, [r3]
 780:bluetooth_rxtx.c **** 
 781:bluetooth_rxtx.c **** 		queue_init();
 3441              		.loc 1 781 0
 3442 09fe FFF7FEFF 		bl	queue_init
 782:bluetooth_rxtx.c **** 		cs_threshold_calc_and_set();
 3443              		.loc 1 782 0
 3444 0a02 FFF7FEFF 		bl	cs_threshold_calc_and_set
 783:bluetooth_rxtx.c **** 		break;
 3445              		.loc 1 783 0
 3446 0a06 5EE0     		b	.L105
 3447              	.L98:
 784:bluetooth_rxtx.c **** 
 785:bluetooth_rxtx.c **** 	case UBERTOOTH_READ_REGISTER:
 786:bluetooth_rxtx.c **** 		reg_val = cc2400_get(request_params[0]);
 3448              		.loc 1 786 0
 3449 0a08 BB68     		ldr	r3, [r7, #8]
 3450 0a0a 1B88     		ldrh	r3, [r3]
 3451 0a0c DBB2     		uxtb	r3, r3
 3452 0a0e 1846     		mov	r0, r3
 3453 0a10 FFF7FEFF 		bl	cc2400_get
 3454 0a14 0346     		mov	r3, r0
 3455 0a16 7B87     		strh	r3, [r7, #58]	@ movhi
 787:bluetooth_rxtx.c **** 		data[0] = (reg_val >> 8) & 0xff;
 3456              		.loc 1 787 0
 3457 0a18 7B8F     		ldrh	r3, [r7, #58]
 3458 0a1a 1B0A     		lsrs	r3, r3, #8
 3459 0a1c 9BB2     		uxth	r3, r3
 3460 0a1e DAB2     		uxtb	r2, r3
 3461 0a20 7B68     		ldr	r3, [r7, #4]
 3462 0a22 1A70     		strb	r2, [r3]
 788:bluetooth_rxtx.c **** 		data[1] = reg_val & 0xff;
 3463              		.loc 1 788 0
 3464 0a24 7B68     		ldr	r3, [r7, #4]
 3465 0a26 0133     		adds	r3, r3, #1
 3466 0a28 7A8F     		ldrh	r2, [r7, #58]	@ movhi
 3467 0a2a D2B2     		uxtb	r2, r2
 3468 0a2c 1A70     		strb	r2, [r3]
 789:bluetooth_rxtx.c **** 		*data_len = 2;
 3469              		.loc 1 789 0
 3470 0a2e 3B68     		ldr	r3, [r7]
 3471 0a30 0222     		movs	r2, #2
 3472 0a32 1A60     		str	r2, [r3]
 790:bluetooth_rxtx.c **** 		break;
 3473              		.loc 1 790 0
 3474 0a34 47E0     		b	.L105
 3475              	.L102:
 791:bluetooth_rxtx.c **** 
 792:bluetooth_rxtx.c **** 	case UBERTOOTH_WRITE_REGISTER:
 793:bluetooth_rxtx.c **** 		cc2400_set(request_params[0] & 0xff, request_params[1]);
 3476              		.loc 1 793 0
 3477 0a36 BB68     		ldr	r3, [r7, #8]
 3478 0a38 1B88     		ldrh	r3, [r3]
 3479 0a3a DAB2     		uxtb	r2, r3
 3480 0a3c BB68     		ldr	r3, [r7, #8]
ARM GAS  /tmp/ccxwuSCA.s 			page 75


 3481 0a3e 0233     		adds	r3, r3, #2
 3482 0a40 1B88     		ldrh	r3, [r3]
 3483 0a42 1046     		mov	r0, r2
 3484 0a44 1946     		mov	r1, r3
 3485 0a46 FFF7FEFF 		bl	cc2400_set
 794:bluetooth_rxtx.c **** 		break;
 3486              		.loc 1 794 0
 3487 0a4a 3CE0     		b	.L105
 3488              	.L99:
 795:bluetooth_rxtx.c **** 
 796:bluetooth_rxtx.c **** 	case UBERTOOTH_BTLE_SLAVE:
 797:bluetooth_rxtx.c **** 		memcpy(slave_mac_address, data, 6);
 3489              		.loc 1 797 0
 3490 0a4c 2448     		ldr	r0, .L155+12
 3491 0a4e 7968     		ldr	r1, [r7, #4]
 3492 0a50 0622     		movs	r2, #6
 3493 0a52 FFF7FEFF 		bl	memcpy
 798:bluetooth_rxtx.c **** 		requested_mode = MODE_BT_SLAVE_LE;
 3494              		.loc 1 798 0
 3495 0a56 214B     		ldr	r3, .L155+8
 3496 0a58 0C22     		movs	r2, #12
 3497 0a5a 1A70     		strb	r2, [r3]
 799:bluetooth_rxtx.c **** 		break;
 3498              		.loc 1 799 0
 3499 0a5c 33E0     		b	.L105
 3500              	.L101:
 800:bluetooth_rxtx.c **** 
 801:bluetooth_rxtx.c **** 	case UBERTOOTH_BTLE_SET_TARGET:
 802:bluetooth_rxtx.c **** 		// Addresses appear in packets in reverse-octet order.
 803:bluetooth_rxtx.c **** 		// Store the target address in reverse order so that we can do a simple memcmp later
 804:bluetooth_rxtx.c **** 		le.target[0] = data[5];
 3501              		.loc 1 804 0
 3502 0a5e 7B68     		ldr	r3, [r7, #4]
 3503 0a60 5A79     		ldrb	r2, [r3, #5]	@ zero_extendqisi2
 3504 0a62 1C4B     		ldr	r3, .L155
 3505 0a64 83F83420 		strb	r2, [r3, #52]
 805:bluetooth_rxtx.c **** 		le.target[1] = data[4];
 3506              		.loc 1 805 0
 3507 0a68 7B68     		ldr	r3, [r7, #4]
 3508 0a6a 1A79     		ldrb	r2, [r3, #4]	@ zero_extendqisi2
 3509 0a6c 194B     		ldr	r3, .L155
 3510 0a6e 83F83520 		strb	r2, [r3, #53]
 806:bluetooth_rxtx.c **** 		le.target[2] = data[3];
 3511              		.loc 1 806 0
 3512 0a72 7B68     		ldr	r3, [r7, #4]
 3513 0a74 DA78     		ldrb	r2, [r3, #3]	@ zero_extendqisi2
 3514 0a76 174B     		ldr	r3, .L155
 3515 0a78 83F83620 		strb	r2, [r3, #54]
 807:bluetooth_rxtx.c **** 		le.target[3] = data[2];
 3516              		.loc 1 807 0
 3517 0a7c 7B68     		ldr	r3, [r7, #4]
 3518 0a7e 9A78     		ldrb	r2, [r3, #2]	@ zero_extendqisi2
 3519 0a80 144B     		ldr	r3, .L155
 3520 0a82 83F83720 		strb	r2, [r3, #55]
 808:bluetooth_rxtx.c **** 		le.target[4] = data[1];
 3521              		.loc 1 808 0
 3522 0a86 7B68     		ldr	r3, [r7, #4]
ARM GAS  /tmp/ccxwuSCA.s 			page 76


 3523 0a88 5A78     		ldrb	r2, [r3, #1]	@ zero_extendqisi2
 3524 0a8a 124B     		ldr	r3, .L155
 3525 0a8c 83F83820 		strb	r2, [r3, #56]
 809:bluetooth_rxtx.c **** 		le.target[5] = data[0];
 3526              		.loc 1 809 0
 3527 0a90 7B68     		ldr	r3, [r7, #4]
 3528 0a92 1A78     		ldrb	r2, [r3]	@ zero_extendqisi2
 3529 0a94 0F4B     		ldr	r3, .L155
 3530 0a96 83F83920 		strb	r2, [r3, #57]
 810:bluetooth_rxtx.c **** 		le.target_set = 1;
 3531              		.loc 1 810 0
 3532 0a9a 0E4B     		ldr	r3, .L155
 3533 0a9c 0122     		movs	r2, #1
 3534 0a9e DA63     		str	r2, [r3, #60]
 811:bluetooth_rxtx.c **** 		break;
 3535              		.loc 1 811 0
 3536 0aa0 11E0     		b	.L105
 3537              	.L103:
 812:bluetooth_rxtx.c **** 
 813:bluetooth_rxtx.c **** #ifdef TX_ENABLE
 814:bluetooth_rxtx.c **** 	case UBERTOOTH_JAM_MODE:
 815:bluetooth_rxtx.c **** 		jam_mode = request_params[0];
 3538              		.loc 1 815 0
 3539 0aa2 BB68     		ldr	r3, [r7, #8]
 3540 0aa4 1B88     		ldrh	r3, [r3]
 3541 0aa6 DAB2     		uxtb	r2, r3
 3542 0aa8 0E4B     		ldr	r3, .L155+16
 3543 0aaa 1A70     		strb	r2, [r3]
 816:bluetooth_rxtx.c **** 		break;
 3544              		.loc 1 816 0
 3545 0aac 0BE0     		b	.L105
 3546              	.L104:
 817:bluetooth_rxtx.c **** #endif
 818:bluetooth_rxtx.c **** 
 819:bluetooth_rxtx.c **** 	case UBERTOOTH_EGO:
 820:bluetooth_rxtx.c **** #ifndef TX_ENABLE
 821:bluetooth_rxtx.c **** 		if (ego_mode == EGO_JAM)
 822:bluetooth_rxtx.c **** 			return 0;
 823:bluetooth_rxtx.c **** #endif
 824:bluetooth_rxtx.c **** 		requested_mode = MODE_EGO;
 3547              		.loc 1 824 0
 3548 0aae 0B4B     		ldr	r3, .L155+8
 3549 0ab0 0D22     		movs	r2, #13
 3550 0ab2 1A70     		strb	r2, [r3]
 825:bluetooth_rxtx.c **** 		ego_mode = request_params[0];
 3551              		.loc 1 825 0
 3552 0ab4 BB68     		ldr	r3, [r7, #8]
 3553 0ab6 1B88     		ldrh	r3, [r3]
 3554 0ab8 DAB2     		uxtb	r2, r3
 3555 0aba 0B4B     		ldr	r3, .L155+20
 3556 0abc 1A70     		strb	r2, [r3]
 826:bluetooth_rxtx.c **** 		break;
 3557              		.loc 1 826 0
 3558 0abe 02E0     		b	.L105
 3559              	.L45:
 827:bluetooth_rxtx.c **** 
 828:bluetooth_rxtx.c **** 	default:
ARM GAS  /tmp/ccxwuSCA.s 			page 77


 829:bluetooth_rxtx.c **** 		return 0;
 3560              		.loc 1 829 0
 3561 0ac0 0023     		movs	r3, #0
 3562 0ac2 01E0     		b	.L147
 3563              	.L148:
 745:bluetooth_rxtx.c **** 
 3564              		.loc 1 745 0
 3565 0ac4 00BF     		nop
 3566              	.L105:
 830:bluetooth_rxtx.c **** 	}
 831:bluetooth_rxtx.c **** 	return 1;
 3567              		.loc 1 831 0
 3568 0ac6 0123     		movs	r3, #1
 3569              	.L147:
 832:bluetooth_rxtx.c **** }
 3570              		.loc 1 832 0 discriminator 1
 3571 0ac8 1846     		mov	r0, r3
 3572 0aca 5437     		adds	r7, r7, #84
 3573              		.cfi_def_cfa_offset 36
 3574 0acc BD46     		mov	sp, r7
 3575              		.cfi_def_cfa_register 13
 3576              		@ sp needed
 3577 0ace BDE8F08F 		pop	{r4, r5, r6, r7, r8, r9, r10, fp, pc}
 3578              	.L156:
 3579 0ad2 00BF     		.align	2
 3580              	.L155:
 3581 0ad4 00000000 		.word	le
 3582 0ad8 00000000 		.word	hop_mode
 3583 0adc 00000000 		.word	requested_mode
 3584 0ae0 00000000 		.word	slave_mac_address
 3585 0ae4 00000000 		.word	jam_mode
 3586 0ae8 00000000 		.word	ego_mode
 3587              		.cfi_endproc
 3588              	.LFE9:
 3590              		.section	.text.clkn_init,"ax",%progbits
 3591              		.align	2
 3592              		.thumb
 3593              		.thumb_func
 3595              	clkn_init:
 3596              	.LFB10:
 833:bluetooth_rxtx.c **** 
 834:bluetooth_rxtx.c **** static void clkn_init()
 835:bluetooth_rxtx.c **** {
 3597              		.loc 1 835 0
 3598              		.cfi_startproc
 3599              		@ args = 0, pretend = 0, frame = 0
 3600              		@ frame_needed = 1, uses_anonymous_args = 0
 3601              		@ link register save eliminated.
 3602 0000 80B4     		push	{r7}
 3603              		.cfi_def_cfa_offset 4
 3604              		.cfi_offset 7, -4
 3605 0002 00AF     		add	r7, sp, #0
 3606              		.cfi_def_cfa_register 7
 836:bluetooth_rxtx.c **** 	/*
 837:bluetooth_rxtx.c **** 	 * Because these are reset defaults, we're assuming TIMER0 is powered on
 838:bluetooth_rxtx.c **** 	 * and in timer mode.  The TIMER0 peripheral clock should have been set by
 839:bluetooth_rxtx.c **** 	 * clock_start().
ARM GAS  /tmp/ccxwuSCA.s 			page 78


 840:bluetooth_rxtx.c **** 	 */
 841:bluetooth_rxtx.c **** 
 842:bluetooth_rxtx.c **** 	/* stop and reset the timer to zero */
 843:bluetooth_rxtx.c **** 	T0TCR = TCR_Counter_Reset;
 3607              		.loc 1 843 0
 3608 0004 0C4B     		ldr	r3, .L158
 3609 0006 0222     		movs	r2, #2
 3610 0008 1A60     		str	r2, [r3]
 844:bluetooth_rxtx.c **** 	clkn = 0;
 3611              		.loc 1 844 0
 3612 000a 0C4B     		ldr	r3, .L158+4
 3613 000c 0022     		movs	r2, #0
 3614 000e 1A60     		str	r2, [r3]
 845:bluetooth_rxtx.c **** 
 846:bluetooth_rxtx.c **** #ifdef TC13BADGE
 847:bluetooth_rxtx.c **** 	/*
 848:bluetooth_rxtx.c **** 	 * The peripheral clock has a period of 33.3ns.  3 pclk periods makes one
 849:bluetooth_rxtx.c **** 	 * CLK100NS period (100 ns).
 850:bluetooth_rxtx.c **** 	 */
 851:bluetooth_rxtx.c **** 	T0PR = 2;
 852:bluetooth_rxtx.c **** #else
 853:bluetooth_rxtx.c **** 	/*
 854:bluetooth_rxtx.c **** 	 * The peripheral clock has a period of 20ns.  5 pclk periods
 855:bluetooth_rxtx.c **** 	 * makes one CLK100NS period (100 ns).
 856:bluetooth_rxtx.c **** 	 */
 857:bluetooth_rxtx.c **** 	T0PR = 4;
 3615              		.loc 1 857 0
 3616 0010 0B4B     		ldr	r3, .L158+8
 3617 0012 0422     		movs	r2, #4
 3618 0014 1A60     		str	r2, [r3]
 858:bluetooth_rxtx.c **** #endif
 859:bluetooth_rxtx.c **** 	/* 3125 * 100 ns = 312.5 us, the Bluetooth clock (CLKN). */
 860:bluetooth_rxtx.c **** 	T0MR0 = 3124;
 3619              		.loc 1 860 0
 3620 0016 0B4B     		ldr	r3, .L158+12
 3621 0018 40F63442 		movw	r2, #3124
 3622 001c 1A60     		str	r2, [r3]
 861:bluetooth_rxtx.c **** 	T0MCR = TMCR_MR0R | TMCR_MR0I;
 3623              		.loc 1 861 0
 3624 001e 0A4B     		ldr	r3, .L158+16
 3625 0020 0322     		movs	r2, #3
 3626 0022 1A60     		str	r2, [r3]
 862:bluetooth_rxtx.c **** 	ISER0 = ISER0_ISE_TIMER0;
 3627              		.loc 1 862 0
 3628 0024 094B     		ldr	r3, .L158+20
 3629 0026 0222     		movs	r2, #2
 3630 0028 1A60     		str	r2, [r3]
 863:bluetooth_rxtx.c **** 
 864:bluetooth_rxtx.c **** 	/* start timer */
 865:bluetooth_rxtx.c **** 	T0TCR = TCR_Counter_Enable;
 3631              		.loc 1 865 0
 3632 002a 034B     		ldr	r3, .L158
 3633 002c 0122     		movs	r2, #1
 3634 002e 1A60     		str	r2, [r3]
 866:bluetooth_rxtx.c **** }
 3635              		.loc 1 866 0
 3636 0030 BD46     		mov	sp, r7
ARM GAS  /tmp/ccxwuSCA.s 			page 79


 3637              		.cfi_def_cfa_register 13
 3638              		@ sp needed
 3639 0032 5DF8047B 		ldr	r7, [sp], #4
 3640              		.cfi_restore 7
 3641              		.cfi_def_cfa_offset 0
 3642 0036 7047     		bx	lr
 3643              	.L159:
 3644              		.align	2
 3645              	.L158:
 3646 0038 04400040 		.word	1073758212
 3647 003c 00000000 		.word	clkn
 3648 0040 0C400040 		.word	1073758220
 3649 0044 18400040 		.word	1073758232
 3650 0048 14400040 		.word	1073758228
 3651 004c 00E100E0 		.word	-536813312
 3652              		.cfi_endproc
 3653              	.LFE10:
 3655              		.section	.text.TIMER0_IRQHandler,"ax",%progbits
 3656              		.align	2
 3657              		.global	TIMER0_IRQHandler
 3658              		.thumb
 3659              		.thumb_func
 3661              	TIMER0_IRQHandler:
 3662              	.LFB11:
 867:bluetooth_rxtx.c **** 
 868:bluetooth_rxtx.c **** /* Update CLKN. */
 869:bluetooth_rxtx.c **** void TIMER0_IRQHandler()
 870:bluetooth_rxtx.c **** {
 3663              		.loc 1 870 0
 3664              		.cfi_startproc
 3665              		@ args = 0, pretend = 0, frame = 8
 3666              		@ frame_needed = 1, uses_anonymous_args = 0
 3667              		@ link register save eliminated.
 3668 0000 80B4     		push	{r7}
 3669              		.cfi_def_cfa_offset 4
 3670              		.cfi_offset 7, -4
 3671 0002 83B0     		sub	sp, sp, #12
 3672              		.cfi_def_cfa_offset 16
 3673 0004 00AF     		add	r7, sp, #0
 3674              		.cfi_def_cfa_register 7
 871:bluetooth_rxtx.c **** 	// Use non-volatile working register to shave off a couple instructions
 872:bluetooth_rxtx.c **** 	u32 next;
 873:bluetooth_rxtx.c **** 	u32 le_clk;
 874:bluetooth_rxtx.c **** 
 875:bluetooth_rxtx.c **** 	if (T0IR & TIR_MR0_Interrupt) {
 3675              		.loc 1 875 0
 3676 0006 4FF04023 		mov	r3, #1073758208
 3677 000a 1B68     		ldr	r3, [r3]
 3678 000c 03F00103 		and	r3, r3, #1
 3679 0010 002B     		cmp	r3, #0
 3680 0012 6DD0     		beq	.L160
 876:bluetooth_rxtx.c **** 
 877:bluetooth_rxtx.c **** 		clkn++;
 3681              		.loc 1 877 0
 3682 0014 394B     		ldr	r3, .L170
 3683 0016 1B68     		ldr	r3, [r3]
 3684 0018 0133     		adds	r3, r3, #1
ARM GAS  /tmp/ccxwuSCA.s 			page 80


 3685 001a 384A     		ldr	r2, .L170
 3686 001c 1360     		str	r3, [r2]
 878:bluetooth_rxtx.c **** 		next = clkn;
 3687              		.loc 1 878 0
 3688 001e 374B     		ldr	r3, .L170
 3689 0020 1B68     		ldr	r3, [r3]
 3690 0022 7B60     		str	r3, [r7, #4]
 879:bluetooth_rxtx.c **** 		le_clk = (next - le.conn_epoch) & 0x03;
 3691              		.loc 1 879 0
 3692 0024 364B     		ldr	r3, .L170+4
 3693 0026 9B69     		ldr	r3, [r3, #24]
 3694 0028 7A68     		ldr	r2, [r7, #4]
 3695 002a D31A     		subs	r3, r2, r3
 3696 002c 03F00303 		and	r3, r3, #3
 3697 0030 3B60     		str	r3, [r7]
 880:bluetooth_rxtx.c **** 
 881:bluetooth_rxtx.c **** 		/* Trigger hop based on mode */
 882:bluetooth_rxtx.c **** 
 883:bluetooth_rxtx.c **** 		/* NONE or SWEEP -> 25 Hz */
 884:bluetooth_rxtx.c **** 		if (hop_mode == HOP_NONE || hop_mode == HOP_SWEEP) {
 3698              		.loc 1 884 0
 3699 0032 344B     		ldr	r3, .L170+8
 3700 0034 1B78     		ldrb	r3, [r3]	@ zero_extendqisi2
 3701 0036 002B     		cmp	r3, #0
 3702 0038 03D0     		beq	.L162
 3703              		.loc 1 884 0 is_stmt 0 discriminator 1
 3704 003a 324B     		ldr	r3, .L170+8
 3705 003c 1B78     		ldrb	r3, [r3]	@ zero_extendqisi2
 3706 003e 012B     		cmp	r3, #1
 3707 0040 09D1     		bne	.L163
 3708              	.L162:
 885:bluetooth_rxtx.c **** 			if ((next & 0x7f) == 0)
 3709              		.loc 1 885 0 is_stmt 1
 3710 0042 7B68     		ldr	r3, [r7, #4]
 3711 0044 03F07F03 		and	r3, r3, #127
 3712 0048 002B     		cmp	r3, #0
 3713 004a 03D1     		bne	.L164
 886:bluetooth_rxtx.c **** 				do_hop = 1;
 3714              		.loc 1 886 0
 3715 004c 2E4B     		ldr	r3, .L170+12
 3716 004e 0122     		movs	r2, #1
 3717 0050 1A70     		strb	r2, [r3]
 885:bluetooth_rxtx.c **** 			if ((next & 0x7f) == 0)
 3718              		.loc 1 885 0
 3719 0052 37E0     		b	.L165
 3720              	.L164:
 3721 0054 36E0     		b	.L165
 3722              	.L163:
 887:bluetooth_rxtx.c **** 		}
 888:bluetooth_rxtx.c **** 		/* BLUETOOTH -> 1600 Hz */
 889:bluetooth_rxtx.c **** 		else if (hop_mode == HOP_BLUETOOTH) {
 3723              		.loc 1 889 0
 3724 0056 2B4B     		ldr	r3, .L170+8
 3725 0058 1B78     		ldrb	r3, [r3]	@ zero_extendqisi2
 3726 005a 022B     		cmp	r3, #2
 3727 005c 08D1     		bne	.L166
 890:bluetooth_rxtx.c **** 			if ((next & 0x1) == 0)
ARM GAS  /tmp/ccxwuSCA.s 			page 81


 3728              		.loc 1 890 0
 3729 005e 7B68     		ldr	r3, [r7, #4]
 3730 0060 03F00103 		and	r3, r3, #1
 3731 0064 002B     		cmp	r3, #0
 3732 0066 2DD1     		bne	.L165
 891:bluetooth_rxtx.c **** 				do_hop = 1;
 3733              		.loc 1 891 0
 3734 0068 274B     		ldr	r3, .L170+12
 3735 006a 0122     		movs	r2, #1
 3736 006c 1A70     		strb	r2, [r3]
 3737 006e 29E0     		b	.L165
 3738              	.L166:
 892:bluetooth_rxtx.c **** 		}
 893:bluetooth_rxtx.c **** 		/* BLUETOOTH Low Energy -> 7.5ms - 4.0s in multiples of 1.25 ms */
 894:bluetooth_rxtx.c **** 		else if (hop_mode == HOP_BTLE) {
 3739              		.loc 1 894 0
 3740 0070 244B     		ldr	r3, .L170+8
 3741 0072 1B78     		ldrb	r3, [r3]	@ zero_extendqisi2
 3742 0074 032B     		cmp	r3, #3
 3743 0076 25D1     		bne	.L165
 895:bluetooth_rxtx.c **** 			// Only hop if connected
 896:bluetooth_rxtx.c **** 			if (le.link_state == LINK_CONNECTED && le_clk == 0) {
 3744              		.loc 1 896 0
 3745 0078 214B     		ldr	r3, .L170+4
 3746 007a 1B7D     		ldrb	r3, [r3, #20]	@ zero_extendqisi2
 3747 007c 032B     		cmp	r3, #3
 3748 007e 21D1     		bne	.L165
 3749              		.loc 1 896 0 is_stmt 0 discriminator 1
 3750 0080 3B68     		ldr	r3, [r7]
 3751 0082 002B     		cmp	r3, #0
 3752 0084 1ED1     		bne	.L165
 897:bluetooth_rxtx.c **** 				--le.interval_timer;
 3753              		.loc 1 897 0 is_stmt 1
 3754 0086 1E4B     		ldr	r3, .L170+4
 3755 0088 9B8B     		ldrh	r3, [r3, #28]	@ movhi
 3756 008a 9BB2     		uxth	r3, r3
 3757 008c 013B     		subs	r3, r3, #1
 3758 008e 9AB2     		uxth	r2, r3
 3759 0090 1B4B     		ldr	r3, .L170+4
 3760 0092 9A83     		strh	r2, [r3, #28]	@ movhi
 898:bluetooth_rxtx.c **** 				if (le.interval_timer == 0) {
 3761              		.loc 1 898 0
 3762 0094 1A4B     		ldr	r3, .L170+4
 3763 0096 9B8B     		ldrh	r3, [r3, #28]	@ movhi
 3764 0098 9BB2     		uxth	r3, r3
 3765 009a 002B     		cmp	r3, #0
 3766 009c 0ED1     		bne	.L168
 899:bluetooth_rxtx.c **** 					do_hop = 1;
 3767              		.loc 1 899 0
 3768 009e 1A4B     		ldr	r3, .L170+12
 3769 00a0 0122     		movs	r2, #1
 3770 00a2 1A70     		strb	r2, [r3]
 900:bluetooth_rxtx.c **** 					++le.conn_count;
 3771              		.loc 1 900 0
 3772 00a4 164B     		ldr	r3, .L170+4
 3773 00a6 1B8C     		ldrh	r3, [r3, #32]	@ movhi
 3774 00a8 9BB2     		uxth	r3, r3
ARM GAS  /tmp/ccxwuSCA.s 			page 82


 3775 00aa 0133     		adds	r3, r3, #1
 3776 00ac 9AB2     		uxth	r2, r3
 3777 00ae 144B     		ldr	r3, .L170+4
 3778 00b0 1A84     		strh	r2, [r3, #32]	@ movhi
 901:bluetooth_rxtx.c **** 					le.interval_timer = le.conn_interval;
 3779              		.loc 1 901 0
 3780 00b2 134B     		ldr	r3, .L170+4
 3781 00b4 DA8B     		ldrh	r2, [r3, #30]
 3782 00b6 124B     		ldr	r3, .L170+4
 3783 00b8 9A83     		strh	r2, [r3, #28]	@ movhi
 3784 00ba 03E0     		b	.L165
 3785              	.L168:
 902:bluetooth_rxtx.c **** 				} else {
 903:bluetooth_rxtx.c **** 					TXLED_CLR; // hack!
 3786              		.loc 1 903 0
 3787 00bc 134B     		ldr	r3, .L170+16
 3788 00be 4FF48072 		mov	r2, #256
 3789 00c2 1A60     		str	r2, [r3]
 3790              	.L165:
 904:bluetooth_rxtx.c **** 				}
 905:bluetooth_rxtx.c **** 			}
 906:bluetooth_rxtx.c **** 		}
 907:bluetooth_rxtx.c **** 
 908:bluetooth_rxtx.c **** 		/* Keepalive trigger fires at 3200/2^9 = 6.25 Hz */
 909:bluetooth_rxtx.c **** 		if ((next & 0x1ff) == 0)
 3791              		.loc 1 909 0
 3792 00c4 7B68     		ldr	r3, [r7, #4]
 3793 00c6 C3F30803 		ubfx	r3, r3, #0, #9
 3794 00ca 002B     		cmp	r3, #0
 3795 00cc 02D1     		bne	.L169
 910:bluetooth_rxtx.c **** 			keepalive_trigger = 1;
 3796              		.loc 1 910 0
 3797 00ce 104B     		ldr	r3, .L170+20
 3798 00d0 0122     		movs	r2, #1
 3799 00d2 1A70     		strb	r2, [r3]
 3800              	.L169:
 911:bluetooth_rxtx.c **** 
 912:bluetooth_rxtx.c **** 		/* Ack interrupt */
 913:bluetooth_rxtx.c **** 		T0MR0 = 3124 - clock_trim;
 3801              		.loc 1 913 0
 3802 00d4 0F4A     		ldr	r2, .L170+24
 3803 00d6 104B     		ldr	r3, .L170+28
 3804 00d8 1B68     		ldr	r3, [r3]
 3805 00da C3F54363 		rsb	r3, r3, #3120
 3806 00de 0433     		adds	r3, r3, #4
 3807 00e0 1360     		str	r3, [r2]
 914:bluetooth_rxtx.c **** 		clock_trim = 0;
 3808              		.loc 1 914 0
 3809 00e2 0D4B     		ldr	r3, .L170+28
 3810 00e4 0022     		movs	r2, #0
 3811 00e6 1A60     		str	r2, [r3]
 915:bluetooth_rxtx.c **** 		T0IR = TIR_MR0_Interrupt;
 3812              		.loc 1 915 0
 3813 00e8 4FF04023 		mov	r3, #1073758208
 3814 00ec 0122     		movs	r2, #1
 3815 00ee 1A60     		str	r2, [r3]
 3816              	.L160:
ARM GAS  /tmp/ccxwuSCA.s 			page 83


 916:bluetooth_rxtx.c **** 	}
 917:bluetooth_rxtx.c **** }
 3817              		.loc 1 917 0
 3818 00f0 0C37     		adds	r7, r7, #12
 3819              		.cfi_def_cfa_offset 4
 3820 00f2 BD46     		mov	sp, r7
 3821              		.cfi_def_cfa_register 13
 3822              		@ sp needed
 3823 00f4 5DF8047B 		ldr	r7, [sp], #4
 3824              		.cfi_restore 7
 3825              		.cfi_def_cfa_offset 0
 3826 00f8 7047     		bx	lr
 3827              	.L171:
 3828 00fa 00BF     		.align	2
 3829              	.L170:
 3830 00fc 00000000 		.word	clkn
 3831 0100 00000000 		.word	le
 3832 0104 00000000 		.word	hop_mode
 3833 0108 00000000 		.word	do_hop
 3834 010c 3CC00920 		.word	537509948
 3835 0110 00000000 		.word	keepalive_trigger
 3836 0114 18400040 		.word	1073758232
 3837 0118 00000000 		.word	clock_trim
 3838              		.cfi_endproc
 3839              	.LFE11:
 3841              		.section	.text.EINT3_IRQHandler,"ax",%progbits
 3842              		.align	2
 3843              		.global	EINT3_IRQHandler
 3844              		.thumb
 3845              		.thumb_func
 3847              	EINT3_IRQHandler:
 3848              	.LFB12:
 918:bluetooth_rxtx.c **** 
 919:bluetooth_rxtx.c **** /* EINT3 handler is also defined in ubertooth.c for TC13BADGE. */
 920:bluetooth_rxtx.c **** #ifndef TC13BADGE
 921:bluetooth_rxtx.c **** //static volatile u8 txledstate = 1;
 922:bluetooth_rxtx.c **** void EINT3_IRQHandler()
 923:bluetooth_rxtx.c **** {
 3849              		.loc 1 923 0
 3850              		.cfi_startproc
 3851              		@ args = 0, pretend = 0, frame = 0
 3852              		@ frame_needed = 1, uses_anonymous_args = 0
 3853              		@ link register save eliminated.
 3854 0000 80B4     		push	{r7}
 3855              		.cfi_def_cfa_offset 4
 3856              		.cfi_offset 7, -4
 3857 0002 00AF     		add	r7, sp, #0
 3858              		.cfi_def_cfa_register 7
 924:bluetooth_rxtx.c **** 	/* TODO - check specific source of shared interrupt */
 925:bluetooth_rxtx.c **** 	IO2IntClr = PIN_GIO6;            // clear interrupt
 3859              		.loc 1 925 0
 3860 0004 0B4B     		ldr	r3, .L173
 3861 0006 0422     		movs	r2, #4
 3862 0008 1A60     		str	r2, [r3]
 926:bluetooth_rxtx.c **** 	cs_trigger = 1;                  // signal trigger
 3863              		.loc 1 926 0
 3864 000a 0B4B     		ldr	r3, .L173+4
ARM GAS  /tmp/ccxwuSCA.s 			page 84


 3865 000c 0122     		movs	r2, #1
 3866 000e 1A70     		strb	r2, [r3]
 927:bluetooth_rxtx.c **** 	cs_timestamp = CLK100NS;         // time at trigger
 3867              		.loc 1 927 0
 3868 0010 0A4B     		ldr	r3, .L173+8
 3869 0012 1B68     		ldr	r3, [r3]
 3870 0014 C3F31303 		ubfx	r3, r3, #0, #20
 3871 0018 40F63542 		movw	r2, #3125
 3872 001c 02FB03F2 		mul	r2, r2, r3
 3873 0020 074B     		ldr	r3, .L173+12
 3874 0022 1B68     		ldr	r3, [r3]
 3875 0024 1344     		add	r3, r3, r2
 3876 0026 074A     		ldr	r2, .L173+16
 3877 0028 1360     		str	r3, [r2]
 928:bluetooth_rxtx.c **** }
 3878              		.loc 1 928 0
 3879 002a BD46     		mov	sp, r7
 3880              		.cfi_def_cfa_register 13
 3881              		@ sp needed
 3882 002c 5DF8047B 		ldr	r7, [sp], #4
 3883              		.cfi_restore 7
 3884              		.cfi_def_cfa_offset 0
 3885 0030 7047     		bx	lr
 3886              	.L174:
 3887 0032 00BF     		.align	2
 3888              	.L173:
 3889 0034 AC800240 		.word	1073905836
 3890 0038 00000000 		.word	cs_trigger
 3891 003c 00000000 		.word	clkn
 3892 0040 08400040 		.word	1073758216
 3893 0044 00000000 		.word	cs_timestamp
 3894              		.cfi_endproc
 3895              	.LFE12:
 3897              		.global	__aeabi_ui2d
 3898              		.global	__aeabi_dmul
 3899              		.global	__aeabi_ddiv
 3900              		.global	__aeabi_dadd
 3901              		.global	__aeabi_d2uiz
 3902              		.section	.text.msleep,"ax",%progbits
 3903              		.align	2
 3904              		.thumb
 3905              		.thumb_func
 3907              	msleep:
 3908              	.LFB13:
 929:bluetooth_rxtx.c **** #endif // TC13BADGE
 930:bluetooth_rxtx.c **** 
 931:bluetooth_rxtx.c **** /* Sleep (busy wait) for 'millis' milliseconds. The 'wait' routines in
 932:bluetooth_rxtx.c ****  * ubertooth.c are matched to the clock setup at boot time and can not
 933:bluetooth_rxtx.c ****  * be used while the board is running at 100MHz. */
 934:bluetooth_rxtx.c **** static void msleep(uint32_t millis)
 935:bluetooth_rxtx.c **** {
 3909              		.loc 1 935 0
 3910              		.cfi_startproc
 3911              		@ args = 0, pretend = 0, frame = 16
 3912              		@ frame_needed = 1, uses_anonymous_args = 0
 3913 0000 B0B5     		push	{r4, r5, r7, lr}
 3914              		.cfi_def_cfa_offset 16
ARM GAS  /tmp/ccxwuSCA.s 			page 85


 3915              		.cfi_offset 4, -16
 3916              		.cfi_offset 5, -12
 3917              		.cfi_offset 7, -8
 3918              		.cfi_offset 14, -4
 3919 0002 84B0     		sub	sp, sp, #16
 3920              		.cfi_def_cfa_offset 32
 3921 0004 00AF     		add	r7, sp, #0
 3922              		.cfi_def_cfa_register 7
 3923 0006 7860     		str	r0, [r7, #4]
 936:bluetooth_rxtx.c **** 	uint32_t stop_at = clkn + millis * 312.5 / 1000;  // millis -> clkn ticks
 3924              		.loc 1 936 0
 3925 0008 1B4B     		ldr	r3, .L177+8
 3926 000a 1B68     		ldr	r3, [r3]
 3927 000c 1846     		mov	r0, r3
 3928 000e FFF7FEFF 		bl	__aeabi_ui2d
 3929 0012 0446     		mov	r4, r0
 3930 0014 0D46     		mov	r5, r1
 3931 0016 7868     		ldr	r0, [r7, #4]
 3932 0018 FFF7FEFF 		bl	__aeabi_ui2d
 3933 001c 0246     		mov	r2, r0
 3934 001e 0B46     		mov	r3, r1
 3935 0020 1046     		mov	r0, r2
 3936 0022 1946     		mov	r1, r3
 3937 0024 12A3     		adr	r3, .L177
 3938 0026 D3E90023 		ldrd	r2, [r3]
 3939 002a FFF7FEFF 		bl	__aeabi_dmul
 3940 002e 0246     		mov	r2, r0
 3941 0030 0B46     		mov	r3, r1
 3942 0032 1046     		mov	r0, r2
 3943 0034 1946     		mov	r1, r3
 3944 0036 4FF00002 		mov	r2, #0
 3945 003a 104B     		ldr	r3, .L177+12
 3946 003c FFF7FEFF 		bl	__aeabi_ddiv
 3947 0040 0246     		mov	r2, r0
 3948 0042 0B46     		mov	r3, r1
 3949 0044 2046     		mov	r0, r4
 3950 0046 2946     		mov	r1, r5
 3951 0048 FFF7FEFF 		bl	__aeabi_dadd
 3952 004c 0246     		mov	r2, r0
 3953 004e 0B46     		mov	r3, r1
 3954 0050 1046     		mov	r0, r2
 3955 0052 1946     		mov	r1, r3
 3956 0054 FFF7FEFF 		bl	__aeabi_d2uiz
 3957 0058 0346     		mov	r3, r0
 3958 005a FB60     		str	r3, [r7, #12]
 3959              	.L176:
 937:bluetooth_rxtx.c **** 	do { } while (clkn < stop_at);                   // TODO: handle wrapping
 3960              		.loc 1 937 0 discriminator 1
 3961 005c 064B     		ldr	r3, .L177+8
 3962 005e 1A68     		ldr	r2, [r3]
 3963 0060 FB68     		ldr	r3, [r7, #12]
 3964 0062 9A42     		cmp	r2, r3
 3965 0064 FAD3     		bcc	.L176
 938:bluetooth_rxtx.c **** }
 3966              		.loc 1 938 0
 3967 0066 1037     		adds	r7, r7, #16
 3968              		.cfi_def_cfa_offset 16
ARM GAS  /tmp/ccxwuSCA.s 			page 86


 3969 0068 BD46     		mov	sp, r7
 3970              		.cfi_def_cfa_register 13
 3971              		@ sp needed
 3972 006a B0BD     		pop	{r4, r5, r7, pc}
 3973              	.L178:
 3974 006c AFF30080 		.align	3
 3975              	.L177:
 3976 0070 00000000 		.word	0
 3977 0074 00887340 		.word	1081313280
 3978 0078 00000000 		.word	clkn
 3979 007c 00408F40 		.word	1083129856
 3980              		.cfi_endproc
 3981              	.LFE13:
 3983              		.section	.text.dma_init,"ax",%progbits
 3984              		.align	2
 3985              		.thumb
 3986              		.thumb_func
 3988              	dma_init:
 3989              	.LFB14:
 939:bluetooth_rxtx.c **** 
 940:bluetooth_rxtx.c **** static void dma_init()
 941:bluetooth_rxtx.c **** {
 3990              		.loc 1 941 0
 3991              		.cfi_startproc
 3992              		@ args = 0, pretend = 0, frame = 0
 3993              		@ frame_needed = 1, uses_anonymous_args = 0
 3994              		@ link register save eliminated.
 3995 0000 80B4     		push	{r7}
 3996              		.cfi_def_cfa_offset 4
 3997              		.cfi_offset 7, -4
 3998 0002 00AF     		add	r7, sp, #0
 3999              		.cfi_def_cfa_register 7
 942:bluetooth_rxtx.c **** 	/* power up GPDMA controller */
 943:bluetooth_rxtx.c **** 	PCONP |= PCONP_PCGPDMA;
 4000              		.loc 1 943 0
 4001 0004 3F4A     		ldr	r2, .L181
 4002 0006 3F4B     		ldr	r3, .L181
 4003 0008 1B68     		ldr	r3, [r3]
 4004 000a 43F00053 		orr	r3, r3, #536870912
 4005 000e 1360     		str	r3, [r2]
 944:bluetooth_rxtx.c **** 
 945:bluetooth_rxtx.c **** 	/* zero out channel configs and clear interrupts */
 946:bluetooth_rxtx.c **** 	DMACC0Config = 0;
 4006              		.loc 1 946 0
 4007 0010 3D4B     		ldr	r3, .L181+4
 4008 0012 0022     		movs	r2, #0
 4009 0014 1A60     		str	r2, [r3]
 947:bluetooth_rxtx.c **** 	DMACC1Config = 0;
 4010              		.loc 1 947 0
 4011 0016 3D4B     		ldr	r3, .L181+8
 4012 0018 0022     		movs	r2, #0
 4013 001a 1A60     		str	r2, [r3]
 948:bluetooth_rxtx.c **** 	DMACC2Config = 0;
 4014              		.loc 1 948 0
 4015 001c 3C4B     		ldr	r3, .L181+12
 4016 001e 0022     		movs	r2, #0
 4017 0020 1A60     		str	r2, [r3]
ARM GAS  /tmp/ccxwuSCA.s 			page 87


 949:bluetooth_rxtx.c **** 	DMACC3Config = 0;
 4018              		.loc 1 949 0
 4019 0022 3C4B     		ldr	r3, .L181+16
 4020 0024 0022     		movs	r2, #0
 4021 0026 1A60     		str	r2, [r3]
 950:bluetooth_rxtx.c **** 	DMACC4Config = 0;
 4022              		.loc 1 950 0
 4023 0028 3B4B     		ldr	r3, .L181+20
 4024 002a 0022     		movs	r2, #0
 4025 002c 1A60     		str	r2, [r3]
 951:bluetooth_rxtx.c **** 	DMACC5Config = 0;
 4026              		.loc 1 951 0
 4027 002e 3B4B     		ldr	r3, .L181+24
 4028 0030 0022     		movs	r2, #0
 4029 0032 1A60     		str	r2, [r3]
 952:bluetooth_rxtx.c **** 	DMACC6Config = 0;
 4030              		.loc 1 952 0
 4031 0034 3A4B     		ldr	r3, .L181+28
 4032 0036 0022     		movs	r2, #0
 4033 0038 1A60     		str	r2, [r3]
 953:bluetooth_rxtx.c **** 	DMACC7Config = 0;
 4034              		.loc 1 953 0
 4035 003a 3A4B     		ldr	r3, .L181+32
 4036 003c 0022     		movs	r2, #0
 4037 003e 1A60     		str	r2, [r3]
 954:bluetooth_rxtx.c **** 	DMACIntTCClear = 0xFF;
 4038              		.loc 1 954 0
 4039 0040 394B     		ldr	r3, .L181+36
 4040 0042 FF22     		movs	r2, #255
 4041 0044 1A60     		str	r2, [r3]
 955:bluetooth_rxtx.c **** 	DMACIntErrClr = 0xFF;
 4042              		.loc 1 955 0
 4043 0046 394B     		ldr	r3, .L181+40
 4044 0048 FF22     		movs	r2, #255
 4045 004a 1A60     		str	r2, [r3]
 956:bluetooth_rxtx.c **** 
 957:bluetooth_rxtx.c **** 	/* DMA linked lists */
 958:bluetooth_rxtx.c **** 	rx_dma_lli1.src = (u32)&(DIO_SSP_DR);
 4046              		.loc 1 958 0
 4047 004c 384B     		ldr	r3, .L181+44
 4048 004e 394A     		ldr	r2, .L181+48
 4049 0050 1A60     		str	r2, [r3]
 959:bluetooth_rxtx.c **** 	rx_dma_lli1.dest = (u32)&rxbuf1[0];
 4050              		.loc 1 959 0
 4051 0052 394A     		ldr	r2, .L181+52
 4052 0054 364B     		ldr	r3, .L181+44
 4053 0056 5A60     		str	r2, [r3, #4]
 960:bluetooth_rxtx.c **** 	rx_dma_lli1.next_lli = (u32)&rx_dma_lli2;
 4054              		.loc 1 960 0
 4055 0058 384A     		ldr	r2, .L181+56
 4056 005a 354B     		ldr	r3, .L181+44
 4057 005c 9A60     		str	r2, [r3, #8]
 961:bluetooth_rxtx.c **** 	rx_dma_lli1.control = (DMA_SIZE) |
 4058              		.loc 1 961 0
 4059 005e 344B     		ldr	r3, .L181+44
 4060 0060 374A     		ldr	r2, .L181+60
 4061 0062 DA60     		str	r2, [r3, #12]
ARM GAS  /tmp/ccxwuSCA.s 			page 88


 962:bluetooth_rxtx.c **** 			(1 << 12) |        /* source burst size = 4 */
 963:bluetooth_rxtx.c **** 			(1 << 15) |        /* destination burst size = 4 */
 964:bluetooth_rxtx.c **** 			(0 << 18) |        /* source width 8 bits */
 965:bluetooth_rxtx.c **** 			(0 << 21) |        /* destination width 8 bits */
 966:bluetooth_rxtx.c **** 			DMACCxControl_DI | /* destination increment */
 967:bluetooth_rxtx.c **** 			DMACCxControl_I;   /* terminal count interrupt enable */
 968:bluetooth_rxtx.c **** 
 969:bluetooth_rxtx.c **** 	rx_dma_lli2.src = (u32)&(DIO_SSP_DR);
 4062              		.loc 1 969 0
 4063 0064 354B     		ldr	r3, .L181+56
 4064 0066 334A     		ldr	r2, .L181+48
 4065 0068 1A60     		str	r2, [r3]
 970:bluetooth_rxtx.c **** 	rx_dma_lli2.dest = (u32)&rxbuf2[0];
 4066              		.loc 1 970 0
 4067 006a 364A     		ldr	r2, .L181+64
 4068 006c 334B     		ldr	r3, .L181+56
 4069 006e 5A60     		str	r2, [r3, #4]
 971:bluetooth_rxtx.c **** 	rx_dma_lli2.next_lli = (u32)&rx_dma_lli1;
 4070              		.loc 1 971 0
 4071 0070 2F4A     		ldr	r2, .L181+44
 4072 0072 324B     		ldr	r3, .L181+56
 4073 0074 9A60     		str	r2, [r3, #8]
 972:bluetooth_rxtx.c **** 	rx_dma_lli2.control = (DMA_SIZE) |
 4074              		.loc 1 972 0
 4075 0076 314B     		ldr	r3, .L181+56
 4076 0078 314A     		ldr	r2, .L181+60
 4077 007a DA60     		str	r2, [r3, #12]
 973:bluetooth_rxtx.c **** 			(1 << 12) |        /* source burst size = 4 */
 974:bluetooth_rxtx.c **** 			(1 << 15) |        /* destination burst size = 4 */
 975:bluetooth_rxtx.c **** 			(0 << 18) |        /* source width 8 bits */
 976:bluetooth_rxtx.c **** 			(0 << 21) |        /* destination width 8 bits */
 977:bluetooth_rxtx.c **** 			DMACCxControl_DI | /* destination increment */
 978:bluetooth_rxtx.c **** 			DMACCxControl_I;   /* terminal count interrupt enable */
 979:bluetooth_rxtx.c **** 
 980:bluetooth_rxtx.c **** 	/* disable DMA interrupts */
 981:bluetooth_rxtx.c **** 	ICER0 = ICER0_ICE_DMA;
 4078              		.loc 1 981 0
 4079 007c 324B     		ldr	r3, .L181+68
 4080 007e 4FF08062 		mov	r2, #67108864
 4081 0082 1A60     		str	r2, [r3]
 982:bluetooth_rxtx.c **** 
 983:bluetooth_rxtx.c **** 	/* enable DMA globally */
 984:bluetooth_rxtx.c **** 	DMACConfig = DMACConfig_E;
 4082              		.loc 1 984 0
 4083 0084 314B     		ldr	r3, .L181+72
 4084 0086 0122     		movs	r2, #1
 4085 0088 1A60     		str	r2, [r3]
 985:bluetooth_rxtx.c **** 	while (!(DMACConfig & DMACConfig_E));
 4086              		.loc 1 985 0
 4087 008a 00BF     		nop
 4088              	.L180:
 4089              		.loc 1 985 0 is_stmt 0 discriminator 1
 4090 008c 2F4B     		ldr	r3, .L181+72
 4091 008e 1B68     		ldr	r3, [r3]
 4092 0090 03F00103 		and	r3, r3, #1
 4093 0094 002B     		cmp	r3, #0
 4094 0096 F9D0     		beq	.L180
ARM GAS  /tmp/ccxwuSCA.s 			page 89


 986:bluetooth_rxtx.c **** 
 987:bluetooth_rxtx.c **** 	/* configure DMA channel 1 */
 988:bluetooth_rxtx.c **** 	DMACC0SrcAddr = rx_dma_lli1.src;
 4095              		.loc 1 988 0 is_stmt 1
 4096 0098 2D4A     		ldr	r2, .L181+76
 4097 009a 254B     		ldr	r3, .L181+44
 4098 009c 1B68     		ldr	r3, [r3]
 4099 009e 1360     		str	r3, [r2]
 989:bluetooth_rxtx.c **** 	DMACC0DestAddr = rx_dma_lli1.dest;
 4100              		.loc 1 989 0
 4101 00a0 2C4A     		ldr	r2, .L181+80
 4102 00a2 234B     		ldr	r3, .L181+44
 4103 00a4 5B68     		ldr	r3, [r3, #4]
 4104 00a6 1360     		str	r3, [r2]
 990:bluetooth_rxtx.c **** 	DMACC0LLI = rx_dma_lli1.next_lli;
 4105              		.loc 1 990 0
 4106 00a8 2B4A     		ldr	r2, .L181+84
 4107 00aa 214B     		ldr	r3, .L181+44
 4108 00ac 9B68     		ldr	r3, [r3, #8]
 4109 00ae 1360     		str	r3, [r2]
 991:bluetooth_rxtx.c **** 	DMACC0Control = rx_dma_lli1.control;
 4110              		.loc 1 991 0
 4111 00b0 2A4A     		ldr	r2, .L181+88
 4112 00b2 1F4B     		ldr	r3, .L181+44
 4113 00b4 DB68     		ldr	r3, [r3, #12]
 4114 00b6 1360     		str	r3, [r2]
 992:bluetooth_rxtx.c **** 	DMACC0Config =
 4115              		.loc 1 992 0
 4116 00b8 134B     		ldr	r3, .L181+4
 4117 00ba 4DF20602 		movw	r2, #53254
 4118 00be 1A60     		str	r2, [r3]
 993:bluetooth_rxtx.c **** 			DIO_SSP_SRC |
 994:bluetooth_rxtx.c **** 			(0x2 << 11) |           /* peripheral to memory */
 995:bluetooth_rxtx.c **** 			DMACCxConfig_IE |       /* allow error interrupts */
 996:bluetooth_rxtx.c **** 			DMACCxConfig_ITC;       /* allow terminal count interrupts */
 997:bluetooth_rxtx.c **** 
 998:bluetooth_rxtx.c **** 	active_buf_clkn_high = (clkn >> 20) & 0xff;
 4119              		.loc 1 998 0
 4120 00c0 274B     		ldr	r3, .L181+92
 4121 00c2 1B68     		ldr	r3, [r3]
 4122 00c4 1B0D     		lsrs	r3, r3, #20
 4123 00c6 DBB2     		uxtb	r3, r3
 4124 00c8 264A     		ldr	r2, .L181+96
 4125 00ca 1360     		str	r3, [r2]
 999:bluetooth_rxtx.c **** 	active_buf_clk100ns = CLK100NS;
 4126              		.loc 1 999 0
 4127 00cc 244B     		ldr	r3, .L181+92
 4128 00ce 1B68     		ldr	r3, [r3]
 4129 00d0 C3F31303 		ubfx	r3, r3, #0, #20
 4130 00d4 40F63542 		movw	r2, #3125
 4131 00d8 02FB03F2 		mul	r2, r2, r3
 4132 00dc 224B     		ldr	r3, .L181+100
 4133 00de 1B68     		ldr	r3, [r3]
 4134 00e0 1344     		add	r3, r3, r2
 4135 00e2 224A     		ldr	r2, .L181+104
 4136 00e4 1360     		str	r3, [r2]
1000:bluetooth_rxtx.c **** 	active_buf_channel = channel;
ARM GAS  /tmp/ccxwuSCA.s 			page 90


 4137              		.loc 1 1000 0
 4138 00e6 224B     		ldr	r3, .L181+108
 4139 00e8 1B88     		ldrh	r3, [r3]	@ movhi
 4140 00ea 9AB2     		uxth	r2, r3
 4141 00ec 214B     		ldr	r3, .L181+112
 4142 00ee 1A80     		strh	r2, [r3]	@ movhi
1001:bluetooth_rxtx.c **** 
1002:bluetooth_rxtx.c **** 	/* reset interrupt counters */
1003:bluetooth_rxtx.c **** 	rx_tc = 0;
 4143              		.loc 1 1003 0
 4144 00f0 214B     		ldr	r3, .L181+116
 4145 00f2 0022     		movs	r2, #0
 4146 00f4 1A60     		str	r2, [r3]
1004:bluetooth_rxtx.c **** 	rx_err = 0;
 4147              		.loc 1 1004 0
 4148 00f6 214B     		ldr	r3, .L181+120
 4149 00f8 0022     		movs	r2, #0
 4150 00fa 1A60     		str	r2, [r3]
1005:bluetooth_rxtx.c **** }
 4151              		.loc 1 1005 0
 4152 00fc BD46     		mov	sp, r7
 4153              		.cfi_def_cfa_register 13
 4154              		@ sp needed
 4155 00fe 5DF8047B 		ldr	r7, [sp], #4
 4156              		.cfi_restore 7
 4157              		.cfi_def_cfa_offset 0
 4158 0102 7047     		bx	lr
 4159              	.L182:
 4160              		.align	2
 4161              	.L181:
 4162 0104 C4C00F40 		.word	1074774212
 4163 0108 10410050 		.word	1342193936
 4164 010c 30410050 		.word	1342193968
 4165 0110 50410050 		.word	1342194000
 4166 0114 70410050 		.word	1342194032
 4167 0118 90410050 		.word	1342194064
 4168 011c B0410050 		.word	1342194096
 4169 0120 D0410050 		.word	1342194128
 4170 0124 F0410050 		.word	1342194160
 4171 0128 08400050 		.word	1342193672
 4172 012c 10400050 		.word	1342193680
 4173 0130 00000000 		.word	rx_dma_lli1
 4174 0134 08000340 		.word	1073938440
 4175 0138 00000000 		.word	rxbuf1
 4176 013c 00000000 		.word	rx_dma_lli2
 4177 0140 32900088 		.word	-2013229006
 4178 0144 00000000 		.word	rxbuf2
 4179 0148 80E100E0 		.word	-536813184
 4180 014c 30400050 		.word	1342193712
 4181 0150 00410050 		.word	1342193920
 4182 0154 04410050 		.word	1342193924
 4183 0158 08410050 		.word	1342193928
 4184 015c 0C410050 		.word	1342193932
 4185 0160 00000000 		.word	clkn
 4186 0164 00000000 		.word	active_buf_clkn_high
 4187 0168 08400040 		.word	1073758216
 4188 016c 00000000 		.word	active_buf_clk100ns
ARM GAS  /tmp/ccxwuSCA.s 			page 91


 4189 0170 00000000 		.word	channel
 4190 0174 00000000 		.word	active_buf_channel
 4191 0178 00000000 		.word	rx_tc
 4192 017c 00000000 		.word	rx_err
 4193              		.cfi_endproc
 4194              	.LFE14:
 4196              		.section	.text.dma_init_le,"ax",%progbits
 4197              		.align	2
 4198              		.thumb
 4199              		.thumb_func
 4201              	dma_init_le:
 4202              	.LFB15:
1006:bluetooth_rxtx.c **** 
1007:bluetooth_rxtx.c **** static void dma_init_le()
1008:bluetooth_rxtx.c **** {
 4203              		.loc 1 1008 0
 4204              		.cfi_startproc
 4205              		@ args = 0, pretend = 0, frame = 8
 4206              		@ frame_needed = 1, uses_anonymous_args = 0
 4207              		@ link register save eliminated.
 4208 0000 80B4     		push	{r7}
 4209              		.cfi_def_cfa_offset 4
 4210              		.cfi_offset 7, -4
 4211 0002 83B0     		sub	sp, sp, #12
 4212              		.cfi_def_cfa_offset 16
 4213 0004 00AF     		add	r7, sp, #0
 4214              		.cfi_def_cfa_register 7
1009:bluetooth_rxtx.c **** 	int i;
1010:bluetooth_rxtx.c **** 
1011:bluetooth_rxtx.c **** 	/* power up GPDMA controller */
1012:bluetooth_rxtx.c **** 	PCONP |= PCONP_PCGPDMA;
 4215              		.loc 1 1012 0
 4216 0006 4B4A     		ldr	r2, .L189
 4217 0008 4A4B     		ldr	r3, .L189
 4218 000a 1B68     		ldr	r3, [r3]
 4219 000c 43F00053 		orr	r3, r3, #536870912
 4220 0010 1360     		str	r3, [r2]
1013:bluetooth_rxtx.c **** 
1014:bluetooth_rxtx.c **** 	/* zero out channel configs and clear interrupts */
1015:bluetooth_rxtx.c **** 	DMACC0Config = 0;
 4221              		.loc 1 1015 0
 4222 0012 494B     		ldr	r3, .L189+4
 4223 0014 0022     		movs	r2, #0
 4224 0016 1A60     		str	r2, [r3]
1016:bluetooth_rxtx.c **** 	DMACC1Config = 0;
 4225              		.loc 1 1016 0
 4226 0018 484B     		ldr	r3, .L189+8
 4227 001a 0022     		movs	r2, #0
 4228 001c 1A60     		str	r2, [r3]
1017:bluetooth_rxtx.c **** 	DMACC2Config = 0;
 4229              		.loc 1 1017 0
 4230 001e 484B     		ldr	r3, .L189+12
 4231 0020 0022     		movs	r2, #0
 4232 0022 1A60     		str	r2, [r3]
1018:bluetooth_rxtx.c **** 	DMACC3Config = 0;
 4233              		.loc 1 1018 0
 4234 0024 474B     		ldr	r3, .L189+16
ARM GAS  /tmp/ccxwuSCA.s 			page 92


 4235 0026 0022     		movs	r2, #0
 4236 0028 1A60     		str	r2, [r3]
1019:bluetooth_rxtx.c **** 	DMACC4Config = 0;
 4237              		.loc 1 1019 0
 4238 002a 474B     		ldr	r3, .L189+20
 4239 002c 0022     		movs	r2, #0
 4240 002e 1A60     		str	r2, [r3]
1020:bluetooth_rxtx.c **** 	DMACC5Config = 0;
 4241              		.loc 1 1020 0
 4242 0030 464B     		ldr	r3, .L189+24
 4243 0032 0022     		movs	r2, #0
 4244 0034 1A60     		str	r2, [r3]
1021:bluetooth_rxtx.c **** 	DMACC6Config = 0;
 4245              		.loc 1 1021 0
 4246 0036 464B     		ldr	r3, .L189+28
 4247 0038 0022     		movs	r2, #0
 4248 003a 1A60     		str	r2, [r3]
1022:bluetooth_rxtx.c **** 	DMACC7Config = 0;
 4249              		.loc 1 1022 0
 4250 003c 454B     		ldr	r3, .L189+32
 4251 003e 0022     		movs	r2, #0
 4252 0040 1A60     		str	r2, [r3]
1023:bluetooth_rxtx.c **** 	DMACIntTCClear = 0xFF;
 4253              		.loc 1 1023 0
 4254 0042 454B     		ldr	r3, .L189+36
 4255 0044 FF22     		movs	r2, #255
 4256 0046 1A60     		str	r2, [r3]
1024:bluetooth_rxtx.c **** 	DMACIntErrClr = 0xFF;
 4257              		.loc 1 1024 0
 4258 0048 444B     		ldr	r3, .L189+40
 4259 004a FF22     		movs	r2, #255
 4260 004c 1A60     		str	r2, [r3]
1025:bluetooth_rxtx.c **** 
1026:bluetooth_rxtx.c **** 	/* enable DMA globally */
1027:bluetooth_rxtx.c **** 	DMACConfig = DMACConfig_E;
 4261              		.loc 1 1027 0
 4262 004e 444B     		ldr	r3, .L189+44
 4263 0050 0122     		movs	r2, #1
 4264 0052 1A60     		str	r2, [r3]
1028:bluetooth_rxtx.c **** 	while (!(DMACConfig & DMACConfig_E));
 4265              		.loc 1 1028 0
 4266 0054 00BF     		nop
 4267              	.L184:
 4268              		.loc 1 1028 0 is_stmt 0 discriminator 1
 4269 0056 424B     		ldr	r3, .L189+44
 4270 0058 1B68     		ldr	r3, [r3]
 4271 005a 03F00103 		and	r3, r3, #1
 4272 005e 002B     		cmp	r3, #0
 4273 0060 F9D0     		beq	.L184
1029:bluetooth_rxtx.c **** 
1030:bluetooth_rxtx.c **** 	for (i = 0; i < 11; ++i) {
 4274              		.loc 1 1030 0 is_stmt 1
 4275 0062 0023     		movs	r3, #0
 4276 0064 7B60     		str	r3, [r7, #4]
 4277 0066 2AE0     		b	.L185
 4278              	.L188:
1031:bluetooth_rxtx.c **** 		le_dma_lli[i].src = (u32)&(DIO_SSP_DR);
ARM GAS  /tmp/ccxwuSCA.s 			page 93


 4279              		.loc 1 1031 0
 4280 0068 3E4A     		ldr	r2, .L189+48
 4281 006a 7B68     		ldr	r3, [r7, #4]
 4282 006c 1B01     		lsls	r3, r3, #4
 4283 006e 1344     		add	r3, r3, r2
 4284 0070 3D4A     		ldr	r2, .L189+52
 4285 0072 1A60     		str	r2, [r3]
1032:bluetooth_rxtx.c **** 		le_dma_lli[i].dest = (u32)&rxbuf1[4 * i];
 4286              		.loc 1 1032 0
 4287 0074 7B68     		ldr	r3, [r7, #4]
 4288 0076 9B00     		lsls	r3, r3, #2
 4289 0078 3C4A     		ldr	r2, .L189+56
 4290 007a 1344     		add	r3, r3, r2
 4291 007c 1946     		mov	r1, r3
 4292 007e 394A     		ldr	r2, .L189+48
 4293 0080 7B68     		ldr	r3, [r7, #4]
 4294 0082 1B01     		lsls	r3, r3, #4
 4295 0084 1344     		add	r3, r3, r2
 4296 0086 5960     		str	r1, [r3, #4]
1033:bluetooth_rxtx.c **** 		le_dma_lli[i].next_lli = i < 10 ? (u32)&le_dma_lli[i+1] : 0;
 4297              		.loc 1 1033 0
 4298 0088 7B68     		ldr	r3, [r7, #4]
 4299 008a 092B     		cmp	r3, #9
 4300 008c 06DC     		bgt	.L186
 4301              		.loc 1 1033 0 is_stmt 0 discriminator 1
 4302 008e 7B68     		ldr	r3, [r7, #4]
 4303 0090 0133     		adds	r3, r3, #1
 4304 0092 1B01     		lsls	r3, r3, #4
 4305 0094 334A     		ldr	r2, .L189+48
 4306 0096 1344     		add	r3, r3, r2
 4307 0098 1A46     		mov	r2, r3
 4308 009a 00E0     		b	.L187
 4309              	.L186:
 4310              		.loc 1 1033 0 discriminator 2
 4311 009c 0022     		movs	r2, #0
 4312              	.L187:
 4313              		.loc 1 1033 0 discriminator 4
 4314 009e 3149     		ldr	r1, .L189+48
 4315 00a0 7B68     		ldr	r3, [r7, #4]
 4316 00a2 1B01     		lsls	r3, r3, #4
 4317 00a4 0B44     		add	r3, r3, r1
 4318 00a6 0833     		adds	r3, r3, #8
 4319 00a8 1A60     		str	r2, [r3]
1034:bluetooth_rxtx.c **** 		le_dma_lli[i].control = 4 |
 4320              		.loc 1 1034 0 is_stmt 1 discriminator 4
 4321 00aa 2E4A     		ldr	r2, .L189+48
 4322 00ac 7B68     		ldr	r3, [r7, #4]
 4323 00ae 1B01     		lsls	r3, r3, #4
 4324 00b0 1344     		add	r3, r3, r2
 4325 00b2 0833     		adds	r3, r3, #8
 4326 00b4 2E4A     		ldr	r2, .L189+60
 4327 00b6 5A60     		str	r2, [r3, #4]
1030:bluetooth_rxtx.c **** 		le_dma_lli[i].src = (u32)&(DIO_SSP_DR);
 4328              		.loc 1 1030 0 discriminator 4
 4329 00b8 7B68     		ldr	r3, [r7, #4]
 4330 00ba 0133     		adds	r3, r3, #1
 4331 00bc 7B60     		str	r3, [r7, #4]
ARM GAS  /tmp/ccxwuSCA.s 			page 94


 4332              	.L185:
1030:bluetooth_rxtx.c **** 		le_dma_lli[i].src = (u32)&(DIO_SSP_DR);
 4333              		.loc 1 1030 0 is_stmt 0 discriminator 2
 4334 00be 7B68     		ldr	r3, [r7, #4]
 4335 00c0 0A2B     		cmp	r3, #10
 4336 00c2 D1DD     		ble	.L188
1035:bluetooth_rxtx.c **** 				(1 << 12) |        /* source burst size = 4 */
1036:bluetooth_rxtx.c **** 				(0 << 15) |        /* destination burst size = 1 */
1037:bluetooth_rxtx.c **** 				(0 << 18) |        /* source width 8 bits */
1038:bluetooth_rxtx.c **** 				(0 << 21) |        /* destination width 8 bits */
1039:bluetooth_rxtx.c **** 				DMACCxControl_DI | /* destination increment */
1040:bluetooth_rxtx.c **** 				DMACCxControl_I;   /* terminal count interrupt enable */
1041:bluetooth_rxtx.c **** 	}
1042:bluetooth_rxtx.c **** 
1043:bluetooth_rxtx.c **** 	/* configure DMA channel 0 */
1044:bluetooth_rxtx.c **** 	DMACC0SrcAddr = le_dma_lli[0].src;
 4337              		.loc 1 1044 0 is_stmt 1
 4338 00c4 2B4A     		ldr	r2, .L189+64
 4339 00c6 274B     		ldr	r3, .L189+48
 4340 00c8 1B68     		ldr	r3, [r3]
 4341 00ca 1360     		str	r3, [r2]
1045:bluetooth_rxtx.c **** 	DMACC0DestAddr = le_dma_lli[0].dest;
 4342              		.loc 1 1045 0
 4343 00cc 2A4A     		ldr	r2, .L189+68
 4344 00ce 254B     		ldr	r3, .L189+48
 4345 00d0 5B68     		ldr	r3, [r3, #4]
 4346 00d2 1360     		str	r3, [r2]
1046:bluetooth_rxtx.c **** 	DMACC0LLI = le_dma_lli[0].next_lli;
 4347              		.loc 1 1046 0
 4348 00d4 294A     		ldr	r2, .L189+72
 4349 00d6 234B     		ldr	r3, .L189+48
 4350 00d8 9B68     		ldr	r3, [r3, #8]
 4351 00da 1360     		str	r3, [r2]
1047:bluetooth_rxtx.c **** 	DMACC0Control = le_dma_lli[0].control;
 4352              		.loc 1 1047 0
 4353 00dc 284A     		ldr	r2, .L189+76
 4354 00de 214B     		ldr	r3, .L189+48
 4355 00e0 DB68     		ldr	r3, [r3, #12]
 4356 00e2 1360     		str	r3, [r2]
1048:bluetooth_rxtx.c **** 	DMACC0Config =
 4357              		.loc 1 1048 0
 4358 00e4 144B     		ldr	r3, .L189+4
 4359 00e6 4DF20602 		movw	r2, #53254
 4360 00ea 1A60     		str	r2, [r3]
1049:bluetooth_rxtx.c **** 			DIO_SSP_SRC |
1050:bluetooth_rxtx.c **** 			(0x2 << 11) |           /* peripheral to memory */
1051:bluetooth_rxtx.c **** 			DMACCxConfig_IE |       /* allow error interrupts */
1052:bluetooth_rxtx.c **** 			DMACCxConfig_ITC;       /* allow terminal count interrupts */
1053:bluetooth_rxtx.c **** 
1054:bluetooth_rxtx.c **** 	active_buf_clkn_high = (clkn >> 20) & 0xff;
 4361              		.loc 1 1054 0
 4362 00ec 254B     		ldr	r3, .L189+80
 4363 00ee 1B68     		ldr	r3, [r3]
 4364 00f0 1B0D     		lsrs	r3, r3, #20
 4365 00f2 DBB2     		uxtb	r3, r3
 4366 00f4 244A     		ldr	r2, .L189+84
 4367 00f6 1360     		str	r3, [r2]
ARM GAS  /tmp/ccxwuSCA.s 			page 95


1055:bluetooth_rxtx.c **** 	active_buf_clk100ns = CLK100NS;
 4368              		.loc 1 1055 0
 4369 00f8 224B     		ldr	r3, .L189+80
 4370 00fa 1B68     		ldr	r3, [r3]
 4371 00fc C3F31303 		ubfx	r3, r3, #0, #20
 4372 0100 40F63542 		movw	r2, #3125
 4373 0104 02FB03F2 		mul	r2, r2, r3
 4374 0108 204B     		ldr	r3, .L189+88
 4375 010a 1B68     		ldr	r3, [r3]
 4376 010c 1344     		add	r3, r3, r2
 4377 010e 204A     		ldr	r2, .L189+92
 4378 0110 1360     		str	r3, [r2]
1056:bluetooth_rxtx.c **** 	active_buf_channel = channel;
 4379              		.loc 1 1056 0
 4380 0112 204B     		ldr	r3, .L189+96
 4381 0114 1B88     		ldrh	r3, [r3]	@ movhi
 4382 0116 9AB2     		uxth	r2, r3
 4383 0118 1F4B     		ldr	r3, .L189+100
 4384 011a 1A80     		strh	r2, [r3]	@ movhi
1057:bluetooth_rxtx.c **** 
1058:bluetooth_rxtx.c **** 	/* reset interrupt counters */
1059:bluetooth_rxtx.c **** 	rx_tc = 0;
 4385              		.loc 1 1059 0
 4386 011c 1F4B     		ldr	r3, .L189+104
 4387 011e 0022     		movs	r2, #0
 4388 0120 1A60     		str	r2, [r3]
1060:bluetooth_rxtx.c **** 	rx_err = 0;
 4389              		.loc 1 1060 0
 4390 0122 1F4B     		ldr	r3, .L189+108
 4391 0124 0022     		movs	r2, #0
 4392 0126 1A60     		str	r2, [r3]
1061:bluetooth_rxtx.c **** }
 4393              		.loc 1 1061 0
 4394 0128 0C37     		adds	r7, r7, #12
 4395              		.cfi_def_cfa_offset 4
 4396 012a BD46     		mov	sp, r7
 4397              		.cfi_def_cfa_register 13
 4398              		@ sp needed
 4399 012c 5DF8047B 		ldr	r7, [sp], #4
 4400              		.cfi_restore 7
 4401              		.cfi_def_cfa_offset 0
 4402 0130 7047     		bx	lr
 4403              	.L190:
 4404 0132 00BF     		.align	2
 4405              	.L189:
 4406 0134 C4C00F40 		.word	1074774212
 4407 0138 10410050 		.word	1342193936
 4408 013c 30410050 		.word	1342193968
 4409 0140 50410050 		.word	1342194000
 4410 0144 70410050 		.word	1342194032
 4411 0148 90410050 		.word	1342194064
 4412 014c B0410050 		.word	1342194096
 4413 0150 D0410050 		.word	1342194128
 4414 0154 F0410050 		.word	1342194160
 4415 0158 08400050 		.word	1342193672
 4416 015c 10400050 		.word	1342193680
 4417 0160 30400050 		.word	1342193712
ARM GAS  /tmp/ccxwuSCA.s 			page 96


 4418 0164 00000000 		.word	le_dma_lli
 4419 0168 08000340 		.word	1073938440
 4420 016c 00000000 		.word	rxbuf1
 4421 0170 04100088 		.word	-2013261820
 4422 0174 00410050 		.word	1342193920
 4423 0178 04410050 		.word	1342193924
 4424 017c 08410050 		.word	1342193928
 4425 0180 0C410050 		.word	1342193932
 4426 0184 00000000 		.word	clkn
 4427 0188 00000000 		.word	active_buf_clkn_high
 4428 018c 08400040 		.word	1073758216
 4429 0190 00000000 		.word	active_buf_clk100ns
 4430 0194 00000000 		.word	channel
 4431 0198 00000000 		.word	active_buf_channel
 4432 019c 00000000 		.word	rx_tc
 4433 01a0 00000000 		.word	rx_err
 4434              		.cfi_endproc
 4435              	.LFE15:
 4437              		.section	.text.bt_stream_dma_handler,"ax",%progbits
 4438              		.align	2
 4439              		.global	bt_stream_dma_handler
 4440              		.thumb
 4441              		.thumb_func
 4443              	bt_stream_dma_handler:
 4444              	.LFB16:
1062:bluetooth_rxtx.c **** 
1063:bluetooth_rxtx.c **** void bt_stream_dma_handler(void) {
 4445              		.loc 1 1063 0
 4446              		.cfi_startproc
 4447              		@ args = 0, pretend = 0, frame = 0
 4448              		@ frame_needed = 1, uses_anonymous_args = 0
 4449              		@ link register save eliminated.
 4450 0000 80B4     		push	{r7}
 4451              		.cfi_def_cfa_offset 4
 4452              		.cfi_offset 7, -4
 4453 0002 00AF     		add	r7, sp, #0
 4454              		.cfi_def_cfa_register 7
1064:bluetooth_rxtx.c **** 	idle_buf_clkn_high = active_buf_clkn_high;
 4455              		.loc 1 1064 0
 4456 0004 254B     		ldr	r3, .L194
 4457 0006 1B68     		ldr	r3, [r3]
 4458 0008 254A     		ldr	r2, .L194+4
 4459 000a 1360     		str	r3, [r2]
1065:bluetooth_rxtx.c **** 	active_buf_clkn_high = (clkn >> 20) & 0xff;
 4460              		.loc 1 1065 0
 4461 000c 254B     		ldr	r3, .L194+8
 4462 000e 1B68     		ldr	r3, [r3]
 4463 0010 1B0D     		lsrs	r3, r3, #20
 4464 0012 DBB2     		uxtb	r3, r3
 4465 0014 214A     		ldr	r2, .L194
 4466 0016 1360     		str	r3, [r2]
1066:bluetooth_rxtx.c **** 
1067:bluetooth_rxtx.c **** 	idle_buf_clk100ns = active_buf_clk100ns;
 4467              		.loc 1 1067 0
 4468 0018 234B     		ldr	r3, .L194+12
 4469 001a 1B68     		ldr	r3, [r3]
 4470 001c 234A     		ldr	r2, .L194+16
ARM GAS  /tmp/ccxwuSCA.s 			page 97


 4471 001e 1360     		str	r3, [r2]
1068:bluetooth_rxtx.c **** 	active_buf_clk100ns = CLK100NS;
 4472              		.loc 1 1068 0
 4473 0020 204B     		ldr	r3, .L194+8
 4474 0022 1B68     		ldr	r3, [r3]
 4475 0024 C3F31303 		ubfx	r3, r3, #0, #20
 4476 0028 40F63542 		movw	r2, #3125
 4477 002c 02FB03F2 		mul	r2, r2, r3
 4478 0030 1F4B     		ldr	r3, .L194+20
 4479 0032 1B68     		ldr	r3, [r3]
 4480 0034 1344     		add	r3, r3, r2
 4481 0036 1C4A     		ldr	r2, .L194+12
 4482 0038 1360     		str	r3, [r2]
1069:bluetooth_rxtx.c **** 
1070:bluetooth_rxtx.c **** 	idle_buf_channel = active_buf_channel;
 4483              		.loc 1 1070 0
 4484 003a 1E4B     		ldr	r3, .L194+24
 4485 003c 1B88     		ldrh	r3, [r3]	@ movhi
 4486 003e 9AB2     		uxth	r2, r3
 4487 0040 1D4B     		ldr	r3, .L194+28
 4488 0042 1A80     		strh	r2, [r3]	@ movhi
1071:bluetooth_rxtx.c **** 	active_buf_channel = channel;
 4489              		.loc 1 1071 0
 4490 0044 1D4B     		ldr	r3, .L194+32
 4491 0046 1B88     		ldrh	r3, [r3]	@ movhi
 4492 0048 9AB2     		uxth	r2, r3
 4493 004a 1A4B     		ldr	r3, .L194+24
 4494 004c 1A80     		strh	r2, [r3]	@ movhi
1072:bluetooth_rxtx.c **** 
1073:bluetooth_rxtx.c **** 	/* interrupt on channel 0 */
1074:bluetooth_rxtx.c **** 	if (DMACIntStat & (1 << 0)) {
 4495              		.loc 1 1074 0
 4496 004e 1C4B     		ldr	r3, .L194+36
 4497 0050 1B68     		ldr	r3, [r3]
 4498 0052 03F00103 		and	r3, r3, #1
 4499 0056 002B     		cmp	r3, #0
 4500 0058 1BD0     		beq	.L191
1075:bluetooth_rxtx.c **** 		if (DMACIntTCStat & (1 << 0)) {
 4501              		.loc 1 1075 0
 4502 005a 1A4B     		ldr	r3, .L194+40
 4503 005c 1B68     		ldr	r3, [r3]
 4504 005e 03F00103 		and	r3, r3, #1
 4505 0062 002B     		cmp	r3, #0
 4506 0064 07D0     		beq	.L193
1076:bluetooth_rxtx.c **** 			DMACIntTCClear = (1 << 0);
 4507              		.loc 1 1076 0
 4508 0066 184B     		ldr	r3, .L194+44
 4509 0068 0122     		movs	r2, #1
 4510 006a 1A60     		str	r2, [r3]
1077:bluetooth_rxtx.c **** 			++rx_tc;
 4511              		.loc 1 1077 0
 4512 006c 174B     		ldr	r3, .L194+48
 4513 006e 1B68     		ldr	r3, [r3]
 4514 0070 0133     		adds	r3, r3, #1
 4515 0072 164A     		ldr	r2, .L194+48
 4516 0074 1360     		str	r3, [r2]
 4517              	.L193:
ARM GAS  /tmp/ccxwuSCA.s 			page 98


1078:bluetooth_rxtx.c **** 		}
1079:bluetooth_rxtx.c **** 		if (DMACIntErrStat & (1 << 0)) {
 4518              		.loc 1 1079 0
 4519 0076 164B     		ldr	r3, .L194+52
 4520 0078 1B68     		ldr	r3, [r3]
 4521 007a 03F00103 		and	r3, r3, #1
 4522 007e 002B     		cmp	r3, #0
 4523 0080 07D0     		beq	.L191
1080:bluetooth_rxtx.c **** 			DMACIntErrClr = (1 << 0);
 4524              		.loc 1 1080 0
 4525 0082 144B     		ldr	r3, .L194+56
 4526 0084 0122     		movs	r2, #1
 4527 0086 1A60     		str	r2, [r3]
1081:bluetooth_rxtx.c **** 			++rx_err;
 4528              		.loc 1 1081 0
 4529 0088 134B     		ldr	r3, .L194+60
 4530 008a 1B68     		ldr	r3, [r3]
 4531 008c 0133     		adds	r3, r3, #1
 4532 008e 124A     		ldr	r2, .L194+60
 4533 0090 1360     		str	r3, [r2]
 4534              	.L191:
1082:bluetooth_rxtx.c **** 		}
1083:bluetooth_rxtx.c **** 	}
1084:bluetooth_rxtx.c **** }
 4535              		.loc 1 1084 0
 4536 0092 BD46     		mov	sp, r7
 4537              		.cfi_def_cfa_register 13
 4538              		@ sp needed
 4539 0094 5DF8047B 		ldr	r7, [sp], #4
 4540              		.cfi_restore 7
 4541              		.cfi_def_cfa_offset 0
 4542 0098 7047     		bx	lr
 4543              	.L195:
 4544 009a 00BF     		.align	2
 4545              	.L194:
 4546 009c 00000000 		.word	active_buf_clkn_high
 4547 00a0 00000000 		.word	idle_buf_clkn_high
 4548 00a4 00000000 		.word	clkn
 4549 00a8 00000000 		.word	active_buf_clk100ns
 4550 00ac 00000000 		.word	idle_buf_clk100ns
 4551 00b0 08400040 		.word	1073758216
 4552 00b4 00000000 		.word	active_buf_channel
 4553 00b8 00000000 		.word	idle_buf_channel
 4554 00bc 00000000 		.word	channel
 4555 00c0 00400050 		.word	1342193664
 4556 00c4 04400050 		.word	1342193668
 4557 00c8 08400050 		.word	1342193672
 4558 00cc 00000000 		.word	rx_tc
 4559 00d0 0C400050 		.word	1342193676
 4560 00d4 10400050 		.word	1342193680
 4561 00d8 00000000 		.word	rx_err
 4562              		.cfi_endproc
 4563              	.LFE16:
 4565              		.section	.text.DMA_IRQHandler,"ax",%progbits
 4566              		.align	2
 4567              		.global	DMA_IRQHandler
 4568              		.thumb
ARM GAS  /tmp/ccxwuSCA.s 			page 99


 4569              		.thumb_func
 4571              	DMA_IRQHandler:
 4572              	.LFB17:
1085:bluetooth_rxtx.c **** 
1086:bluetooth_rxtx.c **** void DMA_IRQHandler()
1087:bluetooth_rxtx.c **** {
 4573              		.loc 1 1087 0
 4574              		.cfi_startproc
 4575              		@ args = 0, pretend = 0, frame = 0
 4576              		@ frame_needed = 1, uses_anonymous_args = 0
 4577 0000 80B5     		push	{r7, lr}
 4578              		.cfi_def_cfa_offset 8
 4579              		.cfi_offset 7, -8
 4580              		.cfi_offset 14, -4
 4581 0002 00AF     		add	r7, sp, #0
 4582              		.cfi_def_cfa_register 7
1088:bluetooth_rxtx.c **** 	switch (mode) {
 4583              		.loc 1 1088 0
 4584 0004 124B     		ldr	r3, .L200
 4585 0006 1B78     		ldrb	r3, [r3]
 4586 0008 DBB2     		uxtb	r3, r3
 4587 000a 013B     		subs	r3, r3, #1
 4588 000c 0B2B     		cmp	r3, #11
 4589 000e 1ED8     		bhi	.L196
 4590 0010 01A2     		adr	r2, .L199
 4591 0012 52F823F0 		ldr	pc, [r2, r3, lsl #2]
 4592 0016 00BF     		.p2align 2
 4593              	.L199:
 4594 0018 49000000 		.word	.L198+1
 4595 001c 4F000000 		.word	.L196+1
 4596 0020 4F000000 		.word	.L196+1
 4597 0024 49000000 		.word	.L198+1
 4598 0028 4F000000 		.word	.L196+1
 4599 002c 4F000000 		.word	.L196+1
 4600 0030 4F000000 		.word	.L196+1
 4601 0034 49000000 		.word	.L198+1
 4602 0038 49000000 		.word	.L198+1
 4603 003c 49000000 		.word	.L198+1
 4604 0040 4F000000 		.word	.L196+1
 4605 0044 49000000 		.word	.L198+1
 4606              		.p2align 1
 4607              	.L198:
1089:bluetooth_rxtx.c **** 		case MODE_RX_SYMBOLS:
1090:bluetooth_rxtx.c **** 		case MODE_SPECAN:
1091:bluetooth_rxtx.c **** 		case MODE_BT_FOLLOW:
1092:bluetooth_rxtx.c **** 		case MODE_BT_FOLLOW_LE:
1093:bluetooth_rxtx.c **** 		case MODE_BT_PROMISC_LE:
1094:bluetooth_rxtx.c **** 		case MODE_BT_SLAVE_LE:
1095:bluetooth_rxtx.c **** 			bt_stream_dma_handler();
 4608              		.loc 1 1095 0
 4609 0048 FFF7FEFF 		bl	bt_stream_dma_handler
1096:bluetooth_rxtx.c **** 			break;
 4610              		.loc 1 1096 0
 4611 004c 00BF     		nop
 4612              	.L196:
1097:bluetooth_rxtx.c **** 	}
1098:bluetooth_rxtx.c **** }
ARM GAS  /tmp/ccxwuSCA.s 			page 100


 4613              		.loc 1 1098 0
 4614 004e 80BD     		pop	{r7, pc}
 4615              	.L201:
 4616              		.align	2
 4617              	.L200:
 4618 0050 00000000 		.word	mode
 4619              		.cfi_endproc
 4620              	.LFE17:
 4622              		.section	.text.dio_ssp_start,"ax",%progbits
 4623              		.align	2
 4624              		.thumb
 4625              		.thumb_func
 4627              	dio_ssp_start:
 4628              	.LFB18:
1099:bluetooth_rxtx.c **** 
1100:bluetooth_rxtx.c **** static void dio_ssp_start()
1101:bluetooth_rxtx.c **** {
 4629              		.loc 1 1101 0
 4630              		.cfi_startproc
 4631              		@ args = 0, pretend = 0, frame = 0
 4632              		@ frame_needed = 1, uses_anonymous_args = 0
 4633              		@ link register save eliminated.
 4634 0000 80B4     		push	{r7}
 4635              		.cfi_def_cfa_offset 4
 4636              		.cfi_offset 7, -4
 4637 0002 00AF     		add	r7, sp, #0
 4638              		.cfi_def_cfa_register 7
1102:bluetooth_rxtx.c **** 	/* make sure the (active low) slave select signal is not active */
1103:bluetooth_rxtx.c **** 	DIO_SSEL_SET;
 4639              		.loc 1 1103 0
 4640 0004 104B     		ldr	r3, .L203
 4641 0006 4FF08052 		mov	r2, #268435456
 4642 000a 1A60     		str	r2, [r3]
1104:bluetooth_rxtx.c **** 
1105:bluetooth_rxtx.c **** 	/* enable rx DMA on DIO_SSP */
1106:bluetooth_rxtx.c **** 	DIO_SSP_DMACR |= SSPDMACR_RXDMAE;
 4643              		.loc 1 1106 0
 4644 000c 0F4A     		ldr	r2, .L203+4
 4645 000e 0F4B     		ldr	r3, .L203+4
 4646 0010 1B68     		ldr	r3, [r3]
 4647 0012 43F00103 		orr	r3, r3, #1
 4648 0016 1360     		str	r3, [r2]
1107:bluetooth_rxtx.c **** 	DIO_SSP_CR1 |= SSPCR1_SSE;
 4649              		.loc 1 1107 0
 4650 0018 0D4A     		ldr	r2, .L203+8
 4651 001a 0D4B     		ldr	r3, .L203+8
 4652 001c 1B68     		ldr	r3, [r3]
 4653 001e 43F00203 		orr	r3, r3, #2
 4654 0022 1360     		str	r3, [r2]
1108:bluetooth_rxtx.c **** 	
1109:bluetooth_rxtx.c **** 	/* enable DMA */
1110:bluetooth_rxtx.c **** 	DMACC0Config |= DMACCxConfig_E;
 4655              		.loc 1 1110 0
 4656 0024 0B4A     		ldr	r2, .L203+12
 4657 0026 0B4B     		ldr	r3, .L203+12
 4658 0028 1B68     		ldr	r3, [r3]
 4659 002a 43F00103 		orr	r3, r3, #1
ARM GAS  /tmp/ccxwuSCA.s 			page 101


 4660 002e 1360     		str	r3, [r2]
1111:bluetooth_rxtx.c **** 	ISER0 = ISER0_ISE_DMA;
 4661              		.loc 1 1111 0
 4662 0030 094B     		ldr	r3, .L203+16
 4663 0032 4FF08062 		mov	r2, #67108864
 4664 0036 1A60     		str	r2, [r3]
1112:bluetooth_rxtx.c **** 
1113:bluetooth_rxtx.c **** 	/* activate slave select pin */
1114:bluetooth_rxtx.c **** 	DIO_SSEL_CLR;
 4665              		.loc 1 1114 0
 4666 0038 084B     		ldr	r3, .L203+20
 4667 003a 4FF08052 		mov	r2, #268435456
 4668 003e 1A60     		str	r2, [r3]
1115:bluetooth_rxtx.c **** }
 4669              		.loc 1 1115 0
 4670 0040 BD46     		mov	sp, r7
 4671              		.cfi_def_cfa_register 13
 4672              		@ sp needed
 4673 0042 5DF8047B 		ldr	r7, [sp], #4
 4674              		.cfi_restore 7
 4675              		.cfi_def_cfa_offset 0
 4676 0046 7047     		bx	lr
 4677              	.L204:
 4678              		.align	2
 4679              	.L203:
 4680 0048 98C00920 		.word	537510040
 4681 004c 24000340 		.word	1073938468
 4682 0050 04000340 		.word	1073938436
 4683 0054 10410050 		.word	1342193936
 4684 0058 00E100E0 		.word	-536813312
 4685 005c 9CC00920 		.word	537510044
 4686              		.cfi_endproc
 4687              	.LFE18:
 4689              		.section	.text.dio_ssp_stop,"ax",%progbits
 4690              		.align	2
 4691              		.thumb
 4692              		.thumb_func
 4694              	dio_ssp_stop:
 4695              	.LFB19:
1116:bluetooth_rxtx.c **** 
1117:bluetooth_rxtx.c **** static void dio_ssp_stop()
1118:bluetooth_rxtx.c **** {
 4696              		.loc 1 1118 0
 4697              		.cfi_startproc
 4698              		@ args = 0, pretend = 0, frame = 0
 4699              		@ frame_needed = 1, uses_anonymous_args = 0
 4700              		@ link register save eliminated.
 4701 0000 80B4     		push	{r7}
 4702              		.cfi_def_cfa_offset 4
 4703              		.cfi_offset 7, -4
 4704 0002 00AF     		add	r7, sp, #0
 4705              		.cfi_def_cfa_register 7
1119:bluetooth_rxtx.c **** 	// disable CC2400's output (active low)
1120:bluetooth_rxtx.c **** 	DIO_SSEL_SET;
 4706              		.loc 1 1120 0
 4707 0004 214B     		ldr	r3, .L207
 4708 0006 4FF08052 		mov	r2, #268435456
ARM GAS  /tmp/ccxwuSCA.s 			page 102


 4709 000a 1A60     		str	r2, [r3]
1121:bluetooth_rxtx.c **** 
1122:bluetooth_rxtx.c **** 	// disable DMA on SSP; disable SSP
1123:bluetooth_rxtx.c **** 	DIO_SSP_DMACR &= ~SSPDMACR_RXDMAE;
 4710              		.loc 1 1123 0
 4711 000c 204A     		ldr	r2, .L207+4
 4712 000e 204B     		ldr	r3, .L207+4
 4713 0010 1B68     		ldr	r3, [r3]
 4714 0012 23F00103 		bic	r3, r3, #1
 4715 0016 1360     		str	r3, [r2]
1124:bluetooth_rxtx.c **** 	DIO_SSP_CR1 &= ~SSPCR1_SSE;
 4716              		.loc 1 1124 0
 4717 0018 1E4A     		ldr	r2, .L207+8
 4718 001a 1E4B     		ldr	r3, .L207+8
 4719 001c 1B68     		ldr	r3, [r3]
 4720 001e 23F00203 		bic	r3, r3, #2
 4721 0022 1360     		str	r3, [r2]
1125:bluetooth_rxtx.c **** 
1126:bluetooth_rxtx.c **** 
1127:bluetooth_rxtx.c **** 	// disable DMA engine:
1128:bluetooth_rxtx.c **** 	// refer to UM10360 LPC17xx User Manual Ch 31 Sec 31.6.1, PDF page 607
1129:bluetooth_rxtx.c **** 
1130:bluetooth_rxtx.c **** 	// disable DMA interrupts
1131:bluetooth_rxtx.c **** 	ICER0 = ICER0_ICE_DMA;
 4722              		.loc 1 1131 0
 4723 0024 1C4B     		ldr	r3, .L207+12
 4724 0026 4FF08062 		mov	r2, #67108864
 4725 002a 1A60     		str	r2, [r3]
1132:bluetooth_rxtx.c **** 
1133:bluetooth_rxtx.c **** 	// disable active channels
1134:bluetooth_rxtx.c **** 	DMACC0Config = 0;
 4726              		.loc 1 1134 0
 4727 002c 1B4B     		ldr	r3, .L207+16
 4728 002e 0022     		movs	r2, #0
 4729 0030 1A60     		str	r2, [r3]
1135:bluetooth_rxtx.c **** 	DMACC1Config = 0;
 4730              		.loc 1 1135 0
 4731 0032 1B4B     		ldr	r3, .L207+20
 4732 0034 0022     		movs	r2, #0
 4733 0036 1A60     		str	r2, [r3]
1136:bluetooth_rxtx.c **** 	DMACC2Config = 0;
 4734              		.loc 1 1136 0
 4735 0038 1A4B     		ldr	r3, .L207+24
 4736 003a 0022     		movs	r2, #0
 4737 003c 1A60     		str	r2, [r3]
1137:bluetooth_rxtx.c **** 	DMACC3Config = 0;
 4738              		.loc 1 1137 0
 4739 003e 1A4B     		ldr	r3, .L207+28
 4740 0040 0022     		movs	r2, #0
 4741 0042 1A60     		str	r2, [r3]
1138:bluetooth_rxtx.c **** 	DMACC4Config = 0;
 4742              		.loc 1 1138 0
 4743 0044 194B     		ldr	r3, .L207+32
 4744 0046 0022     		movs	r2, #0
 4745 0048 1A60     		str	r2, [r3]
1139:bluetooth_rxtx.c **** 	DMACC5Config = 0;
 4746              		.loc 1 1139 0
ARM GAS  /tmp/ccxwuSCA.s 			page 103


 4747 004a 194B     		ldr	r3, .L207+36
 4748 004c 0022     		movs	r2, #0
 4749 004e 1A60     		str	r2, [r3]
1140:bluetooth_rxtx.c **** 	DMACC6Config = 0;
 4750              		.loc 1 1140 0
 4751 0050 184B     		ldr	r3, .L207+40
 4752 0052 0022     		movs	r2, #0
 4753 0054 1A60     		str	r2, [r3]
1141:bluetooth_rxtx.c **** 	DMACC7Config = 0;
 4754              		.loc 1 1141 0
 4755 0056 184B     		ldr	r3, .L207+44
 4756 0058 0022     		movs	r2, #0
 4757 005a 1A60     		str	r2, [r3]
1142:bluetooth_rxtx.c **** 	DMACIntTCClear = 0xFF;
 4758              		.loc 1 1142 0
 4759 005c 174B     		ldr	r3, .L207+48
 4760 005e FF22     		movs	r2, #255
 4761 0060 1A60     		str	r2, [r3]
1143:bluetooth_rxtx.c **** 	DMACIntErrClr = 0xFF;
 4762              		.loc 1 1143 0
 4763 0062 174B     		ldr	r3, .L207+52
 4764 0064 FF22     		movs	r2, #255
 4765 0066 1A60     		str	r2, [r3]
1144:bluetooth_rxtx.c **** 
1145:bluetooth_rxtx.c **** 	// Disable the DMA controller by writing 0 to the DMA Enable bit in the DMACConfig
1146:bluetooth_rxtx.c **** 	// register.
1147:bluetooth_rxtx.c **** 	DMACConfig &= ~DMACConfig_E;
 4766              		.loc 1 1147 0
 4767 0068 164A     		ldr	r2, .L207+56
 4768 006a 164B     		ldr	r3, .L207+56
 4769 006c 1B68     		ldr	r3, [r3]
 4770 006e 23F00103 		bic	r3, r3, #1
 4771 0072 1360     		str	r3, [r2]
1148:bluetooth_rxtx.c **** 	while (DMACConfig & DMACConfig_E);
 4772              		.loc 1 1148 0
 4773 0074 00BF     		nop
 4774              	.L206:
 4775              		.loc 1 1148 0 is_stmt 0 discriminator 1
 4776 0076 134B     		ldr	r3, .L207+56
 4777 0078 1B68     		ldr	r3, [r3]
 4778 007a 03F00103 		and	r3, r3, #1
 4779 007e 002B     		cmp	r3, #0
 4780 0080 F9D1     		bne	.L206
1149:bluetooth_rxtx.c **** }
 4781              		.loc 1 1149 0 is_stmt 1
 4782 0082 BD46     		mov	sp, r7
 4783              		.cfi_def_cfa_register 13
 4784              		@ sp needed
 4785 0084 5DF8047B 		ldr	r7, [sp], #4
 4786              		.cfi_restore 7
 4787              		.cfi_def_cfa_offset 0
 4788 0088 7047     		bx	lr
 4789              	.L208:
 4790 008a 00BF     		.align	2
 4791              	.L207:
 4792 008c 98C00920 		.word	537510040
 4793 0090 24000340 		.word	1073938468
ARM GAS  /tmp/ccxwuSCA.s 			page 104


 4794 0094 04000340 		.word	1073938436
 4795 0098 80E100E0 		.word	-536813184
 4796 009c 10410050 		.word	1342193936
 4797 00a0 30410050 		.word	1342193968
 4798 00a4 50410050 		.word	1342194000
 4799 00a8 70410050 		.word	1342194032
 4800 00ac 90410050 		.word	1342194064
 4801 00b0 B0410050 		.word	1342194096
 4802 00b4 D0410050 		.word	1342194128
 4803 00b8 F0410050 		.word	1342194160
 4804 00bc 08400050 		.word	1342193672
 4805 00c0 10400050 		.word	1342193680
 4806 00c4 30400050 		.word	1342193712
 4807              		.cfi_endproc
 4808              	.LFE19:
 4810              		.section	.text.cc2400_idle,"ax",%progbits
 4811              		.align	2
 4812              		.thumb
 4813              		.thumb_func
 4815              	cc2400_idle:
 4816              	.LFB20:
1150:bluetooth_rxtx.c **** 
1151:bluetooth_rxtx.c **** static void cc2400_idle()
1152:bluetooth_rxtx.c **** {
 4817              		.loc 1 1152 0
 4818              		.cfi_startproc
 4819              		@ args = 0, pretend = 0, frame = 0
 4820              		@ frame_needed = 1, uses_anonymous_args = 0
 4821 0000 80B5     		push	{r7, lr}
 4822              		.cfi_def_cfa_offset 8
 4823              		.cfi_offset 7, -8
 4824              		.cfi_offset 14, -4
 4825 0002 00AF     		add	r7, sp, #0
 4826              		.cfi_def_cfa_register 7
1153:bluetooth_rxtx.c **** 	cc2400_strobe(SRFOFF);
 4827              		.loc 1 1153 0
 4828 0004 6420     		movs	r0, #100
 4829 0006 FFF7FEFF 		bl	cc2400_strobe
1154:bluetooth_rxtx.c **** 	while ((cc2400_status() & FS_LOCK)); // need to wait for unlock?
 4830              		.loc 1 1154 0
 4831 000a 00BF     		nop
 4832              	.L210:
 4833              		.loc 1 1154 0 is_stmt 0 discriminator 1
 4834 000c FFF7FEFF 		bl	cc2400_status
 4835 0010 0346     		mov	r3, r0
 4836 0012 03F00403 		and	r3, r3, #4
 4837 0016 002B     		cmp	r3, #0
 4838 0018 F8D1     		bne	.L210
1155:bluetooth_rxtx.c **** 
1156:bluetooth_rxtx.c **** #ifdef UBERTOOTH_ONE
1157:bluetooth_rxtx.c **** 	PAEN_CLR;
 4839              		.loc 1 1157 0 is_stmt 1
 4840 001a 0A4B     		ldr	r3, .L211
 4841 001c 8022     		movs	r2, #128
 4842 001e 1A60     		str	r2, [r3]
1158:bluetooth_rxtx.c **** 	HGM_CLR;
 4843              		.loc 1 1158 0
ARM GAS  /tmp/ccxwuSCA.s 			page 105


 4844 0020 084B     		ldr	r3, .L211
 4845 0022 4FF48072 		mov	r2, #256
 4846 0026 1A60     		str	r2, [r3]
1159:bluetooth_rxtx.c **** #endif
1160:bluetooth_rxtx.c **** 
1161:bluetooth_rxtx.c **** 	RXLED_CLR;
 4847              		.loc 1 1161 0
 4848 0028 074B     		ldr	r3, .L211+4
 4849 002a 1022     		movs	r2, #16
 4850 002c 1A60     		str	r2, [r3]
1162:bluetooth_rxtx.c **** 	TXLED_CLR;
 4851              		.loc 1 1162 0
 4852 002e 064B     		ldr	r3, .L211+4
 4853 0030 4FF48072 		mov	r2, #256
 4854 0034 1A60     		str	r2, [r3]
1163:bluetooth_rxtx.c **** 	USRLED_CLR;
 4855              		.loc 1 1163 0
 4856 0036 044B     		ldr	r3, .L211+4
 4857 0038 0222     		movs	r2, #2
 4858 003a 1A60     		str	r2, [r3]
1164:bluetooth_rxtx.c **** 	mode = MODE_IDLE;
 4859              		.loc 1 1164 0
 4860 003c 034B     		ldr	r3, .L211+8
 4861 003e 0022     		movs	r2, #0
 4862 0040 1A70     		strb	r2, [r3]
1165:bluetooth_rxtx.c **** }
 4863              		.loc 1 1165 0
 4864 0042 80BD     		pop	{r7, pc}
 4865              	.L212:
 4866              		.align	2
 4867              	.L211:
 4868 0044 5CC00920 		.word	537509980
 4869 0048 3CC00920 		.word	537509948
 4870 004c 00000000 		.word	mode
 4871              		.cfi_endproc
 4872              	.LFE20:
 4874              		.section	.text.cc2400_rx,"ax",%progbits
 4875              		.align	2
 4876              		.thumb
 4877              		.thumb_func
 4879              	cc2400_rx:
 4880              	.LFB21:
1166:bluetooth_rxtx.c **** 
1167:bluetooth_rxtx.c **** /* start un-buffered rx */
1168:bluetooth_rxtx.c **** static void cc2400_rx()
1169:bluetooth_rxtx.c **** {
 4881              		.loc 1 1169 0
 4882              		.cfi_startproc
 4883              		@ args = 0, pretend = 0, frame = 8
 4884              		@ frame_needed = 1, uses_anonymous_args = 0
 4885 0000 80B5     		push	{r7, lr}
 4886              		.cfi_def_cfa_offset 8
 4887              		.cfi_offset 7, -8
 4888              		.cfi_offset 14, -4
 4889 0002 82B0     		sub	sp, sp, #8
 4890              		.cfi_def_cfa_offset 16
 4891 0004 00AF     		add	r7, sp, #0
ARM GAS  /tmp/ccxwuSCA.s 			page 106


 4892              		.cfi_def_cfa_register 7
1170:bluetooth_rxtx.c **** 	u16 mdmctrl;
1171:bluetooth_rxtx.c **** 	if (modulation == MOD_BT_BASIC_RATE) {
 4893              		.loc 1 1171 0
 4894 0006 2A4B     		ldr	r3, .L220
 4895 0008 1B78     		ldrb	r3, [r3]
 4896 000a DBB2     		uxtb	r3, r3
 4897 000c 002B     		cmp	r3, #0
 4898 000e 02D1     		bne	.L214
1172:bluetooth_rxtx.c **** 		mdmctrl = 0x0029; // 160 kHz frequency deviation
 4899              		.loc 1 1172 0
 4900 0010 2923     		movs	r3, #41
 4901 0012 FB80     		strh	r3, [r7, #6]	@ movhi
 4902 0014 08E0     		b	.L215
 4903              	.L214:
1173:bluetooth_rxtx.c **** 	} else if (modulation == MOD_BT_LOW_ENERGY) {
 4904              		.loc 1 1173 0
 4905 0016 264B     		ldr	r3, .L220
 4906 0018 1B78     		ldrb	r3, [r3]
 4907 001a DBB2     		uxtb	r3, r3
 4908 001c 012B     		cmp	r3, #1
 4909 001e 02D1     		bne	.L216
1174:bluetooth_rxtx.c **** 		mdmctrl = 0x0040; // 250 kHz frequency deviation
 4910              		.loc 1 1174 0
 4911 0020 4023     		movs	r3, #64
 4912 0022 FB80     		strh	r3, [r7, #6]	@ movhi
 4913 0024 00E0     		b	.L215
 4914              	.L216:
1175:bluetooth_rxtx.c **** 	} else {
1176:bluetooth_rxtx.c **** 		/* oops */
1177:bluetooth_rxtx.c **** 		return;
 4915              		.loc 1 1177 0
 4916 0026 40E0     		b	.L213
 4917              	.L215:
1178:bluetooth_rxtx.c **** 	}
1179:bluetooth_rxtx.c **** 
1180:bluetooth_rxtx.c **** 	cc2400_set(MANAND,  0x7fff);
 4918              		.loc 1 1180 0
 4919 0028 0D20     		movs	r0, #13
 4920 002a 47F6FF71 		movw	r1, #32767
 4921 002e FFF7FEFF 		bl	cc2400_set
1181:bluetooth_rxtx.c **** 	cc2400_set(LMTST,   0x2b22);
 4922              		.loc 1 1181 0
 4923 0032 1220     		movs	r0, #18
 4924 0034 42F62231 		movw	r1, #11042
 4925 0038 FFF7FEFF 		bl	cc2400_set
1182:bluetooth_rxtx.c **** 	cc2400_set(MDMTST0, 0x134b); // without PRNG
 4926              		.loc 1 1182 0
 4927 003c 1420     		movs	r0, #20
 4928 003e 41F24B31 		movw	r1, #4939
 4929 0042 FFF7FEFF 		bl	cc2400_set
1183:bluetooth_rxtx.c **** 	cc2400_set(GRMDM,   0x0101); // un-buffered mode, GFSK
 4930              		.loc 1 1183 0
 4931 0046 2020     		movs	r0, #32
 4932 0048 40F20111 		movw	r1, #257
 4933 004c FFF7FEFF 		bl	cc2400_set
1184:bluetooth_rxtx.c **** 	// 0 00 00 0 010 00 0 00 0 1
ARM GAS  /tmp/ccxwuSCA.s 			page 107


1185:bluetooth_rxtx.c **** 	//      |  | |   |  +--------> CRC off
1186:bluetooth_rxtx.c **** 	//      |  | |   +-----------> sync word: 8 MSB bits of SYNC_WORD
1187:bluetooth_rxtx.c **** 	//      |  | +---------------> 2 preamble bytes of 01010101
1188:bluetooth_rxtx.c **** 	//      |  +-----------------> not packet mode
1189:bluetooth_rxtx.c **** 	//      +--------------------> un-buffered mode
1190:bluetooth_rxtx.c **** 	cc2400_set(FSDIV,   channel - 1); // 1 MHz IF
 4934              		.loc 1 1190 0
 4935 0050 184B     		ldr	r3, .L220+4
 4936 0052 1B88     		ldrh	r3, [r3]	@ movhi
 4937 0054 9BB2     		uxth	r3, r3
 4938 0056 013B     		subs	r3, r3, #1
 4939 0058 9BB2     		uxth	r3, r3
 4940 005a 0220     		movs	r0, #2
 4941 005c 1946     		mov	r1, r3
 4942 005e FFF7FEFF 		bl	cc2400_set
1191:bluetooth_rxtx.c **** 	cc2400_set(MDMCTRL, mdmctrl);
 4943              		.loc 1 1191 0
 4944 0062 FB88     		ldrh	r3, [r7, #6]
 4945 0064 0320     		movs	r0, #3
 4946 0066 1946     		mov	r1, r3
 4947 0068 FFF7FEFF 		bl	cc2400_set
1192:bluetooth_rxtx.c **** 
1193:bluetooth_rxtx.c **** 	// Set up CS register
1194:bluetooth_rxtx.c **** 	cs_threshold_calc_and_set();
 4948              		.loc 1 1194 0
 4949 006c FFF7FEFF 		bl	cs_threshold_calc_and_set
1195:bluetooth_rxtx.c **** 
1196:bluetooth_rxtx.c **** 	while (!(cc2400_status() & XOSC16M_STABLE));
 4950              		.loc 1 1196 0
 4951 0070 00BF     		nop
 4952              	.L218:
 4953              		.loc 1 1196 0 is_stmt 0 discriminator 1
 4954 0072 FFF7FEFF 		bl	cc2400_status
 4955 0076 0346     		mov	r3, r0
 4956 0078 03F04003 		and	r3, r3, #64
 4957 007c 002B     		cmp	r3, #0
 4958 007e F8D0     		beq	.L218
1197:bluetooth_rxtx.c **** 	cc2400_strobe(SFSON);
 4959              		.loc 1 1197 0 is_stmt 1
 4960 0080 6120     		movs	r0, #97
 4961 0082 FFF7FEFF 		bl	cc2400_strobe
1198:bluetooth_rxtx.c **** 	while (!(cc2400_status() & FS_LOCK));
 4962              		.loc 1 1198 0
 4963 0086 00BF     		nop
 4964              	.L219:
 4965              		.loc 1 1198 0 is_stmt 0 discriminator 1
 4966 0088 FFF7FEFF 		bl	cc2400_status
 4967 008c 0346     		mov	r3, r0
 4968 008e 03F00403 		and	r3, r3, #4
 4969 0092 002B     		cmp	r3, #0
 4970 0094 F8D0     		beq	.L219
1199:bluetooth_rxtx.c **** 	cc2400_strobe(SRX);
 4971              		.loc 1 1199 0 is_stmt 1
 4972 0096 6220     		movs	r0, #98
 4973 0098 FFF7FEFF 		bl	cc2400_strobe
1200:bluetooth_rxtx.c **** #ifdef UBERTOOTH_ONE
1201:bluetooth_rxtx.c **** 	PAEN_SET;
ARM GAS  /tmp/ccxwuSCA.s 			page 108


 4974              		.loc 1 1201 0
 4975 009c 064B     		ldr	r3, .L220+8
 4976 009e 8022     		movs	r2, #128
 4977 00a0 1A60     		str	r2, [r3]
1202:bluetooth_rxtx.c **** 	HGM_SET;
 4978              		.loc 1 1202 0
 4979 00a2 054B     		ldr	r3, .L220+8
 4980 00a4 4FF48072 		mov	r2, #256
 4981 00a8 1A60     		str	r2, [r3]
 4982              	.L213:
1203:bluetooth_rxtx.c **** #endif
1204:bluetooth_rxtx.c **** }
 4983              		.loc 1 1204 0
 4984 00aa 0837     		adds	r7, r7, #8
 4985              		.cfi_def_cfa_offset 8
 4986 00ac BD46     		mov	sp, r7
 4987              		.cfi_def_cfa_register 13
 4988              		@ sp needed
 4989 00ae 80BD     		pop	{r7, pc}
 4990              	.L221:
 4991              		.align	2
 4992              	.L220:
 4993 00b0 00000000 		.word	modulation
 4994 00b4 00000000 		.word	channel
 4995 00b8 58C00920 		.word	537509976
 4996              		.cfi_endproc
 4997              	.LFE21:
 4999              		.section	.text.cc2400_rx_sync,"ax",%progbits
 5000              		.align	2
 5001              		.thumb
 5002              		.thumb_func
 5004              	cc2400_rx_sync:
 5005              	.LFB22:
1205:bluetooth_rxtx.c **** 
1206:bluetooth_rxtx.c **** /* start un-buffered rx */
1207:bluetooth_rxtx.c **** static void cc2400_rx_sync(u32 sync)
1208:bluetooth_rxtx.c **** {
 5006              		.loc 1 1208 0
 5007              		.cfi_startproc
 5008              		@ args = 0, pretend = 0, frame = 16
 5009              		@ frame_needed = 1, uses_anonymous_args = 0
 5010 0000 80B5     		push	{r7, lr}
 5011              		.cfi_def_cfa_offset 8
 5012              		.cfi_offset 7, -8
 5013              		.cfi_offset 14, -4
 5014 0002 84B0     		sub	sp, sp, #16
 5015              		.cfi_def_cfa_offset 24
 5016 0004 00AF     		add	r7, sp, #0
 5017              		.cfi_def_cfa_register 7
 5018 0006 7860     		str	r0, [r7, #4]
1209:bluetooth_rxtx.c **** 	u16 grmdm, mdmctrl;
1210:bluetooth_rxtx.c **** 
1211:bluetooth_rxtx.c **** 	if (modulation == MOD_BT_BASIC_RATE) {
 5019              		.loc 1 1211 0
 5020 0008 334B     		ldr	r3, .L229
 5021 000a 1B78     		ldrb	r3, [r3]
 5022 000c DBB2     		uxtb	r3, r3
ARM GAS  /tmp/ccxwuSCA.s 			page 109


 5023 000e 002B     		cmp	r3, #0
 5024 0010 05D1     		bne	.L223
1212:bluetooth_rxtx.c **** 		mdmctrl = 0x0029; // 160 kHz frequency deviation
 5025              		.loc 1 1212 0
 5026 0012 2923     		movs	r3, #41
 5027 0014 BB81     		strh	r3, [r7, #12]	@ movhi
1213:bluetooth_rxtx.c **** 		grmdm = 0x0461; // un-buffered mode, packet w/ sync word detection
 5028              		.loc 1 1213 0
 5029 0016 40F26143 		movw	r3, #1121
 5030 001a FB81     		strh	r3, [r7, #14]	@ movhi
 5031 001c 0BE0     		b	.L224
 5032              	.L223:
1214:bluetooth_rxtx.c **** 		// 0 00 00 1 000 11 0 00 0 1
1215:bluetooth_rxtx.c **** 		//   |  |  | |   |  +--------> CRC off
1216:bluetooth_rxtx.c **** 		//   |  |  | |   +-----------> sync word: 32 MSB bits of SYNC_WORD
1217:bluetooth_rxtx.c **** 		//   |  |  | +---------------> 0 preamble bytes of 01010101
1218:bluetooth_rxtx.c **** 		//   |  |  +-----------------> packet mode
1219:bluetooth_rxtx.c **** 		//   |  +--------------------> un-buffered mode
1220:bluetooth_rxtx.c **** 		//   +-----------------------> sync error bits: 0
1221:bluetooth_rxtx.c **** 
1222:bluetooth_rxtx.c **** 	} else if (modulation == MOD_BT_LOW_ENERGY) {
 5033              		.loc 1 1222 0
 5034 001e 2E4B     		ldr	r3, .L229
 5035 0020 1B78     		ldrb	r3, [r3]
 5036 0022 DBB2     		uxtb	r3, r3
 5037 0024 012B     		cmp	r3, #1
 5038 0026 05D1     		bne	.L225
1223:bluetooth_rxtx.c **** 		mdmctrl = 0x0040; // 250 kHz frequency deviation
 5039              		.loc 1 1223 0
 5040 0028 4023     		movs	r3, #64
 5041 002a BB81     		strh	r3, [r7, #12]	@ movhi
1224:bluetooth_rxtx.c **** 		grmdm = 0x0561; // un-buffered mode, packet w/ sync word detection
 5042              		.loc 1 1224 0
 5043 002c 40F26153 		movw	r3, #1377
 5044 0030 FB81     		strh	r3, [r7, #14]	@ movhi
 5045 0032 00E0     		b	.L224
 5046              	.L225:
1225:bluetooth_rxtx.c **** 		// 0 00 00 1 010 11 0 00 0 1
1226:bluetooth_rxtx.c **** 		//   |  |  | |   |  +--------> CRC off
1227:bluetooth_rxtx.c **** 		//   |  |  | |   +-----------> sync word: 32 MSB bits of SYNC_WORD
1228:bluetooth_rxtx.c **** 		//   |  |  | +---------------> 2 preamble bytes of 01010101
1229:bluetooth_rxtx.c **** 		//   |  |  +-----------------> packet mode
1230:bluetooth_rxtx.c **** 		//   |  +--------------------> un-buffered mode
1231:bluetooth_rxtx.c **** 		//   +-----------------------> sync error bits: 0
1232:bluetooth_rxtx.c **** 
1233:bluetooth_rxtx.c **** 	} else {
1234:bluetooth_rxtx.c **** 		/* oops */
1235:bluetooth_rxtx.c **** 		return;
 5047              		.loc 1 1235 0
 5048 0034 4DE0     		b	.L222
 5049              	.L224:
1236:bluetooth_rxtx.c **** 	}
1237:bluetooth_rxtx.c **** 
1238:bluetooth_rxtx.c **** 	cc2400_set(MANAND,  0x7fff);
 5050              		.loc 1 1238 0
 5051 0036 0D20     		movs	r0, #13
 5052 0038 47F6FF71 		movw	r1, #32767
ARM GAS  /tmp/ccxwuSCA.s 			page 110


 5053 003c FFF7FEFF 		bl	cc2400_set
1239:bluetooth_rxtx.c **** 	cc2400_set(LMTST,   0x2b22);
 5054              		.loc 1 1239 0
 5055 0040 1220     		movs	r0, #18
 5056 0042 42F62231 		movw	r1, #11042
 5057 0046 FFF7FEFF 		bl	cc2400_set
1240:bluetooth_rxtx.c **** 
1241:bluetooth_rxtx.c **** 	cc2400_set(MDMTST0, 0x124b);
 5058              		.loc 1 1241 0
 5059 004a 1420     		movs	r0, #20
 5060 004c 41F24B21 		movw	r1, #4683
 5061 0050 FFF7FEFF 		bl	cc2400_set
1242:bluetooth_rxtx.c **** 	// 1      2      4b
1243:bluetooth_rxtx.c **** 	// 00 0 1 0 0 10 01001011
1244:bluetooth_rxtx.c **** 	//    | | | | |  +---------> AFC_DELTA = ??
1245:bluetooth_rxtx.c **** 	//    | | | | +------------> AFC settling = 4 pairs (8 bit preamble)
1246:bluetooth_rxtx.c **** 	//    | | | +--------------> no AFC adjust on packet
1247:bluetooth_rxtx.c **** 	//    | | +----------------> do not invert data
1248:bluetooth_rxtx.c **** 	//    | +------------------> TX IF freq 1 0Hz
1249:bluetooth_rxtx.c **** 	//    +--------------------> PRNG off
1250:bluetooth_rxtx.c **** 	//
1251:bluetooth_rxtx.c **** 	// ref: CC2400 datasheet page 67
