ARM GAS  /tmp/ccXEAChk.s 			page 1


   1              		.syntax unified
   2              		.cpu cortex-m3
   3              		.fpu softvfp
   4              		.eabi_attribute 20, 1
   5              		.eabi_attribute 21, 1
   6              		.eabi_attribute 23, 3
   7              		.eabi_attribute 24, 1
   8              		.eabi_attribute 25, 1
   9              		.eabi_attribute 26, 1
  10              		.eabi_attribute 30, 6
  11              		.eabi_attribute 34, 1
  12              		.eabi_attribute 18, 4
  13              		.thumb
  14              		.file	"bluetooth_rxtx.c"
  15              		.text
  16              	.Ltext0:
  17              		.cfi_sections	.debug_frame
  18              		.data
  19              		.align	2
  22              	iap_entry:
  23 0000 F11FFF1F 		.word	536813553
  24              		.comm	target,16,8
  25              		.comm	syncword,8,8
  26              		.comm	afh_enabled,1,1
  27              		.comm	afh_map,10,4
  28              		.section	.rodata
  29              		.align	2
  32              	advertising_channels:
  33 0000 00       		.byte	0
  34 0001 0C       		.byte	12
  35 0002 27       		.byte	39
  36 0003 00       		.align	2
  39              	data_channels:
  40 0004 01       		.byte	1
  41 0005 02       		.byte	2
  42 0006 03       		.byte	3
  43 0007 04       		.byte	4
  44 0008 05       		.byte	5
  45 0009 06       		.byte	6
  46 000a 07       		.byte	7
  47 000b 08       		.byte	8
  48 000c 09       		.byte	9
  49 000d 0A       		.byte	10
  50 000e 0B       		.byte	11
  51 000f 0D       		.byte	13
  52 0010 0E       		.byte	14
  53 0011 0F       		.byte	15
  54 0012 10       		.byte	16
  55 0013 11       		.byte	17
  56 0014 12       		.byte	18
  57 0015 13       		.byte	19
  58 0016 14       		.byte	20
  59 0017 15       		.byte	21
  60 0018 16       		.byte	22
  61 0019 17       		.byte	23
  62 001a 18       		.byte	24
  63 001b 19       		.byte	25
ARM GAS  /tmp/ccXEAChk.s 			page 2


  64 001c 1A       		.byte	26
  65 001d 1B       		.byte	27
  66 001e 1C       		.byte	28
  67 001f 1D       		.byte	29
  68 0020 1E       		.byte	30
  69 0021 1F       		.byte	31
  70 0022 20       		.byte	32
  71 0023 21       		.byte	33
  72 0024 22       		.byte	34
  73 0025 23       		.byte	35
  74 0026 24       		.byte	36
  75 0027 25       		.byte	37
  76 0028 26       		.byte	38
  77 0029 000000   		.align	2
  80              	payload:
  81 002c CA       		.byte	-54
  82 002d AA       		.byte	-86
  83 002e AA       		.byte	-86
  84 002f AA       		.byte	-86
  85 0030 AA       		.byte	-86
  86 0031 AA       		.byte	-86
  87 0032 AA       		.byte	-86
  88 0033 AA       		.byte	-86
  89 0034 AA       		.byte	-86
  90 0035 AA       		.byte	-86
  91 0036 AA       		.byte	-86
  92 0037 AA       		.byte	-86
  93 0038 AA       		.byte	-86
  94 0039 AA       		.byte	-86
  95 003a AA       		.byte	-86
  96 003b AA       		.byte	-86
  97 003c AA       		.byte	-86
  98 003d AA       		.byte	-86
  99 003e AA       		.byte	-86
 100 003f AA       		.byte	-86
 101              		.align	2
 104              	whitening:
 105 0040 01       		.byte	1
 106 0041 01       		.byte	1
 107 0042 01       		.byte	1
 108 0043 01       		.byte	1
 109 0044 00       		.byte	0
 110 0045 01       		.byte	1
 111 0046 00       		.byte	0
 112 0047 01       		.byte	1
 113 0048 00       		.byte	0
 114 0049 01       		.byte	1
 115 004a 00       		.byte	0
 116 004b 00       		.byte	0
 117 004c 00       		.byte	0
 118 004d 00       		.byte	0
 119 004e 01       		.byte	1
 120 004f 00       		.byte	0
 121 0050 01       		.byte	1
 122 0051 01       		.byte	1
 123 0052 00       		.byte	0
 124 0053 01       		.byte	1
ARM GAS  /tmp/ccXEAChk.s 			page 3


 125 0054 01       		.byte	1
 126 0055 01       		.byte	1
 127 0056 01       		.byte	1
 128 0057 00       		.byte	0
 129 0058 00       		.byte	0
 130 0059 01       		.byte	1
 131 005a 01       		.byte	1
 132 005b 01       		.byte	1
 133 005c 00       		.byte	0
 134 005d 00       		.byte	0
 135 005e 01       		.byte	1
 136 005f 00       		.byte	0
 137 0060 01       		.byte	1
 138 0061 00       		.byte	0
 139 0062 01       		.byte	1
 140 0063 01       		.byte	1
 141 0064 00       		.byte	0
 142 0065 00       		.byte	0
 143 0066 01       		.byte	1
 144 0067 01       		.byte	1
 145 0068 00       		.byte	0
 146 0069 00       		.byte	0
 147 006a 00       		.byte	0
 148 006b 00       		.byte	0
 149 006c 00       		.byte	0
 150 006d 01       		.byte	1
 151 006e 01       		.byte	1
 152 006f 00       		.byte	0
 153 0070 01       		.byte	1
 154 0071 01       		.byte	1
 155 0072 00       		.byte	0
 156 0073 01       		.byte	1
 157 0074 00       		.byte	0
 158 0075 01       		.byte	1
 159 0076 01       		.byte	1
 160 0077 01       		.byte	1
 161 0078 00       		.byte	0
 162 0079 01       		.byte	1
 163 007a 00       		.byte	0
 164 007b 00       		.byte	0
 165 007c 00       		.byte	0
 166 007d 01       		.byte	1
 167 007e 01       		.byte	1
 168 007f 00       		.byte	0
 169 0080 00       		.byte	0
 170 0081 01       		.byte	1
 171 0082 00       		.byte	0
 172 0083 00       		.byte	0
 173 0084 00       		.byte	0
 174 0085 01       		.byte	1
 175 0086 00       		.byte	0
 176 0087 00       		.byte	0
 177 0088 00       		.byte	0
 178 0089 00       		.byte	0
 179 008a 00       		.byte	0
 180 008b 00       		.byte	0
 181 008c 01       		.byte	1
ARM GAS  /tmp/ccXEAChk.s 			page 4


 182 008d 00       		.byte	0
 183 008e 00       		.byte	0
 184 008f 01       		.byte	1
 185 0090 00       		.byte	0
 186 0091 00       		.byte	0
 187 0092 01       		.byte	1
 188 0093 01       		.byte	1
 189 0094 00       		.byte	0
 190 0095 01       		.byte	1
 191 0096 00       		.byte	0
 192 0097 00       		.byte	0
 193 0098 01       		.byte	1
 194 0099 01       		.byte	1
 195 009a 01       		.byte	1
 196 009b 01       		.byte	1
 197 009c 00       		.byte	0
 198 009d 01       		.byte	1
 199 009e 01       		.byte	1
 200 009f 01       		.byte	1
 201 00a0 00       		.byte	0
 202 00a1 00       		.byte	0
 203 00a2 00       		.byte	0
 204 00a3 00       		.byte	0
 205 00a4 01       		.byte	1
 206 00a5 01       		.byte	1
 207 00a6 01       		.byte	1
 208 00a7 01       		.byte	1
 209 00a8 01       		.byte	1
 210 00a9 01       		.byte	1
 211 00aa 01       		.byte	1
 212 00ab 00       		.byte	0
 213 00ac 00       		.byte	0
 214 00ad 00       		.byte	0
 215 00ae 01       		.byte	1
 216 00af 01       		.byte	1
 217 00b0 01       		.byte	1
 218 00b1 00       		.byte	0
 219 00b2 01       		.byte	1
 220 00b3 01       		.byte	1
 221 00b4 00       		.byte	0
 222 00b5 00       		.byte	0
 223 00b6 00       		.byte	0
 224 00b7 01       		.byte	1
 225 00b8 00       		.byte	0
 226 00b9 01       		.byte	1
 227 00ba 00       		.byte	0
 228 00bb 00       		.byte	0
 229 00bc 01       		.byte	1
 230 00bd 00       		.byte	0
 231 00be 01       		.byte	1
 232 00bf 00       		.align	2
 235              	whitening_index:
 236 00c0 46       		.byte	70
 237 00c1 3E       		.byte	62
 238 00c2 78       		.byte	120
 239 00c3 6F       		.byte	111
 240 00c4 4D       		.byte	77
ARM GAS  /tmp/ccXEAChk.s 			page 5


 241 00c5 2E       		.byte	46
 242 00c6 0F       		.byte	15
 243 00c7 65       		.byte	101
 244 00c8 42       		.byte	66
 245 00c9 27       		.byte	39
 246 00ca 1F       		.byte	31
 247 00cb 1A       		.byte	26
 248 00cc 50       		.byte	80
 249 00cd 53       		.byte	83
 250 00ce 7D       		.byte	125
 251 00cf 59       		.byte	89
 252 00d0 0A       		.byte	10
 253 00d1 23       		.byte	35
 254 00d2 08       		.byte	8
 255 00d3 36       		.byte	54
 256 00d4 7A       		.byte	122
 257 00d5 11       		.byte	17
 258 00d6 21       		.byte	33
 259 00d7 00       		.byte	0
 260 00d8 3A       		.byte	58
 261 00d9 73       		.byte	115
 262 00da 06       		.byte	6
 263 00db 5E       		.byte	94
 264 00dc 56       		.byte	86
 265 00dd 31       		.byte	49
 266 00de 34       		.byte	52
 267 00df 14       		.byte	20
 268 00e0 28       		.byte	40
 269 00e1 1B       		.byte	27
 270 00e2 54       		.byte	84
 271 00e3 5A       		.byte	90
 272 00e4 3F       		.byte	63
 273 00e5 70       		.byte	112
 274 00e6 2F       		.byte	47
 275 00e7 66       		.byte	102
 276              		.align	2
 279              	hop_interval_lut:
 280 00e8 00       		.byte	0
 281 00e9 01       		.byte	1
 282 00ea 13       		.byte	19
 283 00eb 19       		.byte	25
 284 00ec 1C       		.byte	28
 285 00ed 0F       		.byte	15
 286 00ee 1F       		.byte	31
 287 00ef 10       		.byte	16
 288 00f0 0E       		.byte	14
 289 00f1 21       		.byte	33
 290 00f2 1A       		.byte	26
 291 00f3 1B       		.byte	27
 292 00f4 22       		.byte	34
 293 00f5 14       		.byte	20
 294 00f6 08       		.byte	8
 295 00f7 05       		.byte	5
 296 00f8 07       		.byte	7
 297 00f9 18       		.byte	24
 298 00fa 23       		.byte	35
 299 00fb 02       		.byte	2
ARM GAS  /tmp/ccXEAChk.s 			page 6


 300 00fc 0D       		.byte	13
 301 00fd 1E       		.byte	30
 302 00fe 20       		.byte	32
 303 00ff 1D       		.byte	29
 304 0100 11       		.byte	17
 305 0101 03       		.byte	3
 306 0102 0A       		.byte	10
 307 0103 0B       		.byte	11
 308 0104 04       		.byte	4
 309 0105 17       		.byte	23
 310 0106 15       		.byte	21
 311 0107 06       		.byte	6
 312 0108 16       		.byte	22
 313 0109 09       		.byte	9
 314 010a 0C       		.byte	12
 315 010b 12       		.byte	18
 316 010c 24       		.byte	36
 317 010d 000000   		.align	2
 320              	whitening_word:
 321 0110 40B2BCC3 		.word	-1011043776
 322 0114 1F374A5F 		.word	1598699295
 323 0118 85F69C9A 		.word	-1700989307
 324 011c C1D6C544 		.word	1153816257
 325 0120 2059DEE1 		.word	-505521888
 326 0124 8F1BA5AF 		.word	-1348134001
 327 0128 427B4ECD 		.word	-850494654
 328 012c 60EB6222 		.word	576908128
 329 0130 902CEFF0 		.word	-252760944
 330 0134 C78DD257 		.word	1473416647
 331 0138 A13DA766 		.word	1722236321
 332 013c B0753111 		.word	288454064
 333 0140 8940B2BC 		.word	-1129168759
 334 0144 C31F374A 		.word	1245126595
 335 0148 5F85F69C 		.word	-1661565601
 336 014c 9AC1D6C5 		.word	-975781478
 337 0150 442059DE 		.word	-564584380
 338 0154 E18F1BA5 		.word	-1524920351
 339 0158 AF427B4E 		.word	1316700847
 340 015c CD60EB62 		.word	1659592909
 341 0160 22902CEF 		.word	-282292190
 342 0164 F0C78DD2 		.word	-762460176
 343 0168 57A13DA7 		.word	-1489133225
 344 016c 66B07531 		.word	829796454
 345 0170 D257A13D 		.word	1033983954
 346 0174 A766B075 		.word	1974494887
 347 0178 31114896 		.word	-1773661903
 348 017c 77F8E346 		.word	1189345399
 349 0180 E9ABD09E 		.word	-1630491671
 350 0184 5333D8BA 		.word	-1160236205
 351 0188 980824CB 		.word	-886830952
 352 018c 3BFC71A3 		.word	-1552810949
 353 0190 F45568CF 		.word	-815245836
 354 0194 A9196C5D 		.word	1567365545
 355 0198 4C0492E5 		.word	-443415476
 356 019c 1DFEB851 		.word	1371078173
 357 01a0 1BA5AF42 		.word	1118807323
 358 01a4 7B4ECD60 		.word	1624067707
ARM GAS  /tmp/ccXEAChk.s 			page 7


 359 01a8 EB622290 		.word	-1876794645
 360 01ac 2CEFF0C7 		.word	-940511444
 361 01b0 8DD257A1 		.word	-1588079987
 362 01b4 3DA766B0 		.word	-1335449795
 363 01b8 75311148 		.word	1209086325
 364 01bc 9677F8E3 		.word	-470255722
 365 01c0 46E9ABD0 		.word	-794039994
 366 01c4 9E5333D8 		.word	-667724898
 367 01c8 BA980824 		.word	604543162
 368 01cc CB3BFC71 		.word	1912355787
 369 01d0 6479873F 		.word	1065843044
 370 01d4 6E94BE0A 		.word	180261998
 371 01d8 ED393583 		.word	-2093663763
 372 01dc AD8B8940 		.word	1082756013
 373 01e0 B2BCC31F 		.word	532921522
 374 01e4 374A5F85 		.word	-2057352649
 375 01e8 F69C9AC1 		.word	-1046831882
 376 01ec D6C54420 		.word	541378006
 377 01f0 59DEE18F 		.word	-1881022887
 378 01f4 1BA5AF42 		.word	1118807323
 379 01f8 7B4ECD60 		.word	1624067707
 380 01fc EB622290 		.word	-1876794645
 381 0200 AD8B8940 		.word	1082756013
 382 0204 B2BCC31F 		.word	532921522
 383 0208 374A5F85 		.word	-2057352649
 384 020c F69C9AC1 		.word	-1046831882
 385 0210 D6C54420 		.word	541378006
 386 0214 59DEE18F 		.word	-1881022887
 387 0218 1BA5AF42 		.word	1118807323
 388 021c 7B4ECD60 		.word	1624067707
 389 0220 EB622290 		.word	-1876794645
 390 0224 2CEFF0C7 		.word	-940511444
 391 0228 8DD257A1 		.word	-1588079987
 392 022c 3DA766B0 		.word	-1335449795
 393 0230 F69C9AC1 		.word	-1046831882
 394 0234 D6C54420 		.word	541378006
 395 0238 59DEE18F 		.word	-1881022887
 396 023c 1BA5AF42 		.word	1118807323
 397 0240 7B4ECD60 		.word	1624067707
 398 0244 EB622290 		.word	-1876794645
 399 0248 2CEFF0C7 		.word	-940511444
 400 024c 8DD257A1 		.word	-1588079987
 401 0250 3DA766B0 		.word	-1335449795
 402 0254 75311148 		.word	1209086325
 403 0258 9677F8E3 		.word	-470255722
 404 025c 46E9ABD0 		.word	-794039994
 405 0260 3F6E94BE 		.word	-1097568705
 406 0264 0AED3935 		.word	892988682
 407 0268 83AD8B89 		.word	-1987334781
 408 026c 40B2BCC3 		.word	-1011043776
 409 0270 1F374A5F 		.word	1598699295
 410 0274 85F69C9A 		.word	-1700989307
 411 0278 C1D6C544 		.word	1153816257
 412 027c 2059DEE1 		.word	-505521888
 413 0280 8F1BA5AF 		.word	-1348134001
 414 0284 427B4ECD 		.word	-850494654
 415 0288 60EB6222 		.word	576908128
ARM GAS  /tmp/ccXEAChk.s 			page 8


 416 028c 902CEFF0 		.word	-252760944
 417 0290 0824CB3B 		.word	1003168776
 418 0294 FC71A3F4 		.word	-190615044
 419 0298 5568CFA9 		.word	-1446025131
 420 029c 196C5D4C 		.word	1281190937
 421 02a0 0492E51D 		.word	501584388
 422 02a4 FEB851FA 		.word	-95307522
 423 02a8 2AB4E7D4 		.word	-723012566
 424 02ac 0CB62E26 		.word	640595468
 425 02b0 02C9F20E 		.word	250792194
 426 02b4 7FDC287D 		.word	2099829887
 427 02b8 15DA736A 		.word	1785977365
 428 02bc 065B1713 		.word	320297734
 429 02c0 C1D6C544 		.word	1153816257
 430 02c4 2059DEE1 		.word	-505521888
 431 02c8 8F1BA5AF 		.word	-1348134001
 432 02cc 427B4ECD 		.word	-850494654
 433 02d0 60EB6222 		.word	576908128
 434 02d4 902CEFF0 		.word	-252760944
 435 02d8 C78DD257 		.word	1473416647
 436 02dc A13DA766 		.word	1722236321
 437 02e0 B0753111 		.word	288454064
 438 02e4 489677F8 		.word	-126380472
 439 02e8 E346E9AB 		.word	-1410775325
 440 02ec D09E5333 		.word	861118160
 441 02f0 9AC1D6C5 		.word	-975781478
 442 02f4 442059DE 		.word	-564584380
 443 02f8 E18F1BA5 		.word	-1524920351
 444 02fc AF427B4E 		.word	1316700847
 445 0300 CD60EB62 		.word	1659592909
 446 0304 22902CEF 		.word	-282292190
 447 0308 F0C78DD2 		.word	-762460176
 448 030c 57A13DA7 		.word	-1489133225
 449 0310 66B07531 		.word	829796454
 450 0314 11489677 		.word	2006337553
 451 0318 F8E346E9 		.word	-381230088
 452 031c ABD09E53 		.word	1402917035
 453 0320 5333D8BA 		.word	-1160236205
 454 0324 980824CB 		.word	-886830952
 455 0328 3BFC71A3 		.word	-1552810949
 456 032c F45568CF 		.word	-815245836
 457 0330 A9196C5D 		.word	1567365545
 458 0334 4C0492E5 		.word	-443415476
 459 0338 1DFEB851 		.word	1371078173
 460 033c FA2AB4E7 		.word	-407622918
 461 0340 D40CB62E 		.word	783682772
 462 0344 2602C9F2 		.word	-221707738
 463 0348 0E7FDC28 		.word	685539086
 464 034c 7D15DA73 		.word	1943672189
 465 0350 2CEFF0C7 		.word	-940511444
 466 0354 8DD257A1 		.word	-1588079987
 467 0358 3DA766B0 		.word	-1335449795
 468 035c 75311148 		.word	1209086325
 469 0360 9677F8E3 		.word	-470255722
 470 0364 46E9ABD0 		.word	-794039994
 471 0368 9E5333D8 		.word	-667724898
 472 036c BA980824 		.word	604543162
ARM GAS  /tmp/ccXEAChk.s 			page 9


 473 0370 CB3BFC71 		.word	1912355787
 474 0374 A3F45568 		.word	1750463651
 475 0378 CFA9196C 		.word	1813621199
 476 037c 5D4C0492 		.word	-1845212067
 477 0380 E51DFEB8 		.word	-1191305755
 478 0384 51FA2AB4 		.word	-1272251823
 479 0388 E7D40CB6 		.word	-1240673049
 480 038c 2E2602C9 		.word	-922606034
 481 0390 F20E7FDC 		.word	-595652878
 482 0394 287D15DA 		.word	-636125912
 483 0398 736A065B 		.word	1527147123
 484 039c 17138164 		.word	1686180631
 485 03a0 79873F6E 		.word	1849657209
 486 03a4 94BE0AED 		.word	-318062956
 487 03a8 393583AD 		.word	-1383910087
 488 03ac 8B8940B2 		.word	-1304393333
 489 03b0 BE0AED39 		.word	971836094
 490 03b4 3583AD8B 		.word	-1951562955
 491 03b8 8940B2BC 		.word	-1129168759
 492 03bc C31F374A 		.word	1245126595
 493 03c0 5F85F69C 		.word	-1661565601
 494 03c4 9AC1D6C5 		.word	-975781478
 495 03c8 442059DE 		.word	-564584380
 496 03cc E18F1BA5 		.word	-1524920351
 497 03d0 AF427B4E 		.word	1316700847
 498 03d4 CD60EB62 		.word	1659592909
 499 03d8 22902CEF 		.word	-282292190
 500 03dc F0C78DD2 		.word	-762460176
 501 03e0 77F8E346 		.word	1189345399
 502 03e4 E9ABD09E 		.word	-1630491671
 503 03e8 5333D8BA 		.word	-1160236205
 504 03ec 980824CB 		.word	-886830952
 505 03f0 3BFC71A3 		.word	-1552810949
 506 03f4 F45568CF 		.word	-815245836
 507 03f8 A9196C5D 		.word	1567365545
 508 03fc 4C0492E5 		.word	-443415476
 509 0400 1DFEB851 		.word	1371078173
 510 0404 FA2AB4E7 		.word	-407622918
 511 0408 D40CB62E 		.word	783682772
 512 040c 2602C9F2 		.word	-221707738
 513 0410 D09E5333 		.word	861118160
 514 0414 D8BA9808 		.word	144227032
 515 0418 24CB3BFC 		.word	-63190236
 516 041c 71A3F455 		.word	1442095985
 517 0420 68CFA919 		.word	430559080
 518 0424 6C5D4C04 		.word	72113516
 519 0428 92E51DFE 		.word	-31595118
 520 042c B851FA2A 		.word	721047992
 521 0430 B4E7D40C 		.word	215279540
 522 0434 B62E2602 		.word	36056758
 523 0438 C9F20E7F 		.word	2131686089
 524 043c DC287D15 		.word	360523996
 525 0440 196C5D4C 		.word	1281190937
 526 0444 0492E51D 		.word	501584388
 527 0448 FEB851FA 		.word	-95307522
 528 044c 2AB4E7D4 		.word	-723012566
 529 0450 0CB62E26 		.word	640595468
ARM GAS  /tmp/ccXEAChk.s 			page 10


 530 0454 02C9F20E 		.word	250792194
 531 0458 7FDC287D 		.word	2099829887
 532 045c 15DA736A 		.word	1785977365
 533 0460 065B1713 		.word	320297734
 534 0464 81647987 		.word	-2022087551
 535 0468 3F6E94BE 		.word	-1097568705
 536 046c 0AED3935 		.word	892988682
 537 0470 427B4ECD 		.word	-850494654
 538 0474 60EB6222 		.word	576908128
 539 0478 902CEFF0 		.word	-252760944
 540 047c C78DD257 		.word	1473416647
 541 0480 A13DA766 		.word	1722236321
 542 0484 B0753111 		.word	288454064
 543 0488 489677F8 		.word	-126380472
 544 048c E346E9AB 		.word	-1410775325
 545 0490 D09E5333 		.word	861118160
 546 0494 D8BA9808 		.word	144227032
 547 0498 24CB3BFC 		.word	-63190236
 548 049c 71A3F455 		.word	1442095985
 549 04a0 8B8940B2 		.word	-1304393333
 550 04a4 BCC31F37 		.word	924828604
 551 04a8 4A5F85F6 		.word	-159031478
 552 04ac 9C9AC1D6 		.word	-691955044
 553 04b0 C5442059 		.word	1495286981
 554 04b4 DEE18F1B 		.word	462414302
 555 04b8 A5AF427B 		.word	2067967909
 556 04bc 4ECD60EB 		.word	-345977522
 557 04c0 6222902C 		.word	747643490
 558 04c4 EFF0C78D 		.word	-1916276497
 559 04c8 D257A13D 		.word	1033983954
 560 04cc A766B075 		.word	1974494887
 561 04d0 F45568CF 		.word	-815245836
 562 04d4 A9196C5D 		.word	1567365545
 563 04d8 4C0492E5 		.word	-443415476
 564 04dc 1DFEB851 		.word	1371078173
 565 04e0 FA2AB4E7 		.word	-407622918
 566 04e4 D40CB62E 		.word	783682772
 567 04e8 2602C9F2 		.word	-221707738
 568 04ec 0E7FDC28 		.word	685539086
 569 04f0 7D15DA73 		.word	1943672189
 570 04f4 6A065B17 		.word	391841386
 571 04f8 13816479 		.word	2036629779
 572 04fc 873F6E94 		.word	-1804714105
 573 0500 3DA766B0 		.word	-1335449795
 574 0504 75311148 		.word	1209086325
 575 0508 9677F8E3 		.word	-470255722
 576 050c 46E9ABD0 		.word	-794039994
 577 0510 9E5333D8 		.word	-667724898
 578 0514 BA980824 		.word	604543162
 579 0518 CB3BFC71 		.word	1912355787
 580 051c A3F45568 		.word	1750463651
 581 0520 CFA9196C 		.word	1813621199
 582 0524 5D4C0492 		.word	-1845212067
 583 0528 E51DFEB8 		.word	-1191305755
 584 052c 51FA2AB4 		.word	-1272251823
 585 0530 66B07531 		.word	829796454
 586 0534 11489677 		.word	2006337553
ARM GAS  /tmp/ccXEAChk.s 			page 11


 587 0538 F8E346E9 		.word	-381230088
 588 053c ABD09E53 		.word	1402917035
 589 0540 33D8BA98 		.word	-1732585421
 590 0544 0824CB3B 		.word	1003168776
 591 0548 FC71A3F4 		.word	-190615044
 592 054c 5568CFA9 		.word	-1446025131
 593 0550 196C5D4C 		.word	1281190937
 594 0554 0492E51D 		.word	501584388
 595 0558 FEB851FA 		.word	-95307522
 596 055c 2AB4E7D4 		.word	-723012566
 597 0560 AF427B4E 		.word	1316700847
 598 0564 CD60EB62 		.word	1659592909
 599 0568 22902CEF 		.word	-282292190
 600 056c F0C78DD2 		.word	-762460176
 601 0570 57A13DA7 		.word	-1489133225
 602 0574 66B07531 		.word	829796454
 603 0578 11489677 		.word	2006337553
 604 057c F8E346E9 		.word	-381230088
 605 0580 ABD09E53 		.word	1402917035
 606 0584 33D8BA98 		.word	-1732585421
 607 0588 0824CB3B 		.word	1003168776
 608 058c FC71A3F4 		.word	-190615044
 609 0590 980824CB 		.word	-886830952
 610 0594 3BFC71A3 		.word	-1552810949
 611 0598 F45568CF 		.word	-815245836
 612 059c A9196C5D 		.word	1567365545
 613 05a0 4C0492E5 		.word	-443415476
 614 05a4 1DFEB851 		.word	1371078173
 615 05a8 FA2AB4E7 		.word	-407622918
 616 05ac D40CB62E 		.word	783682772
 617 05b0 2602C9F2 		.word	-221707738
 618 05b4 0E7FDC28 		.word	685539086
 619 05b8 7D15DA73 		.word	1943672189
 620 05bc 6A065B17 		.word	391841386
 621 05c0 51FA2AB4 		.word	-1272251823
 622 05c4 E7D40CB6 		.word	-1240673049
 623 05c8 2E2602C9 		.word	-922606034
 624 05cc F20E7FDC 		.word	-595652878
 625 05d0 287D15DA 		.word	-636125912
 626 05d4 736A065B 		.word	1527147123
 627 05d8 17138164 		.word	1686180631
 628 05dc 79873F6E 		.word	1849657209
 629 05e0 94BE0AED 		.word	-318062956
 630 05e4 393583AD 		.word	-1383910087
 631 05e8 8B8940B2 		.word	-1304393333
 632 05ec BCC31F37 		.word	924828604
 633 05f0 0AED3935 		.word	892988682
 634 05f4 83AD8B89 		.word	-1987334781
 635 05f8 40B2BCC3 		.word	-1011043776
 636 05fc 1F374A5F 		.word	1598699295
 637 0600 85F69C9A 		.word	-1700989307
 638 0604 C1D6C544 		.word	1153816257
 639 0608 2059DEE1 		.word	-505521888
 640 060c 8F1BA5AF 		.word	-1348134001
 641 0610 427B4ECD 		.word	-850494654
 642 0614 60EB6222 		.word	576908128
 643 0618 902CEFF0 		.word	-252760944
ARM GAS  /tmp/ccXEAChk.s 			page 12


 644 061c C78DD257 		.word	1473416647
 645 0620 C31F374A 		.word	1245126595
 646 0624 5F85F69C 		.word	-1661565601
 647 0628 9AC1D6C5 		.word	-975781478
 648 062c 442059DE 		.word	-564584380
 649 0630 E18F1BA5 		.word	-1524920351
 650 0634 AF427B4E 		.word	1316700847
 651 0638 CD60EB62 		.word	1659592909
 652 063c 22902CEF 		.word	-282292190
 653 0640 F0C78DD2 		.word	-762460176
 654 0644 57A13DA7 		.word	-1489133225
 655 0648 66B07531 		.word	829796454
 656 064c 11489677 		.word	2006337553
 657 0650 BCC31F37 		.word	924828604
 658 0654 4A5F85F6 		.word	-159031478
 659 0658 9C9AC1D6 		.word	-691955044
 660 065c C5442059 		.word	1495286981
 661 0660 DEE18F1B 		.word	462414302
 662 0664 A5AF427B 		.word	2067967909
 663 0668 4ECD60EB 		.word	-345977522
 664 066c 6222902C 		.word	747643490
 665 0670 EFF0C78D 		.word	-1916276497
 666 0674 D257A13D 		.word	1033983954
 667 0678 A766B075 		.word	1974494887
 668 067c 31114896 		.word	-1773661903
 669 0680 75311148 		.word	1209086325
 670 0684 9677F8E3 		.word	-470255722
 671 0688 46E9ABD0 		.word	-794039994
 672 068c 9E5333D8 		.word	-667724898
 673 0690 BA980824 		.word	604543162
 674 0694 CB3BFC71 		.word	1912355787
 675 0698 A3F45568 		.word	1750463651
 676 069c CFA9196C 		.word	1813621199
 677 06a0 5D4C0492 		.word	-1845212067
 678 06a4 E51DFEB8 		.word	-1191305755
 679 06a8 51FA2AB4 		.word	-1272251823
 680 06ac E7D40CB6 		.word	-1240673049
 681 06b0 2E2602C9 		.word	-922606034
 682 06b4 F20E7FDC 		.word	-595652878
 683 06b8 287D15DA 		.word	-636125912
 684 06bc 736A065B 		.word	1527147123
 685 06c0 17138164 		.word	1686180631
 686 06c4 79873F6E 		.word	1849657209
 687 06c8 94BE0AED 		.word	-318062956
 688 06cc 393583AD 		.word	-1383910087
 689 06d0 8B8940B2 		.word	-1304393333
 690 06d4 BCC31F37 		.word	924828604
 691 06d8 4A5F85F6 		.word	-159031478
 692 06dc 9C9AC1D6 		.word	-691955044
 693 06e0 E7D40CB6 		.word	-1240673049
 694 06e4 2E2602C9 		.word	-922606034
 695 06e8 F20E7FDC 		.word	-595652878
 696 06ec 287D15DA 		.word	-636125912
 697 06f0 736A065B 		.word	1527147123
 698 06f4 17138164 		.word	1686180631
 699 06f8 79873F6E 		.word	1849657209
 700 06fc 94BE0AED 		.word	-318062956
ARM GAS  /tmp/ccXEAChk.s 			page 13


 701 0700 393583AD 		.word	-1383910087
 702 0704 8B8940B2 		.word	-1304393333
 703 0708 BCC31F37 		.word	924828604
 704 070c 4A5F85F6 		.word	-159031478
 705 0710 60EB6222 		.word	576908128
 706 0714 902CEFF0 		.word	-252760944
 707 0718 C78DD257 		.word	1473416647
 708 071c A13DA766 		.word	1722236321
 709 0720 B0753111 		.word	288454064
 710 0724 489677F8 		.word	-126380472
 711 0728 E346E9AB 		.word	-1410775325
 712 072c D09E5333 		.word	861118160
 713 0730 D8BA9808 		.word	144227032
 714 0734 24CB3BFC 		.word	-63190236
 715 0738 71A3F455 		.word	1442095985
 716 073c 68CFA919 		.word	430559080
 717 0740 A9196C5D 		.word	1567365545
 718 0744 4C0492E5 		.word	-443415476
 719 0748 1DFEB851 		.word	1371078173
 720 074c FA2AB4E7 		.word	-407622918
 721 0750 D40CB62E 		.word	783682772
 722 0754 2602C9F2 		.word	-221707738
 723 0758 0E7FDC28 		.word	685539086
 724 075c 7D15DA73 		.word	1943672189
 725 0760 6A065B17 		.word	391841386
 726 0764 13816479 		.word	2036629779
 727 0768 873F6E94 		.word	-1804714105
 728 076c BE0AED39 		.word	971836094
 729 0770 F20E7FDC 		.word	-595652878
 730 0774 287D15DA 		.word	-636125912
 731 0778 736A065B 		.word	1527147123
 732 077c 17138164 		.word	1686180631
 733 0780 79873F6E 		.word	1849657209
 734 0784 94BE0AED 		.word	-318062956
 735 0788 393583AD 		.word	-1383910087
 736 078c 8B8940B2 		.word	-1304393333
 737 0790 BCC31F37 		.word	924828604
 738 0794 4A5F85F6 		.word	-159031478
 739 0798 9C9AC1D6 		.word	-691955044
 740 079c C5442059 		.word	1495286981
 741 07a0 3BFC71A3 		.word	-1552810949
 742 07a4 F45568CF 		.word	-815245836
 743 07a8 A9196C5D 		.word	1567365545
 744 07ac 4C0492E5 		.word	-443415476
 745 07b0 1DFEB851 		.word	1371078173
 746 07b4 FA2AB4E7 		.word	-407622918
 747 07b8 D40CB62E 		.word	783682772
 748 07bc 2602C9F2 		.word	-221707738
 749 07c0 0E7FDC28 		.word	685539086
 750 07c4 7D15DA73 		.word	1943672189
 751 07c8 6A065B17 		.word	391841386
 752 07cc 13816479 		.word	2036629779
 753 07d0 442059DE 		.word	-564584380
 754 07d4 E18F1BA5 		.word	-1524920351
 755 07d8 AF427B4E 		.word	1316700847
 756 07dc CD60EB62 		.word	1659592909
 757 07e0 22902CEF 		.word	-282292190
ARM GAS  /tmp/ccXEAChk.s 			page 14


 758 07e4 F0C78DD2 		.word	-762460176
 759 07e8 57A13DA7 		.word	-1489133225
 760 07ec 66B07531 		.word	829796454
 761 07f0 11489677 		.word	2006337553
 762 07f4 F8E346E9 		.word	-381230088
 763 07f8 ABD09E53 		.word	1402917035
 764 07fc 33D8BA98 		.word	-1732585421
 765 0800 8DD257A1 		.word	-1588079987
 766 0804 3DA766B0 		.word	-1335449795
 767 0808 75311148 		.word	1209086325
 768 080c 9677F8E3 		.word	-470255722
 769 0810 46E9ABD0 		.word	-794039994
 770 0814 9E5333D8 		.word	-667724898
 771 0818 BA980824 		.word	604543162
 772 081c CB3BFC71 		.word	1912355787
 773 0820 A3F45568 		.word	1750463651
 774 0824 CFA9196C 		.word	1813621199
 775 0828 5D4C0492 		.word	-1845212067
 776 082c E51DFEB8 		.word	-1191305755
 777 0830 D6C54420 		.word	541378006
 778 0834 59DEE18F 		.word	-1881022887
 779 0838 1BA5AF42 		.word	1118807323
 780 083c 7B4ECD60 		.word	1624067707
 781 0840 EB622290 		.word	-1876794645
 782 0844 2CEFF0C7 		.word	-940511444
 783 0848 8DD257A1 		.word	-1588079987
 784 084c 3DA766B0 		.word	-1335449795
 785 0850 75311148 		.word	1209086325
 786 0854 9677F8E3 		.word	-470255722
 787 0858 46E9ABD0 		.word	-794039994
 788 085c 9E5333D8 		.word	-667724898
 789 0860 1F374A5F 		.word	1598699295
 790 0864 85F69C9A 		.word	-1700989307
 791 0868 C1D6C544 		.word	1153816257
 792 086c 2059DEE1 		.word	-505521888
 793 0870 8F1BA5AF 		.word	-1348134001
 794 0874 427B4ECD 		.word	-850494654
 795 0878 60EB6222 		.word	576908128
 796 087c 902CEFF0 		.word	-252760944
 797 0880 C78DD257 		.word	1473416647
 798 0884 A13DA766 		.word	1722236321
 799 0888 B0753111 		.word	288454064
 800 088c 489677F8 		.word	-126380472
 801              		.comm	rr,5,4
 802              		.global	compile_info
 803              		.align	2
 806              	compile_info:
 807 0890 75626572 		.ascii	"ubertooth 2015-10-R1 (root@weiping) Wed Nov  2 19:4"
 807      746F6F74 
 807      68203230 
 807      31352D31 
 807      302D5231 
 808 08c3 373A3039 		.ascii	"7:09 KST 2016\000"
 808      204B5354 
 808      20323031 
 808      3600
 809 08d1 000000   		.align	2
ARM GAS  /tmp/ccXEAChk.s 			page 15


 812              	eddystone:
 813 08d4 B3       		.byte	-77
 814 08d5 8F       		.byte	-113
 815 08d6 00       		.byte	0
 816 08d7 4B       		.byte	75
 817 08d8 85       		.byte	-123
 818 08d9 E4       		.byte	-28
 819 08da 10       		.byte	16
 820 08db 72       		.byte	114
 821 08dc EE       		.byte	-18
 822 08dd 0C       		.byte	12
 823 08de E8       		.byte	-24
 824 08df D2       		.byte	-46
 825 08e0 A9       		.byte	-87
 826 08e1 BB       		.byte	-69
 827 08e2 60       		.byte	96
 828 08e3 6F       		.byte	111
 829 08e4 0A       		.byte	10
 830 08e5 C2       		.byte	-62
 831 08e6 AA       		.byte	-86
 832 08e7 0B       		.byte	11
 833 08e8 AE       		.byte	-82
 834 08e9 7D       		.byte	125
 835 08ea 47       		.byte	71
 836 08eb CC       		.byte	-52
 837 08ec 0A       		.byte	10
 838 08ed 1A       		.byte	26
 839 08ee 62       		.byte	98
 840 08ef 9E       		.byte	-98
 841 08f0 24       		.byte	36
 842 08f1 D9       		.byte	-39
 843 08f2 D7       		.byte	-41
 844 08f3 F1       		.byte	-15
 845 08f4 B3       		.byte	-77
 846 08f5 2E       		.byte	46
 847 08f6 93       		.byte	-109
 848 08f7 D8       		.byte	-40
 849 08f8 19       		.byte	25
 850              		.comm	clkn,4,4
 851              		.global	hop_mode
 852              		.bss
 855              	hop_mode:
 856 0000 00       		.space	1
 857              		.global	do_hop
 860              	do_hop:
 861 0001 00       		.space	1
 862              		.global	cs_no_squelch
 865              	cs_no_squelch:
 866 0002 00       		.space	1
 867              		.global	cs_threshold_req
 868              		.data
 871              	cs_threshold_req:
 872 0004 88       		.byte	-120
 873              		.global	cs_threshold_cur
 876              	cs_threshold_cur:
 877 0005 88       		.byte	-120
 878              		.comm	cs_trigger,1,1
ARM GAS  /tmp/ccXEAChk.s 			page 16


 879              		.comm	keepalive_trigger,1,1
 880              		.comm	cs_timestamp,4,4
 881              		.global	hop_direct_channel
 882              		.bss
 883 0003 00       		.align	1
 886              	hop_direct_channel:
 887 0004 0000     		.space	2
 888              		.global	clock_trim
 889 0006 0000     		.align	2
 892              	clock_trim:
 893 0008 00000000 		.space	4
 894              		.comm	idle_buf_clkn_high,4,4
 895              		.comm	active_buf_clkn_high,4,4
 896              		.comm	idle_buf_clk100ns,4,4
 897              		.comm	active_buf_clk100ns,4,4
 898              		.global	idle_buf_channel
 899              		.align	1
 902              	idle_buf_channel:
 903 000c 0000     		.space	2
 904              		.global	active_buf_channel
 905              		.align	1
 908              	active_buf_channel:
 909 000e 0000     		.space	2
 910              		.global	slave_mac_address
 911              		.align	2
 914              	slave_mac_address:
 915 0010 00000000 		.space	6
 915      0000
 916              		.comm	rxbuf1,50,4
 917              		.comm	rxbuf2,50,4
 918              		.global	active_rxbuf
 919              		.data
 920 0006 0000     		.align	2
 923              	active_rxbuf:
 924 0008 00000000 		.word	rxbuf1
 925              		.global	idle_rxbuf
 926              		.align	2
 929              	idle_rxbuf:
 930 000c 00000000 		.word	rxbuf2
 931              		.global	le
 932              		.align	2
 935              	le:
 936 0010 D6BE898E 		.word	-1903575338
 937 0014 7D6B     		.short	27517
 938 0016 7191     		.short	-28303
 939 0018 55555500 		.word	5592405
 940 001c AAAAAA00 		.word	11184810
 941 0020 01000000 		.word	1
 942 0024 00       		.byte	0
 943 0025 000000   		.space	3
 944 0028 00000000 		.word	0
 945 002c 00000000 		.space	32
 945      00000000 
 945      00000000 
 945      00000000 
 945      00000000 
 946 004c 00000000 		.word	0
ARM GAS  /tmp/ccXEAChk.s 			page 17


 947 0050 00000000 		.word	0
 948              		.comm	le_promisc,264,4
 949              		.global	le_jam_count
 950              		.bss
 951 0016 0000     		.align	2
 954              	le_jam_count:
 955 0018 00000000 		.space	4
 956              		.global	data_cb
 957              		.align	2
 960              	data_cb:
 961 001c 00000000 		.space	4
 962              		.global	packet_cb
 963              		.align	2
 966              	packet_cb:
 967 0020 00000000 		.space	4
 968              		.global	rssi_iir
 969              		.align	2
 972              	rssi_iir:
 973 0024 00000000 		.space	158
 973      00000000 
 973      00000000 
 973      00000000 
 973      00000000 
 974              		.comm	unpacked,800,4
 975              		.global	mode
 978              	mode:
 979 00c2 00       		.space	1
 980              		.global	requested_mode
 983              	requested_mode:
 984 00c3 00       		.space	1
 985              		.global	jam_mode
 988              	jam_mode:
 989 00c4 00       		.space	1
 990              		.global	ego_mode
 993              	ego_mode:
 994 00c5 00       		.space	1
 995              		.global	modulation
 998              	modulation:
 999 00c6 00       		.space	1
 1000              		.global	channel
 1001              		.data
 1002              		.align	1
 1005              	channel:
 1006 0054 6209     		.short	2402
 1007              		.global	requested_channel
 1008              		.bss
 1009 00c7 00       		.align	1
 1012              	requested_channel:
 1013 00c8 0000     		.space	2
 1014              		.global	saved_request
 1015              		.align	1
 1018              	saved_request:
 1019 00ca 0000     		.space	2
 1020              		.global	low_freq
 1021              		.data
 1022              		.align	1
 1025              	low_freq:
ARM GAS  /tmp/ccXEAChk.s 			page 18


 1026 0056 6009     		.short	2400
 1027              		.global	high_freq
 1028              		.align	1
 1031              	high_freq:
 1032 0058 B309     		.short	2483
 1033              		.global	rssi_threshold
 1036              	rssi_threshold:
 1037 005a E2       		.byte	-30
 1038              		.comm	rx_dma_lli1,16,4
 1039              		.comm	rx_dma_lli2,16,4
 1040              		.comm	le_dma_lli,176,4
 1041              		.comm	rx_tc,4,4
 1042              		.comm	rx_err,4,4
 1043              		.global	status
 1044              		.bss
 1047              	status:
 1048 00cc 00       		.space	1
 1049              		.comm	rssi_max,1,1
 1050              		.comm	rssi_min,1,1
 1051              		.global	rssi_count
 1054              	rssi_count:
 1055 00cd 00       		.space	1
 1056              		.global	rssi_sum
 1057 00ce 0000     		.align	2
 1060              	rssi_sum:
 1061 00d0 00000000 		.space	4
 1062              		.section	.text.rssi_reset,"ax",%progbits
 1063              		.align	2
 1064              		.thumb
 1065              		.thumb_func
 1067              	rssi_reset:
 1068              	.LFB0:
 1069              		.file 1 "bluetooth_rxtx.c"
   1:bluetooth_rxtx.c **** /*
   2:bluetooth_rxtx.c ****  * Copyright 2010-2013 Michael Ossmann
   3:bluetooth_rxtx.c ****  * Copyright 2011-2013 Dominic Spill
   4:bluetooth_rxtx.c ****  *
   5:bluetooth_rxtx.c ****  * This file is part of Project Ubertooth.
   6:bluetooth_rxtx.c ****  *
   7:bluetooth_rxtx.c ****  * This program is free software; you can redistribute it and/or modify
   8:bluetooth_rxtx.c ****  * it under the terms of the GNU General Public License as published by
   9:bluetooth_rxtx.c ****  * the Free Software Foundation; either version 2, or (at your option)
  10:bluetooth_rxtx.c ****  * any later version.
  11:bluetooth_rxtx.c ****  *
  12:bluetooth_rxtx.c ****  * This program is distributed in the hope that it will be useful,
  13:bluetooth_rxtx.c ****  * but WITHOUT ANY WARRANTY; without even the implied warranty of
  14:bluetooth_rxtx.c ****  * MERCHANTABILITY or FITNESS FOR A PARTICULAR PURPOSE.  See the
  15:bluetooth_rxtx.c ****  * GNU General Public License for more details.
  16:bluetooth_rxtx.c ****  *
  17:bluetooth_rxtx.c ****  * You should have received a copy of the GNU General Public License
  18:bluetooth_rxtx.c ****  * along with this program; see the file COPYING.  If not, write to
  19:bluetooth_rxtx.c ****  * the Free Software Foundation, Inc., 51 Franklin Street,
  20:bluetooth_rxtx.c ****  * Boston, MA 02110-1301, USA.
  21:bluetooth_rxtx.c ****  */
  22:bluetooth_rxtx.c **** 
  23:bluetooth_rxtx.c **** #include <string.h>
  24:bluetooth_rxtx.c **** 
ARM GAS  /tmp/ccXEAChk.s 			page 19


  25:bluetooth_rxtx.c **** #include "ubertooth.h"
  26:bluetooth_rxtx.c **** #include "ubertooth_usb.h"
  27:bluetooth_rxtx.c **** #include "ubertooth_interface.h"
  28:bluetooth_rxtx.c **** #include "bluetooth.h"
  29:bluetooth_rxtx.c **** #include "bluetooth_le.h"
  30:bluetooth_rxtx.c **** #include "cc2400_rangetest.h"
  31:bluetooth_rxtx.c **** #include "ego.h"
  32:bluetooth_rxtx.c **** 
  33:bluetooth_rxtx.c **** #define MIN(x,y)	((x)<(y)?(x):(y))
  34:bluetooth_rxtx.c **** #define MAX(x,y)	((x)>(y)?(x):(y))
  35:bluetooth_rxtx.c **** 
  36:bluetooth_rxtx.c **** /* build info */
  37:bluetooth_rxtx.c **** const char compile_info[] =
  38:bluetooth_rxtx.c **** 	"ubertooth " GIT_REVISION " (" COMPILE_BY "@" COMPILE_HOST ") " TIMESTAMP;
  39:bluetooth_rxtx.c **** 
  40:bluetooth_rxtx.c **** /*
  41:bluetooth_rxtx.c ****  * CLK100NS is a free-running clock with a period of 100 ns.  It resets every
  42:bluetooth_rxtx.c ****  * 2^15 * 10^5 cycles (about 5.5 minutes) - computed from clkn and timer0 (T0TC)
  43:bluetooth_rxtx.c ****  *
  44:bluetooth_rxtx.c ****  * clkn is the native (local) clock as defined in the Bluetooth specification.
  45:bluetooth_rxtx.c ****  * It advances 3200 times per second.  Two clkn periods make a Bluetooth time
  46:bluetooth_rxtx.c ****  * slot.
  47:bluetooth_rxtx.c ****  */
  48:bluetooth_rxtx.c **** 
  49:bluetooth_rxtx.c **** 
  50:bluetooth_rxtx.c **** static const char eddystone[] =
  51:bluetooth_rxtx.c **** {0xb3, 0x8f, 0x00, 0x4b, 0x85, 0xe4, 0x10, 0x72, 0xee, 0x0c, 0xe8, 0xd2, 0xa9, 0xbb, 0x60, 0x6f, 0x
  52:bluetooth_rxtx.c **** 
  53:bluetooth_rxtx.c **** 
  54:bluetooth_rxtx.c **** volatile u32 clkn;                       // clkn 3200 Hz counter
  55:bluetooth_rxtx.c **** #define CLK100NS (3125*(clkn & 0xfffff) + T0TC)
  56:bluetooth_rxtx.c **** #define LE_BASECLK (12500)               // 1.25 ms in units of 100ns
  57:bluetooth_rxtx.c **** 
  58:bluetooth_rxtx.c **** #define HOP_NONE      0
  59:bluetooth_rxtx.c **** #define HOP_SWEEP     1
  60:bluetooth_rxtx.c **** #define HOP_BLUETOOTH 2
  61:bluetooth_rxtx.c **** #define HOP_BTLE      3
  62:bluetooth_rxtx.c **** #define HOP_DIRECT    4
  63:bluetooth_rxtx.c **** 
  64:bluetooth_rxtx.c **** #define CS_THRESHOLD_DEFAULT (uint8_t)(-120)
  65:bluetooth_rxtx.c **** #define CS_HOLD_TIME  2                     // min pkts to send on trig (>=1)
  66:bluetooth_rxtx.c **** u8 hop_mode = HOP_NONE;
  67:bluetooth_rxtx.c **** volatile u8 do_hop = 0;                     // set by timer interrupt
  68:bluetooth_rxtx.c **** 
  69:bluetooth_rxtx.c **** u8 cs_no_squelch = 0;                       // rx all packets if set
  70:bluetooth_rxtx.c **** int8_t cs_threshold_req=CS_THRESHOLD_DEFAULT; // requested CS threshold in dBm
  71:bluetooth_rxtx.c **** int8_t cs_threshold_cur=CS_THRESHOLD_DEFAULT; // current CS threshold in dBm
  72:bluetooth_rxtx.c **** volatile u8 cs_trigger;                     // set by intr on P2.2 falling (CS)
  73:bluetooth_rxtx.c **** volatile u8 keepalive_trigger;              // set by timer 1/s
  74:bluetooth_rxtx.c **** volatile u32 cs_timestamp;                  // CLK100NS at time of cs_trigger
  75:bluetooth_rxtx.c **** u16 hop_direct_channel = 0;                 // for hopping directly to a channel
  76:bluetooth_rxtx.c **** int clock_trim = 0;                         // to counteract clock drift
  77:bluetooth_rxtx.c **** volatile u32 idle_buf_clkn_high;
  78:bluetooth_rxtx.c **** volatile u32 active_buf_clkn_high;
  79:bluetooth_rxtx.c **** volatile u32 idle_buf_clk100ns;
  80:bluetooth_rxtx.c **** volatile u32 active_buf_clk100ns;
  81:bluetooth_rxtx.c **** volatile u16 idle_buf_channel = 0;
ARM GAS  /tmp/ccXEAChk.s 			page 20


  82:bluetooth_rxtx.c **** volatile u16 active_buf_channel = 0;
  83:bluetooth_rxtx.c **** u8 slave_mac_address[6] = { 0, };
  84:bluetooth_rxtx.c **** 
  85:bluetooth_rxtx.c **** /* DMA buffers */
  86:bluetooth_rxtx.c **** u8 rxbuf1[DMA_SIZE];
  87:bluetooth_rxtx.c **** u8 rxbuf2[DMA_SIZE];
  88:bluetooth_rxtx.c **** 
  89:bluetooth_rxtx.c **** /*
  90:bluetooth_rxtx.c ****  * The active buffer is the one with an active DMA transfer.
  91:bluetooth_rxtx.c ****  * The idle buffer is the one we can read/write between transfers.
  92:bluetooth_rxtx.c ****  */
  93:bluetooth_rxtx.c **** u8 *active_rxbuf = &rxbuf1[0];
  94:bluetooth_rxtx.c **** u8 *idle_rxbuf = &rxbuf2[0];
  95:bluetooth_rxtx.c **** 
  96:bluetooth_rxtx.c **** le_state_t le = {
  97:bluetooth_rxtx.c **** 	.access_address = 0x8e89bed6,           // advertising channel access address
  98:bluetooth_rxtx.c **** 	.synch = 0x6b7d,                        // bit-reversed adv channel AA
  99:bluetooth_rxtx.c **** 	.syncl = 0x9171,
 100:bluetooth_rxtx.c **** 	.crc_init  = 0x555555,                  // advertising channel CRCInit
 101:bluetooth_rxtx.c **** 	.crc_init_reversed = 0xAAAAAA,
 102:bluetooth_rxtx.c **** 	.crc_verify = 1,
 103:bluetooth_rxtx.c **** 
 104:bluetooth_rxtx.c **** 	.link_state = LINK_INACTIVE,
 105:bluetooth_rxtx.c **** 	.conn_epoch = 0,
 106:bluetooth_rxtx.c **** 	.target_set = 0,
 107:bluetooth_rxtx.c **** 	.last_packet = 0,
 108:bluetooth_rxtx.c **** };
 109:bluetooth_rxtx.c **** 
 110:bluetooth_rxtx.c **** typedef struct _le_promisc_active_aa_t {
 111:bluetooth_rxtx.c **** 	u32 aa;
 112:bluetooth_rxtx.c **** 	int count;
 113:bluetooth_rxtx.c **** } le_promisc_active_aa_t;
 114:bluetooth_rxtx.c **** 
 115:bluetooth_rxtx.c **** typedef struct _le_promisc_state_t {
 116:bluetooth_rxtx.c **** 	// LFU cache of recently seen AA's
 117:bluetooth_rxtx.c **** 	le_promisc_active_aa_t active_aa[32];
 118:bluetooth_rxtx.c **** 
 119:bluetooth_rxtx.c **** 	// recovering hop interval
 120:bluetooth_rxtx.c **** 	u32 smallest_hop_interval;
 121:bluetooth_rxtx.c **** 	int consec_intervals;
 122:bluetooth_rxtx.c **** } le_promisc_state_t;
 123:bluetooth_rxtx.c **** le_promisc_state_t le_promisc;
 124:bluetooth_rxtx.c **** #define AA_LIST_SIZE (int)(sizeof(le_promisc.active_aa) / sizeof(le_promisc_active_aa_t))
 125:bluetooth_rxtx.c **** 
 126:bluetooth_rxtx.c **** /* LE jamming */
 127:bluetooth_rxtx.c **** #define JAM_COUNT_DEFAULT 40
 128:bluetooth_rxtx.c **** int le_jam_count = 0;
 129:bluetooth_rxtx.c **** 
 130:bluetooth_rxtx.c **** /* set LE access address */
 131:bluetooth_rxtx.c **** static void le_set_access_address(u32 aa);
 132:bluetooth_rxtx.c **** 
 133:bluetooth_rxtx.c **** typedef int (*data_cb_t)(char *);
 134:bluetooth_rxtx.c **** data_cb_t data_cb = NULL;
 135:bluetooth_rxtx.c **** 
 136:bluetooth_rxtx.c **** typedef void (*packet_cb_t)(u8 *);
 137:bluetooth_rxtx.c **** packet_cb_t packet_cb = NULL;
 138:bluetooth_rxtx.c **** 
ARM GAS  /tmp/ccXEAChk.s 			page 21


 139:bluetooth_rxtx.c **** /* Moving average (IIR) of average RSSI of packets as scaled integers (x256). */
 140:bluetooth_rxtx.c **** int16_t rssi_iir[79] = {0};
 141:bluetooth_rxtx.c **** #define RSSI_IIR_ALPHA 3       // 3/256 = .012
 142:bluetooth_rxtx.c **** 
 143:bluetooth_rxtx.c **** /*
 144:bluetooth_rxtx.c ****  * CLK_TUNE_TIME is the duration in units of 100 ns that we reserve for tuning
 145:bluetooth_rxtx.c ****  * the radio while frequency hopping.  We start the tuning process
 146:bluetooth_rxtx.c ****  * CLK_TUNE_TIME * 100 ns prior to the start of an upcoming time slot.
 147:bluetooth_rxtx.c **** */
 148:bluetooth_rxtx.c **** #define CLK_TUNE_TIME   2250
 149:bluetooth_rxtx.c **** 
 150:bluetooth_rxtx.c **** /* Unpacked symbol buffers (two rxbufs) */
 151:bluetooth_rxtx.c **** char unpacked[DMA_SIZE*8*2];
 152:bluetooth_rxtx.c **** 
 153:bluetooth_rxtx.c **** volatile u8 mode = MODE_IDLE;
 154:bluetooth_rxtx.c **** volatile u8 requested_mode = MODE_IDLE;
 155:bluetooth_rxtx.c **** volatile u8 jam_mode = JAM_NONE;
 156:bluetooth_rxtx.c **** volatile u8 ego_mode = 0;
 157:bluetooth_rxtx.c **** volatile u8 modulation = MOD_BT_BASIC_RATE;
 158:bluetooth_rxtx.c **** volatile u16 channel = 2402;
 159:bluetooth_rxtx.c **** volatile u16 requested_channel = 0;
 160:bluetooth_rxtx.c **** volatile u16 saved_request = 0;
 161:bluetooth_rxtx.c **** volatile u16 low_freq = 2400;
 162:bluetooth_rxtx.c **** volatile u16 high_freq = 2483;
 163:bluetooth_rxtx.c **** volatile int8_t rssi_threshold = -30;  // -54dBm - 30 = -84dBm
 164:bluetooth_rxtx.c **** 
 165:bluetooth_rxtx.c **** /* DMA linked list items */
 166:bluetooth_rxtx.c **** typedef struct {
 167:bluetooth_rxtx.c **** 	u32 src;
 168:bluetooth_rxtx.c **** 	u32 dest;
 169:bluetooth_rxtx.c **** 	u32 next_lli;
 170:bluetooth_rxtx.c **** 	u32 control;
 171:bluetooth_rxtx.c **** } dma_lli;
 172:bluetooth_rxtx.c **** 
 173:bluetooth_rxtx.c **** dma_lli rx_dma_lli1;
 174:bluetooth_rxtx.c **** dma_lli rx_dma_lli2;
 175:bluetooth_rxtx.c **** 
 176:bluetooth_rxtx.c **** dma_lli le_dma_lli[11]; // 11 x 4 bytes
 177:bluetooth_rxtx.c **** 
 178:bluetooth_rxtx.c **** /* rx terminal count and error interrupt counters */
 179:bluetooth_rxtx.c **** volatile u32 rx_tc;
 180:bluetooth_rxtx.c **** volatile u32 rx_err;
 181:bluetooth_rxtx.c **** 
 182:bluetooth_rxtx.c **** /* status information byte */
 183:bluetooth_rxtx.c **** volatile u8 status = 0;
 184:bluetooth_rxtx.c **** 
 185:bluetooth_rxtx.c **** #define DMA_OVERFLOW  0x01
 186:bluetooth_rxtx.c **** #define DMA_ERROR     0x02
 187:bluetooth_rxtx.c **** #define FIFO_OVERFLOW 0x04
 188:bluetooth_rxtx.c **** #define CS_TRIGGER    0x08
 189:bluetooth_rxtx.c **** #define RSSI_TRIGGER  0x10
 190:bluetooth_rxtx.c **** 
 191:bluetooth_rxtx.c **** /*
 192:bluetooth_rxtx.c ****  * RSSI
 193:bluetooth_rxtx.c ****  */
 194:bluetooth_rxtx.c **** int8_t rssi_max;
 195:bluetooth_rxtx.c **** int8_t rssi_min;
ARM GAS  /tmp/ccXEAChk.s 			page 22


 196:bluetooth_rxtx.c **** uint8_t rssi_count = 0;
 197:bluetooth_rxtx.c **** int32_t rssi_sum = 0;
 198:bluetooth_rxtx.c **** 
 199:bluetooth_rxtx.c **** static void rssi_reset(void)
 200:bluetooth_rxtx.c **** {
 1070              		.loc 1 200 0
 1071              		.cfi_startproc
 1072              		@ args = 0, pretend = 0, frame = 0
 1073              		@ frame_needed = 1, uses_anonymous_args = 0
 1074              		@ link register save eliminated.
 1075 0000 80B4     		push	{r7}
 1076              		.cfi_def_cfa_offset 4
 1077              		.cfi_offset 7, -4
 1078 0002 00AF     		add	r7, sp, #0
 1079              		.cfi_def_cfa_register 7
 201:bluetooth_rxtx.c **** 	rssi_count = 0;
 1080              		.loc 1 201 0
 1081 0004 074B     		ldr	r3, .L2
 1082 0006 0022     		movs	r2, #0
 1083 0008 1A70     		strb	r2, [r3]
 202:bluetooth_rxtx.c **** 	rssi_sum = 0;
 1084              		.loc 1 202 0
 1085 000a 074B     		ldr	r3, .L2+4
 1086 000c 0022     		movs	r2, #0
 1087 000e 1A60     		str	r2, [r3]
 203:bluetooth_rxtx.c **** 	rssi_max = INT8_MIN;
 1088              		.loc 1 203 0
 1089 0010 064B     		ldr	r3, .L2+8
 1090 0012 8022     		movs	r2, #128
 1091 0014 1A70     		strb	r2, [r3]
 204:bluetooth_rxtx.c **** 	rssi_min = INT8_MAX;
 1092              		.loc 1 204 0
 1093 0016 064B     		ldr	r3, .L2+12
 1094 0018 7F22     		movs	r2, #127
 1095 001a 1A70     		strb	r2, [r3]
 205:bluetooth_rxtx.c **** }
 1096              		.loc 1 205 0
 1097 001c BD46     		mov	sp, r7
 1098              		.cfi_def_cfa_register 13
 1099              		@ sp needed
 1100 001e 5DF8047B 		ldr	r7, [sp], #4
 1101              		.cfi_restore 7
 1102              		.cfi_def_cfa_offset 0
 1103 0022 7047     		bx	lr
 1104              	.L3:
 1105              		.align	2
 1106              	.L2:
 1107 0024 00000000 		.word	rssi_count
 1108 0028 00000000 		.word	rssi_sum
 1109 002c 00000000 		.word	rssi_max
 1110 0030 00000000 		.word	rssi_min
 1111              		.cfi_endproc
 1112              	.LFE0:
 1114              		.section	.text.rssi_add,"ax",%progbits
 1115              		.align	2
 1116              		.thumb
 1117              		.thumb_func
ARM GAS  /tmp/ccXEAChk.s 			page 23


 1119              	rssi_add:
 1120              	.LFB1:
 206:bluetooth_rxtx.c **** 
 207:bluetooth_rxtx.c **** static void rssi_add(int8_t v)
 208:bluetooth_rxtx.c **** {
 1121              		.loc 1 208 0
 1122              		.cfi_startproc
 1123              		@ args = 0, pretend = 0, frame = 8
 1124              		@ frame_needed = 1, uses_anonymous_args = 0
 1125              		@ link register save eliminated.
 1126 0000 80B4     		push	{r7}
 1127              		.cfi_def_cfa_offset 4
 1128              		.cfi_offset 7, -4
 1129 0002 83B0     		sub	sp, sp, #12
 1130              		.cfi_def_cfa_offset 16
 1131 0004 00AF     		add	r7, sp, #0
 1132              		.cfi_def_cfa_register 7
 1133 0006 0346     		mov	r3, r0
 1134 0008 FB71     		strb	r3, [r7, #7]
 209:bluetooth_rxtx.c **** 	rssi_max = (v > rssi_max) ? v : rssi_max;
 1135              		.loc 1 209 0
 1136 000a 144B     		ldr	r3, .L5
 1137 000c 1B78     		ldrb	r3, [r3]	@ zero_extendqisi2
 1138 000e 5AB2     		sxtb	r2, r3
 1139 0010 97F90730 		ldrsb	r3, [r7, #7]
 1140 0014 9342     		cmp	r3, r2
 1141 0016 B8BF     		it	lt
 1142 0018 1346     		movlt	r3, r2
 1143 001a DAB2     		uxtb	r2, r3
 1144 001c 0F4B     		ldr	r3, .L5
 1145 001e 1A70     		strb	r2, [r3]
 210:bluetooth_rxtx.c **** 	rssi_min = (v < rssi_min) ? v : rssi_min;
 1146              		.loc 1 210 0
 1147 0020 0F4B     		ldr	r3, .L5+4
 1148 0022 1B78     		ldrb	r3, [r3]	@ zero_extendqisi2
 1149 0024 5AB2     		sxtb	r2, r3
 1150 0026 97F90730 		ldrsb	r3, [r7, #7]
 1151 002a 9342     		cmp	r3, r2
 1152 002c A8BF     		it	ge
 1153 002e 1346     		movge	r3, r2
 1154 0030 DAB2     		uxtb	r2, r3
 1155 0032 0B4B     		ldr	r3, .L5+4
 1156 0034 1A70     		strb	r2, [r3]
 211:bluetooth_rxtx.c **** 	rssi_sum += ((int32_t)v * 256);  // scaled int math (x256)
 1157              		.loc 1 211 0
 1158 0036 97F90730 		ldrsb	r3, [r7, #7]
 1159 003a 1A02     		lsls	r2, r3, #8
 1160 003c 094B     		ldr	r3, .L5+8
 1161 003e 1B68     		ldr	r3, [r3]
 1162 0040 1344     		add	r3, r3, r2
 1163 0042 084A     		ldr	r2, .L5+8
 1164 0044 1360     		str	r3, [r2]
 212:bluetooth_rxtx.c **** 	rssi_count += 1;
 1165              		.loc 1 212 0
 1166 0046 084B     		ldr	r3, .L5+12
 1167 0048 1B78     		ldrb	r3, [r3]	@ zero_extendqisi2
 1168 004a 0133     		adds	r3, r3, #1
ARM GAS  /tmp/ccXEAChk.s 			page 24


 1169 004c DAB2     		uxtb	r2, r3
 1170 004e 064B     		ldr	r3, .L5+12
 1171 0050 1A70     		strb	r2, [r3]
 213:bluetooth_rxtx.c **** }
 1172              		.loc 1 213 0
 1173 0052 0C37     		adds	r7, r7, #12
 1174              		.cfi_def_cfa_offset 4
 1175 0054 BD46     		mov	sp, r7
 1176              		.cfi_def_cfa_register 13
 1177              		@ sp needed
 1178 0056 5DF8047B 		ldr	r7, [sp], #4
 1179              		.cfi_restore 7
 1180              		.cfi_def_cfa_offset 0
 1181 005a 7047     		bx	lr
 1182              	.L6:
 1183              		.align	2
 1184              	.L5:
 1185 005c 00000000 		.word	rssi_max
 1186 0060 00000000 		.word	rssi_min
 1187 0064 00000000 		.word	rssi_sum
 1188 0068 00000000 		.word	rssi_count
 1189              		.cfi_endproc
 1190              	.LFE1:
 1192              		.section	.text.rssi_iir_update,"ax",%progbits
 1193              		.align	2
 1194              		.thumb
 1195              		.thumb_func
 1197              	rssi_iir_update:
 1198              	.LFB2:
 214:bluetooth_rxtx.c **** 
 215:bluetooth_rxtx.c **** /* For sweep mode, update IIR per channel. Otherwise, use single value. */
 216:bluetooth_rxtx.c **** static void rssi_iir_update(void)
 217:bluetooth_rxtx.c **** {
 1199              		.loc 1 217 0
 1200              		.cfi_startproc
 1201              		@ args = 0, pretend = 0, frame = 16
 1202              		@ frame_needed = 1, uses_anonymous_args = 0
 1203              		@ link register save eliminated.
 1204 0000 80B4     		push	{r7}
 1205              		.cfi_def_cfa_offset 4
 1206              		.cfi_offset 7, -4
 1207 0002 85B0     		sub	sp, sp, #20
 1208              		.cfi_def_cfa_offset 24
 1209 0004 00AF     		add	r7, sp, #0
 1210              		.cfi_def_cfa_register 7
 218:bluetooth_rxtx.c **** 	int i;
 219:bluetooth_rxtx.c **** 	int32_t avg;
 220:bluetooth_rxtx.c **** 	int32_t rssi_iir_acc;
 221:bluetooth_rxtx.c **** 
 222:bluetooth_rxtx.c **** 	/* Use array to track 79 Bluetooth channels, or just first
 223:bluetooth_rxtx.c **** 	 * slot of array if not sweeping. */
 224:bluetooth_rxtx.c **** 	if (hop_mode > 0)
 1211              		.loc 1 224 0
 1212 0006 1F4B     		ldr	r3, .L13
 1213 0008 1B78     		ldrb	r3, [r3]	@ zero_extendqisi2
 1214 000a 002B     		cmp	r3, #0
 1215 000c 06D0     		beq	.L8
ARM GAS  /tmp/ccXEAChk.s 			page 25


 225:bluetooth_rxtx.c **** 		i = channel - 2402;
 1216              		.loc 1 225 0
 1217 000e 1E4B     		ldr	r3, .L13+4
 1218 0010 1B88     		ldrh	r3, [r3]	@ movhi
 1219 0012 9BB2     		uxth	r3, r3
 1220 0014 A3F66213 		subw	r3, r3, #2402
 1221 0018 FB60     		str	r3, [r7, #12]
 1222 001a 01E0     		b	.L9
 1223              	.L8:
 226:bluetooth_rxtx.c **** 	else
 227:bluetooth_rxtx.c **** 		i = 0;
 1224              		.loc 1 227 0
 1225 001c 0023     		movs	r3, #0
 1226 001e FB60     		str	r3, [r7, #12]
 1227              	.L9:
 228:bluetooth_rxtx.c **** 
 229:bluetooth_rxtx.c **** 	// IIR using scaled int math (x256)
 230:bluetooth_rxtx.c **** 	if (rssi_count != 0)
 1228              		.loc 1 230 0
 1229 0020 1A4B     		ldr	r3, .L13+8
 1230 0022 1B78     		ldrb	r3, [r3]	@ zero_extendqisi2
 1231 0024 002B     		cmp	r3, #0
 1232 0026 08D0     		beq	.L10
 231:bluetooth_rxtx.c **** 		avg = (rssi_sum  + 128) / rssi_count;
 1233              		.loc 1 231 0
 1234 0028 194B     		ldr	r3, .L13+12
 1235 002a 1B68     		ldr	r3, [r3]
 1236 002c 8033     		adds	r3, r3, #128
 1237 002e 174A     		ldr	r2, .L13+8
 1238 0030 1278     		ldrb	r2, [r2]	@ zero_extendqisi2
 1239 0032 93FBF2F3 		sdiv	r3, r3, r2
 1240 0036 BB60     		str	r3, [r7, #8]
 1241 0038 01E0     		b	.L11
 1242              	.L10:
 232:bluetooth_rxtx.c **** 	else
 233:bluetooth_rxtx.c **** 		avg = 0; // really an error
 1243              		.loc 1 233 0
 1244 003a 0023     		movs	r3, #0
 1245 003c BB60     		str	r3, [r7, #8]
 1246              	.L11:
 234:bluetooth_rxtx.c **** 	rssi_iir_acc = rssi_iir[i] * (256-RSSI_IIR_ALPHA);
 1247              		.loc 1 234 0
 1248 003e 154A     		ldr	r2, .L13+16
 1249 0040 FB68     		ldr	r3, [r7, #12]
 1250 0042 32F81330 		ldrh	r3, [r2, r3, lsl #1]
 1251 0046 1AB2     		sxth	r2, r3
 1252 0048 1346     		mov	r3, r2
 1253 004a 9B01     		lsls	r3, r3, #6
 1254 004c 9B1A     		subs	r3, r3, r2
 1255 004e 9B00     		lsls	r3, r3, #2
 1256 0050 1344     		add	r3, r3, r2
 1257 0052 7B60     		str	r3, [r7, #4]
 235:bluetooth_rxtx.c **** 	rssi_iir_acc += avg * RSSI_IIR_ALPHA;
 1258              		.loc 1 235 0
 1259 0054 BA68     		ldr	r2, [r7, #8]
 1260 0056 1346     		mov	r3, r2
 1261 0058 5B00     		lsls	r3, r3, #1
ARM GAS  /tmp/ccXEAChk.s 			page 26


 1262 005a 1344     		add	r3, r3, r2
 1263 005c 7A68     		ldr	r2, [r7, #4]
 1264 005e 1344     		add	r3, r3, r2
 1265 0060 7B60     		str	r3, [r7, #4]
 236:bluetooth_rxtx.c **** 	rssi_iir[i] = (int16_t)((rssi_iir_acc + 128) / 256);
 1266              		.loc 1 236 0
 1267 0062 7B68     		ldr	r3, [r7, #4]
 1268 0064 8033     		adds	r3, r3, #128
 1269 0066 002B     		cmp	r3, #0
 1270 0068 00DA     		bge	.L12
 1271 006a FF33     		adds	r3, r3, #255
 1272              	.L12:
 1273 006c 1B12     		asrs	r3, r3, #8
 1274 006e 99B2     		uxth	r1, r3
 1275 0070 084A     		ldr	r2, .L13+16
 1276 0072 FB68     		ldr	r3, [r7, #12]
 1277 0074 22F81310 		strh	r1, [r2, r3, lsl #1]	@ movhi
 237:bluetooth_rxtx.c **** }
 1278              		.loc 1 237 0
 1279 0078 1437     		adds	r7, r7, #20
 1280              		.cfi_def_cfa_offset 4
 1281 007a BD46     		mov	sp, r7
 1282              		.cfi_def_cfa_register 13
 1283              		@ sp needed
 1284 007c 5DF8047B 		ldr	r7, [sp], #4
 1285              		.cfi_restore 7
 1286              		.cfi_def_cfa_offset 0
 1287 0080 7047     		bx	lr
 1288              	.L14:
 1289 0082 00BF     		.align	2
 1290              	.L13:
 1291 0084 00000000 		.word	hop_mode
 1292 0088 00000000 		.word	channel
 1293 008c 00000000 		.word	rssi_count
 1294 0090 00000000 		.word	rssi_sum
 1295 0094 00000000 		.word	rssi_iir
 1296              		.cfi_endproc
 1297              	.LFE2:
 1299              		.section	.text.cs_threshold_set,"ax",%progbits
 1300              		.align	2
 1301              		.thumb
 1302              		.thumb_func
 1304              	cs_threshold_set:
 1305              	.LFB3:
 238:bluetooth_rxtx.c **** 
 239:bluetooth_rxtx.c **** #define CS_SAMPLES_1 1
 240:bluetooth_rxtx.c **** #define CS_SAMPLES_2 2
 241:bluetooth_rxtx.c **** #define CS_SAMPLES_4 3
 242:bluetooth_rxtx.c **** #define CS_SAMPLES_8 4
 243:bluetooth_rxtx.c **** /* Set CC2400 carrier sense threshold and store value to
 244:bluetooth_rxtx.c ****  * global. CC2400 RSSI is determined by 54dBm + level. CS threshold is
 245:bluetooth_rxtx.c ****  * in 4dBm steps, so the provided level is rounded to the nearest
 246:bluetooth_rxtx.c ****  * multiple of 4 by adding 56. Useful range is -100 to -20. */
 247:bluetooth_rxtx.c **** static void cs_threshold_set(int8_t level, u8 samples)
 248:bluetooth_rxtx.c **** {
 1306              		.loc 1 248 0
 1307              		.cfi_startproc
ARM GAS  /tmp/ccXEAChk.s 			page 27


 1308              		@ args = 0, pretend = 0, frame = 8
 1309              		@ frame_needed = 1, uses_anonymous_args = 0
 1310 0000 80B5     		push	{r7, lr}
 1311              		.cfi_def_cfa_offset 8
 1312              		.cfi_offset 7, -8
 1313              		.cfi_offset 14, -4
 1314 0002 82B0     		sub	sp, sp, #8
 1315              		.cfi_def_cfa_offset 16
 1316 0004 00AF     		add	r7, sp, #0
 1317              		.cfi_def_cfa_register 7
 1318 0006 0346     		mov	r3, r0
 1319 0008 0A46     		mov	r2, r1
 1320 000a FB71     		strb	r3, [r7, #7]
 1321 000c 1346     		mov	r3, r2
 1322 000e BB71     		strb	r3, [r7, #6]
 249:bluetooth_rxtx.c **** 	level = MIN(MAX(level,-120),(-20));
 1323              		.loc 1 249 0
 1324 0010 97F90730 		ldrsb	r3, [r7, #7]
 1325 0014 13F1140F 		cmn	r3, #20
 1326 0018 0DD0     		beq	.L16
 1327              		.loc 1 249 0 is_stmt 0 discriminator 1
 1328 001a 97F90730 		ldrsb	r3, [r7, #7]
 1329 001e 13F1130F 		cmn	r3, #19
 1330 0022 08DA     		bge	.L16
 1331              		.loc 1 249 0 discriminator 3
 1332 0024 97F90730 		ldrsb	r3, [r7, #7]
 1333 0028 6FF07702 		mvn	r2, #119
 1334 002c 9342     		cmp	r3, r2
 1335 002e B8BF     		it	lt
 1336 0030 1346     		movlt	r3, r2
 1337 0032 DBB2     		uxtb	r3, r3
 1338 0034 00E0     		b	.L17
 1339              	.L16:
 1340              		.loc 1 249 0 discriminator 4
 1341 0036 EC23     		movs	r3, #236
 1342              	.L17:
 1343              		.loc 1 249 0 discriminator 6
 1344 0038 FB71     		strb	r3, [r7, #7]
 250:bluetooth_rxtx.c **** 	cc2400_set(RSSI, (uint8_t)((level + 56) & (0x3f << 2)) | (samples&3));
 1345              		.loc 1 250 0 is_stmt 1 discriminator 6
 1346 003a FB79     		ldrb	r3, [r7, #7]	@ zero_extendqisi2
 1347 003c 3833     		adds	r3, r3, #56
 1348 003e DBB2     		uxtb	r3, r3
 1349 0040 9BB2     		uxth	r3, r3
 1350 0042 03F0FC03 		and	r3, r3, #252
 1351 0046 9AB2     		uxth	r2, r3
 1352 0048 BB79     		ldrb	r3, [r7, #6]	@ zero_extendqisi2
 1353 004a 9BB2     		uxth	r3, r3
 1354 004c 03F00303 		and	r3, r3, #3
 1355 0050 9BB2     		uxth	r3, r3
 1356 0052 1343     		orrs	r3, r3, r2
 1357 0054 9BB2     		uxth	r3, r3
 1358 0056 9BB2     		uxth	r3, r3
 1359 0058 0620     		movs	r0, #6
 1360 005a 1946     		mov	r1, r3
 1361 005c FFF7FEFF 		bl	cc2400_set
 251:bluetooth_rxtx.c **** 	cs_threshold_cur = level;
ARM GAS  /tmp/ccXEAChk.s 			page 28


 1362              		.loc 1 251 0 discriminator 6
 1363 0060 084A     		ldr	r2, .L18
 1364 0062 FB79     		ldrb	r3, [r7, #7]
 1365 0064 1370     		strb	r3, [r2]
 252:bluetooth_rxtx.c **** 	cs_no_squelch = (level <= -120);
 1366              		.loc 1 252 0 discriminator 6
 1367 0066 97F90730 		ldrsb	r3, [r7, #7]
 1368 006a 13F1770F 		cmn	r3, #119
 1369 006e B4BF     		ite	lt
 1370 0070 0123     		movlt	r3, #1
 1371 0072 0023     		movge	r3, #0
 1372 0074 DBB2     		uxtb	r3, r3
 1373 0076 1A46     		mov	r2, r3
 1374 0078 034B     		ldr	r3, .L18+4
 1375 007a 1A70     		strb	r2, [r3]
 253:bluetooth_rxtx.c **** }
 1376              		.loc 1 253 0 discriminator 6
 1377 007c 0837     		adds	r7, r7, #8
 1378              		.cfi_def_cfa_offset 8
 1379 007e BD46     		mov	sp, r7
 1380              		.cfi_def_cfa_register 13
 1381              		@ sp needed
 1382 0080 80BD     		pop	{r7, pc}
 1383              	.L19:
 1384 0082 00BF     		.align	2
 1385              	.L18:
 1386 0084 00000000 		.word	cs_threshold_cur
 1387 0088 00000000 		.word	cs_no_squelch
 1388              		.cfi_endproc
 1389              	.LFE3:
 1391              		.section	.text.enqueue,"ax",%progbits
 1392              		.align	2
 1393              		.thumb
 1394              		.thumb_func
 1396              	enqueue:
 1397              	.LFB4:
 254:bluetooth_rxtx.c **** 
 255:bluetooth_rxtx.c **** static int enqueue(u8 type, u8 *buf)
 256:bluetooth_rxtx.c **** {
 1398              		.loc 1 256 0
 1399              		.cfi_startproc
 1400              		@ args = 0, pretend = 0, frame = 32
 1401              		@ frame_needed = 1, uses_anonymous_args = 0
 1402 0000 80B5     		push	{r7, lr}
 1403              		.cfi_def_cfa_offset 8
 1404              		.cfi_offset 7, -8
 1405              		.cfi_offset 14, -4
 1406 0002 88B0     		sub	sp, sp, #32
 1407              		.cfi_def_cfa_offset 40
 1408 0004 00AF     		add	r7, sp, #0
 1409              		.cfi_def_cfa_register 7
 1410 0006 0346     		mov	r3, r0
 1411 0008 3960     		str	r1, [r7]
 1412 000a FB71     		strb	r3, [r7, #7]
 257:bluetooth_rxtx.c **** 	usb_pkt_rx *f = usb_enqueue();
 1413              		.loc 1 257 0
 1414 000c FFF7FEFF 		bl	usb_enqueue
ARM GAS  /tmp/ccXEAChk.s 			page 29


 1415 0010 F861     		str	r0, [r7, #28]
 258:bluetooth_rxtx.c **** 
 259:bluetooth_rxtx.c **** 	/* fail if queue is full */
 260:bluetooth_rxtx.c **** 	if (f == NULL) {
 1416              		.loc 1 260 0
 1417 0012 FB69     		ldr	r3, [r7, #28]
 1418 0014 002B     		cmp	r3, #0
 1419 0016 09D1     		bne	.L21
 261:bluetooth_rxtx.c **** 		status |= FIFO_OVERFLOW;
 1420              		.loc 1 261 0
 1421 0018 594B     		ldr	r3, .L27
 1422 001a 1B78     		ldrb	r3, [r3]
 1423 001c DBB2     		uxtb	r3, r3
 1424 001e 43F00403 		orr	r3, r3, #4
 1425 0022 DAB2     		uxtb	r2, r3
 1426 0024 564B     		ldr	r3, .L27
 1427 0026 1A70     		strb	r2, [r3]
 262:bluetooth_rxtx.c **** 		return 0;
 1428              		.loc 1 262 0
 1429 0028 0023     		movs	r3, #0
 1430 002a A5E0     		b	.L22
 1431              	.L21:
 263:bluetooth_rxtx.c **** 	}
 264:bluetooth_rxtx.c **** 
 265:bluetooth_rxtx.c **** 	f->pkt_type = type;
 1432              		.loc 1 265 0
 1433 002c FB69     		ldr	r3, [r7, #28]
 1434 002e FA79     		ldrb	r2, [r7, #7]
 1435 0030 1A70     		strb	r2, [r3]
 266:bluetooth_rxtx.c **** 	if(type == SPECAN) {
 1436              		.loc 1 266 0
 1437 0032 FB79     		ldrb	r3, [r7, #7]	@ zero_extendqisi2
 1438 0034 042B     		cmp	r3, #4
 1439 0036 13D1     		bne	.L23
 267:bluetooth_rxtx.c **** 		f->clkn_high = (clkn >> 20) & 0xff;
 1440              		.loc 1 267 0
 1441 0038 524B     		ldr	r3, .L27+4
 1442 003a 1B68     		ldr	r3, [r3]
 1443 003c 1B0D     		lsrs	r3, r3, #20
 1444 003e DAB2     		uxtb	r2, r3
 1445 0040 FB69     		ldr	r3, [r7, #28]
 1446 0042 DA70     		strb	r2, [r3, #3]
 268:bluetooth_rxtx.c **** 		f->clk100ns = CLK100NS;
 1447              		.loc 1 268 0
 1448 0044 4F4B     		ldr	r3, .L27+4
 1449 0046 1B68     		ldr	r3, [r3]
 1450 0048 C3F31303 		ubfx	r3, r3, #0, #20
 1451 004c 40F63542 		movw	r2, #3125
 1452 0050 02FB03F2 		mul	r2, r2, r3
 1453 0054 4C4B     		ldr	r3, .L27+8
 1454 0056 1B68     		ldr	r3, [r3]
 1455 0058 1A44     		add	r2, r2, r3
 1456 005a FB69     		ldr	r3, [r7, #28]
 1457 005c 5A60     		str	r2, [r3, #4]
 1458 005e 08E0     		b	.L24
 1459              	.L23:
 269:bluetooth_rxtx.c **** 	} else {
ARM GAS  /tmp/ccXEAChk.s 			page 30


 270:bluetooth_rxtx.c **** 		f->clkn_high = idle_buf_clkn_high;
 1460              		.loc 1 270 0
 1461 0060 4A4B     		ldr	r3, .L27+12
 1462 0062 1B68     		ldr	r3, [r3]
 1463 0064 DAB2     		uxtb	r2, r3
 1464 0066 FB69     		ldr	r3, [r7, #28]
 1465 0068 DA70     		strb	r2, [r3, #3]
 271:bluetooth_rxtx.c **** 		f->clk100ns = idle_buf_clk100ns;
 1466              		.loc 1 271 0
 1467 006a 494B     		ldr	r3, .L27+16
 1468 006c 1A68     		ldr	r2, [r3]
 1469 006e FB69     		ldr	r3, [r7, #28]
 1470 0070 5A60     		str	r2, [r3, #4]
 1471              	.L24:
 272:bluetooth_rxtx.c **** 	}
 273:bluetooth_rxtx.c **** 	f->channel = idle_buf_channel - 2402;
 1472              		.loc 1 273 0
 1473 0072 484B     		ldr	r3, .L27+20
 1474 0074 1B88     		ldrh	r3, [r3]	@ movhi
 1475 0076 9BB2     		uxth	r3, r3
 1476 0078 DBB2     		uxtb	r3, r3
 1477 007a 623B     		subs	r3, r3, #98
 1478 007c DAB2     		uxtb	r2, r3
 1479 007e FB69     		ldr	r3, [r7, #28]
 1480 0080 9A70     		strb	r2, [r3, #2]
 274:bluetooth_rxtx.c **** 	f->rssi_min = rssi_min;
 1481              		.loc 1 274 0
 1482 0082 454B     		ldr	r3, .L27+24
 1483 0084 1B78     		ldrb	r3, [r3]	@ zero_extendqisi2
 1484 0086 DAB2     		uxtb	r2, r3
 1485 0088 FB69     		ldr	r3, [r7, #28]
 1486 008a 5A72     		strb	r2, [r3, #9]
 275:bluetooth_rxtx.c **** 	f->rssi_max = rssi_max;
 1487              		.loc 1 275 0
 1488 008c 434B     		ldr	r3, .L27+28
 1489 008e 1B78     		ldrb	r3, [r3]	@ zero_extendqisi2
 1490 0090 DAB2     		uxtb	r2, r3
 1491 0092 FB69     		ldr	r3, [r7, #28]
 1492 0094 1A72     		strb	r2, [r3, #8]
 276:bluetooth_rxtx.c **** 	if (hop_mode != HOP_NONE)
 1493              		.loc 1 276 0
 1494 0096 424B     		ldr	r3, .L27+32
 1495 0098 1B78     		ldrb	r3, [r3]	@ zero_extendqisi2
 1496 009a 002B     		cmp	r3, #0
 1497 009c 09D0     		beq	.L25
 277:bluetooth_rxtx.c **** 	//	f->rssi_avg = (int8_t)((rssi_iir[idle_buf_channel-2402] + 128)/256);
 278:bluetooth_rxtx.c **** 		f->rssi_avg = rssi_sum/rssi_count;
 1498              		.loc 1 278 0
 1499 009e 414B     		ldr	r3, .L27+36
 1500 00a0 1B68     		ldr	r3, [r3]
 1501 00a2 414A     		ldr	r2, .L27+40
 1502 00a4 1278     		ldrb	r2, [r2]	@ zero_extendqisi2
 1503 00a6 93FBF2F3 		sdiv	r3, r3, r2
 1504 00aa DAB2     		uxtb	r2, r3
 1505 00ac FB69     		ldr	r3, [r7, #28]
 1506 00ae 9A72     		strb	r2, [r3, #10]
 1507 00b0 08E0     		b	.L26
ARM GAS  /tmp/ccXEAChk.s 			page 31


 1508              	.L25:
 279:bluetooth_rxtx.c **** 	else
 280:bluetooth_rxtx.c **** 		//f->rssi_avg = (int8_t)((rssi_iir[0] + 128)/256);
 281:bluetooth_rxtx.c **** 		f->rssi_avg = rssi_sum/rssi_count;
 1509              		.loc 1 281 0
 1510 00b2 3C4B     		ldr	r3, .L27+36
 1511 00b4 1B68     		ldr	r3, [r3]
 1512 00b6 3C4A     		ldr	r2, .L27+40
 1513 00b8 1278     		ldrb	r2, [r2]	@ zero_extendqisi2
 1514 00ba 93FBF2F3 		sdiv	r3, r3, r2
 1515 00be DAB2     		uxtb	r2, r3
 1516 00c0 FB69     		ldr	r3, [r7, #28]
 1517 00c2 9A72     		strb	r2, [r3, #10]
 1518              	.L26:
 282:bluetooth_rxtx.c **** 	
 283:bluetooth_rxtx.c **** 	f->rssi_count = rssi_count;
 1519              		.loc 1 283 0
 1520 00c4 384B     		ldr	r3, .L27+40
 1521 00c6 1A78     		ldrb	r2, [r3]	@ zero_extendqisi2
 1522 00c8 FB69     		ldr	r3, [r7, #28]
 1523 00ca DA72     		strb	r2, [r3, #11]
 284:bluetooth_rxtx.c **** 
 285:bluetooth_rxtx.c **** 	USRLED_SET;
 1524              		.loc 1 285 0
 1525 00cc 374B     		ldr	r3, .L27+44
 1526 00ce 0222     		movs	r2, #2
 1527 00d0 1A60     		str	r2, [r3]
 286:bluetooth_rxtx.c **** 
 287:bluetooth_rxtx.c **** 	// Unrolled copy of 50 bytes from buf to fifo
 288:bluetooth_rxtx.c **** 	u32 *p1 = (u32 *)f->data;
 1528              		.loc 1 288 0
 1529 00d2 FB69     		ldr	r3, [r7, #28]
 1530 00d4 0E33     		adds	r3, r3, #14
 1531 00d6 BB61     		str	r3, [r7, #24]
 289:bluetooth_rxtx.c **** 	u32 *p2 = (u32 *)buf;
 1532              		.loc 1 289 0
 1533 00d8 3B68     		ldr	r3, [r7]
 1534 00da 7B61     		str	r3, [r7, #20]
 290:bluetooth_rxtx.c **** 	p1[0] = p2[0];
 1535              		.loc 1 290 0
 1536 00dc 7B69     		ldr	r3, [r7, #20]
 1537 00de 1A68     		ldr	r2, [r3]
 1538 00e0 BB69     		ldr	r3, [r7, #24]
 1539 00e2 1A60     		str	r2, [r3]
 291:bluetooth_rxtx.c **** 	p1[1] = p2[1];
 1540              		.loc 1 291 0
 1541 00e4 BB69     		ldr	r3, [r7, #24]
 1542 00e6 0433     		adds	r3, r3, #4
 1543 00e8 7A69     		ldr	r2, [r7, #20]
 1544 00ea 5268     		ldr	r2, [r2, #4]
 1545 00ec 1A60     		str	r2, [r3]
 292:bluetooth_rxtx.c **** 	p1[2] = p2[2];
 1546              		.loc 1 292 0
 1547 00ee BB69     		ldr	r3, [r7, #24]
 1548 00f0 0833     		adds	r3, r3, #8
 1549 00f2 7A69     		ldr	r2, [r7, #20]
 1550 00f4 9268     		ldr	r2, [r2, #8]
ARM GAS  /tmp/ccXEAChk.s 			page 32


 1551 00f6 1A60     		str	r2, [r3]
 293:bluetooth_rxtx.c **** 	p1[3] = p2[3];
 1552              		.loc 1 293 0
 1553 00f8 BB69     		ldr	r3, [r7, #24]
 1554 00fa 0C33     		adds	r3, r3, #12
 1555 00fc 7A69     		ldr	r2, [r7, #20]
 1556 00fe D268     		ldr	r2, [r2, #12]
 1557 0100 1A60     		str	r2, [r3]
 294:bluetooth_rxtx.c **** 	p1[4] = p2[4];
 1558              		.loc 1 294 0
 1559 0102 BB69     		ldr	r3, [r7, #24]
 1560 0104 1033     		adds	r3, r3, #16
 1561 0106 7A69     		ldr	r2, [r7, #20]
 1562 0108 1269     		ldr	r2, [r2, #16]
 1563 010a 1A60     		str	r2, [r3]
 295:bluetooth_rxtx.c **** 	p1[5] = p2[5];
 1564              		.loc 1 295 0
 1565 010c BB69     		ldr	r3, [r7, #24]
 1566 010e 1433     		adds	r3, r3, #20
 1567 0110 7A69     		ldr	r2, [r7, #20]
 1568 0112 5269     		ldr	r2, [r2, #20]
 1569 0114 1A60     		str	r2, [r3]
 296:bluetooth_rxtx.c **** 	p1[6] = p2[6];
 1570              		.loc 1 296 0
 1571 0116 BB69     		ldr	r3, [r7, #24]
 1572 0118 1833     		adds	r3, r3, #24
 1573 011a 7A69     		ldr	r2, [r7, #20]
 1574 011c 9269     		ldr	r2, [r2, #24]
 1575 011e 1A60     		str	r2, [r3]
 297:bluetooth_rxtx.c **** 	p1[7] = p2[7];
 1576              		.loc 1 297 0
 1577 0120 BB69     		ldr	r3, [r7, #24]
 1578 0122 1C33     		adds	r3, r3, #28
 1579 0124 7A69     		ldr	r2, [r7, #20]
 1580 0126 D269     		ldr	r2, [r2, #28]
 1581 0128 1A60     		str	r2, [r3]
 298:bluetooth_rxtx.c **** 	p1[8] = p2[8];
 1582              		.loc 1 298 0
 1583 012a BB69     		ldr	r3, [r7, #24]
 1584 012c 2033     		adds	r3, r3, #32
 1585 012e 7A69     		ldr	r2, [r7, #20]
 1586 0130 126A     		ldr	r2, [r2, #32]
 1587 0132 1A60     		str	r2, [r3]
 299:bluetooth_rxtx.c **** 	p1[9] = p2[9];
 1588              		.loc 1 299 0
 1589 0134 BB69     		ldr	r3, [r7, #24]
 1590 0136 2433     		adds	r3, r3, #36
 1591 0138 7A69     		ldr	r2, [r7, #20]
 1592 013a 526A     		ldr	r2, [r2, #36]
 1593 013c 1A60     		str	r2, [r3]
 300:bluetooth_rxtx.c **** 	p1[10] = p2[10];
 1594              		.loc 1 300 0
 1595 013e BB69     		ldr	r3, [r7, #24]
 1596 0140 2833     		adds	r3, r3, #40
 1597 0142 7A69     		ldr	r2, [r7, #20]
 1598 0144 926A     		ldr	r2, [r2, #40]
 1599 0146 1A60     		str	r2, [r3]
ARM GAS  /tmp/ccXEAChk.s 			page 33


 301:bluetooth_rxtx.c **** 	p1[11] = p2[11];
 1600              		.loc 1 301 0
 1601 0148 BB69     		ldr	r3, [r7, #24]
 1602 014a 2C33     		adds	r3, r3, #44
 1603 014c 7A69     		ldr	r2, [r7, #20]
 1604 014e D26A     		ldr	r2, [r2, #44]
 1605 0150 1A60     		str	r2, [r3]
 302:bluetooth_rxtx.c **** 	/* Avoid gcc warning about strict-aliasing */
 303:bluetooth_rxtx.c **** 	u16 *p3 = (u16 *)f->data;
 1606              		.loc 1 303 0
 1607 0152 FB69     		ldr	r3, [r7, #28]
 1608 0154 0E33     		adds	r3, r3, #14
 1609 0156 3B61     		str	r3, [r7, #16]
 304:bluetooth_rxtx.c **** 	u16 *p4 = (u16 *)buf;
 1610              		.loc 1 304 0
 1611 0158 3B68     		ldr	r3, [r7]
 1612 015a FB60     		str	r3, [r7, #12]
 305:bluetooth_rxtx.c **** 	p3[24] = p4[24];
 1613              		.loc 1 305 0
 1614 015c 3B69     		ldr	r3, [r7, #16]
 1615 015e 3033     		adds	r3, r3, #48
 1616 0160 FA68     		ldr	r2, [r7, #12]
 1617 0162 128E     		ldrh	r2, [r2, #48]
 1618 0164 1A80     		strh	r2, [r3]	@ movhi
 306:bluetooth_rxtx.c **** 
 307:bluetooth_rxtx.c **** 	f->status = status;
 1619              		.loc 1 307 0
 1620 0166 064B     		ldr	r3, .L27
 1621 0168 1B78     		ldrb	r3, [r3]
 1622 016a DAB2     		uxtb	r2, r3
 1623 016c FB69     		ldr	r3, [r7, #28]
 1624 016e 5A70     		strb	r2, [r3, #1]
 308:bluetooth_rxtx.c **** 	status = 0;
 1625              		.loc 1 308 0
 1626 0170 034B     		ldr	r3, .L27
 1627 0172 0022     		movs	r2, #0
 1628 0174 1A70     		strb	r2, [r3]
 309:bluetooth_rxtx.c **** 
 310:bluetooth_rxtx.c **** 	return 1;
 1629              		.loc 1 310 0
 1630 0176 0123     		movs	r3, #1
 1631              	.L22:
 311:bluetooth_rxtx.c **** }
 1632              		.loc 1 311 0
 1633 0178 1846     		mov	r0, r3
 1634 017a 2037     		adds	r7, r7, #32
 1635              		.cfi_def_cfa_offset 8
 1636 017c BD46     		mov	sp, r7
 1637              		.cfi_def_cfa_register 13
 1638              		@ sp needed
 1639 017e 80BD     		pop	{r7, pc}
 1640              	.L28:
 1641              		.align	2
 1642              	.L27:
 1643 0180 00000000 		.word	status
 1644 0184 00000000 		.word	clkn
 1645 0188 08400040 		.word	1073758216
ARM GAS  /tmp/ccXEAChk.s 			page 34


 1646 018c 00000000 		.word	idle_buf_clkn_high
 1647 0190 00000000 		.word	idle_buf_clk100ns
 1648 0194 00000000 		.word	idle_buf_channel
 1649 0198 00000000 		.word	rssi_min
 1650 019c 00000000 		.word	rssi_max
 1651 01a0 00000000 		.word	hop_mode
 1652 01a4 00000000 		.word	rssi_sum
 1653 01a8 00000000 		.word	rssi_count
 1654 01ac 38C00920 		.word	537509944
 1655              		.cfi_endproc
 1656              	.LFE4:
 1658              		.section	.text.enqueue_with_ts,"ax",%progbits
 1659              		.align	2
 1660              		.global	enqueue_with_ts
 1661              		.thumb
 1662              		.thumb_func
 1664              	enqueue_with_ts:
 1665              	.LFB5:
 312:bluetooth_rxtx.c **** 
 313:bluetooth_rxtx.c **** int enqueue_with_ts(u8 type, u8 *buf, u32 ts)
 314:bluetooth_rxtx.c **** {
 1666              		.loc 1 314 0
 1667              		.cfi_startproc
 1668              		@ args = 0, pretend = 0, frame = 40
 1669              		@ frame_needed = 1, uses_anonymous_args = 0
 1670 0000 80B5     		push	{r7, lr}
 1671              		.cfi_def_cfa_offset 8
 1672              		.cfi_offset 7, -8
 1673              		.cfi_offset 14, -4
 1674 0002 8AB0     		sub	sp, sp, #40
 1675              		.cfi_def_cfa_offset 48
 1676 0004 00AF     		add	r7, sp, #0
 1677              		.cfi_def_cfa_register 7
 1678 0006 0346     		mov	r3, r0
 1679 0008 B960     		str	r1, [r7, #8]
 1680 000a 7A60     		str	r2, [r7, #4]
 1681 000c FB73     		strb	r3, [r7, #15]
 315:bluetooth_rxtx.c **** 	usb_pkt_rx *f = usb_enqueue();
 1682              		.loc 1 315 0
 1683 000e FFF7FEFF 		bl	usb_enqueue
 1684 0012 7862     		str	r0, [r7, #36]
 316:bluetooth_rxtx.c **** 
 317:bluetooth_rxtx.c **** 	/* fail if queue is full */
 318:bluetooth_rxtx.c **** 	if (f == NULL) {
 1685              		.loc 1 318 0
 1686 0014 7B6A     		ldr	r3, [r7, #36]
 1687 0016 002B     		cmp	r3, #0
 1688 0018 09D1     		bne	.L30
 319:bluetooth_rxtx.c **** 		status |= FIFO_OVERFLOW;
 1689              		.loc 1 319 0
 1690 001a 3C4B     		ldr	r3, .L32
 1691 001c 1B78     		ldrb	r3, [r3]
 1692 001e DBB2     		uxtb	r3, r3
 1693 0020 43F00403 		orr	r3, r3, #4
 1694 0024 DAB2     		uxtb	r2, r3
 1695 0026 394B     		ldr	r3, .L32
 1696 0028 1A70     		strb	r2, [r3]
ARM GAS  /tmp/ccXEAChk.s 			page 35


 320:bluetooth_rxtx.c **** 		return 0;
 1697              		.loc 1 320 0
 1698 002a 0023     		movs	r3, #0
 1699 002c 69E0     		b	.L31
 1700              	.L30:
 321:bluetooth_rxtx.c **** 	}
 322:bluetooth_rxtx.c **** 
 323:bluetooth_rxtx.c **** 	f->clkn_high = 0;
 1701              		.loc 1 323 0
 1702 002e 7B6A     		ldr	r3, [r7, #36]
 1703 0030 0022     		movs	r2, #0
 1704 0032 DA70     		strb	r2, [r3, #3]
 324:bluetooth_rxtx.c **** 	f->clk100ns = ts;
 1705              		.loc 1 324 0
 1706 0034 7B6A     		ldr	r3, [r7, #36]
 1707 0036 7A68     		ldr	r2, [r7, #4]
 1708 0038 5A60     		str	r2, [r3, #4]
 325:bluetooth_rxtx.c **** 
 326:bluetooth_rxtx.c **** 	f->channel = channel - 2402;
 1709              		.loc 1 326 0
 1710 003a 354B     		ldr	r3, .L32+4
 1711 003c 1B88     		ldrh	r3, [r3]	@ movhi
 1712 003e 9BB2     		uxth	r3, r3
 1713 0040 DBB2     		uxtb	r3, r3
 1714 0042 623B     		subs	r3, r3, #98
 1715 0044 DAB2     		uxtb	r2, r3
 1716 0046 7B6A     		ldr	r3, [r7, #36]
 1717 0048 9A70     		strb	r2, [r3, #2]
 327:bluetooth_rxtx.c **** 	f->rssi_avg = 0;
 1718              		.loc 1 327 0
 1719 004a 7B6A     		ldr	r3, [r7, #36]
 1720 004c 0022     		movs	r2, #0
 1721 004e 9A72     		strb	r2, [r3, #10]
 328:bluetooth_rxtx.c **** 	f->rssi_count = 0;
 1722              		.loc 1 328 0
 1723 0050 7B6A     		ldr	r3, [r7, #36]
 1724 0052 0022     		movs	r2, #0
 1725 0054 DA72     		strb	r2, [r3, #11]
 329:bluetooth_rxtx.c **** 
 330:bluetooth_rxtx.c **** 	USRLED_SET;
 1726              		.loc 1 330 0
 1727 0056 2F4B     		ldr	r3, .L32+8
 1728 0058 0222     		movs	r2, #2
 1729 005a 1A60     		str	r2, [r3]
 331:bluetooth_rxtx.c **** 
 332:bluetooth_rxtx.c **** 	// Unrolled copy of 50 bytes from buf to fifo
 333:bluetooth_rxtx.c **** 	u32 *p1 = (u32 *)f->data;
 1730              		.loc 1 333 0
 1731 005c 7B6A     		ldr	r3, [r7, #36]
 1732 005e 0E33     		adds	r3, r3, #14
 1733 0060 3B62     		str	r3, [r7, #32]
 334:bluetooth_rxtx.c **** 	u32 *p2 = (u32 *)buf;
 1734              		.loc 1 334 0
 1735 0062 BB68     		ldr	r3, [r7, #8]
 1736 0064 FB61     		str	r3, [r7, #28]
 335:bluetooth_rxtx.c **** 	p1[0] = p2[0];
 1737              		.loc 1 335 0
ARM GAS  /tmp/ccXEAChk.s 			page 36


 1738 0066 FB69     		ldr	r3, [r7, #28]
 1739 0068 1A68     		ldr	r2, [r3]
 1740 006a 3B6A     		ldr	r3, [r7, #32]
 1741 006c 1A60     		str	r2, [r3]
 336:bluetooth_rxtx.c **** 	p1[1] = p2[1];
 1742              		.loc 1 336 0
 1743 006e 3B6A     		ldr	r3, [r7, #32]
 1744 0070 0433     		adds	r3, r3, #4
 1745 0072 FA69     		ldr	r2, [r7, #28]
 1746 0074 5268     		ldr	r2, [r2, #4]
 1747 0076 1A60     		str	r2, [r3]
 337:bluetooth_rxtx.c **** 	p1[2] = p2[2];
 1748              		.loc 1 337 0
 1749 0078 3B6A     		ldr	r3, [r7, #32]
 1750 007a 0833     		adds	r3, r3, #8
 1751 007c FA69     		ldr	r2, [r7, #28]
 1752 007e 9268     		ldr	r2, [r2, #8]
 1753 0080 1A60     		str	r2, [r3]
 338:bluetooth_rxtx.c **** 	p1[3] = p2[3];
 1754              		.loc 1 338 0
 1755 0082 3B6A     		ldr	r3, [r7, #32]
 1756 0084 0C33     		adds	r3, r3, #12
 1757 0086 FA69     		ldr	r2, [r7, #28]
 1758 0088 D268     		ldr	r2, [r2, #12]
 1759 008a 1A60     		str	r2, [r3]
 339:bluetooth_rxtx.c **** 	p1[4] = p2[4];
 1760              		.loc 1 339 0
 1761 008c 3B6A     		ldr	r3, [r7, #32]
 1762 008e 1033     		adds	r3, r3, #16
 1763 0090 FA69     		ldr	r2, [r7, #28]
 1764 0092 1269     		ldr	r2, [r2, #16]
 1765 0094 1A60     		str	r2, [r3]
 340:bluetooth_rxtx.c **** 	p1[5] = p2[5];
 1766              		.loc 1 340 0
 1767 0096 3B6A     		ldr	r3, [r7, #32]
 1768 0098 1433     		adds	r3, r3, #20
 1769 009a FA69     		ldr	r2, [r7, #28]
 1770 009c 5269     		ldr	r2, [r2, #20]
 1771 009e 1A60     		str	r2, [r3]
 341:bluetooth_rxtx.c **** 	p1[6] = p2[6];
 1772              		.loc 1 341 0
 1773 00a0 3B6A     		ldr	r3, [r7, #32]
 1774 00a2 1833     		adds	r3, r3, #24
 1775 00a4 FA69     		ldr	r2, [r7, #28]
 1776 00a6 9269     		ldr	r2, [r2, #24]
 1777 00a8 1A60     		str	r2, [r3]
 342:bluetooth_rxtx.c **** 	p1[7] = p2[7];
 1778              		.loc 1 342 0
 1779 00aa 3B6A     		ldr	r3, [r7, #32]
 1780 00ac 1C33     		adds	r3, r3, #28
 1781 00ae FA69     		ldr	r2, [r7, #28]
 1782 00b0 D269     		ldr	r2, [r2, #28]
 1783 00b2 1A60     		str	r2, [r3]
 343:bluetooth_rxtx.c **** 	p1[8] = p2[8];
 1784              		.loc 1 343 0
 1785 00b4 3B6A     		ldr	r3, [r7, #32]
 1786 00b6 2033     		adds	r3, r3, #32
ARM GAS  /tmp/ccXEAChk.s 			page 37


 1787 00b8 FA69     		ldr	r2, [r7, #28]
 1788 00ba 126A     		ldr	r2, [r2, #32]
 1789 00bc 1A60     		str	r2, [r3]
 344:bluetooth_rxtx.c **** 	p1[9] = p2[9];
 1790              		.loc 1 344 0
 1791 00be 3B6A     		ldr	r3, [r7, #32]
 1792 00c0 2433     		adds	r3, r3, #36
 1793 00c2 FA69     		ldr	r2, [r7, #28]
 1794 00c4 526A     		ldr	r2, [r2, #36]
 1795 00c6 1A60     		str	r2, [r3]
 345:bluetooth_rxtx.c **** 	p1[10] = p2[10];
 1796              		.loc 1 345 0
 1797 00c8 3B6A     		ldr	r3, [r7, #32]
 1798 00ca 2833     		adds	r3, r3, #40
 1799 00cc FA69     		ldr	r2, [r7, #28]
 1800 00ce 926A     		ldr	r2, [r2, #40]
 1801 00d0 1A60     		str	r2, [r3]
 346:bluetooth_rxtx.c **** 	p1[11] = p2[11];
 1802              		.loc 1 346 0
 1803 00d2 3B6A     		ldr	r3, [r7, #32]
 1804 00d4 2C33     		adds	r3, r3, #44
 1805 00d6 FA69     		ldr	r2, [r7, #28]
 1806 00d8 D26A     		ldr	r2, [r2, #44]
 1807 00da 1A60     		str	r2, [r3]
 347:bluetooth_rxtx.c **** 	/* Avoid gcc warning about strict-aliasing */
 348:bluetooth_rxtx.c **** 	u16 *p3 = (u16 *)f->data;
 1808              		.loc 1 348 0
 1809 00dc 7B6A     		ldr	r3, [r7, #36]
 1810 00de 0E33     		adds	r3, r3, #14
 1811 00e0 BB61     		str	r3, [r7, #24]
 349:bluetooth_rxtx.c **** 	u16 *p4 = (u16 *)buf;
 1812              		.loc 1 349 0
 1813 00e2 BB68     		ldr	r3, [r7, #8]
 1814 00e4 7B61     		str	r3, [r7, #20]
 350:bluetooth_rxtx.c **** 	p3[24] = p4[24];
 1815              		.loc 1 350 0
 1816 00e6 BB69     		ldr	r3, [r7, #24]
 1817 00e8 3033     		adds	r3, r3, #48
 1818 00ea 7A69     		ldr	r2, [r7, #20]
 1819 00ec 128E     		ldrh	r2, [r2, #48]
 1820 00ee 1A80     		strh	r2, [r3]	@ movhi
 351:bluetooth_rxtx.c **** 
 352:bluetooth_rxtx.c **** 	f->status = status;
 1821              		.loc 1 352 0
 1822 00f0 064B     		ldr	r3, .L32
 1823 00f2 1B78     		ldrb	r3, [r3]
 1824 00f4 DAB2     		uxtb	r2, r3
 1825 00f6 7B6A     		ldr	r3, [r7, #36]
 1826 00f8 5A70     		strb	r2, [r3, #1]
 353:bluetooth_rxtx.c **** 	status = 0;
 1827              		.loc 1 353 0
 1828 00fa 044B     		ldr	r3, .L32
 1829 00fc 0022     		movs	r2, #0
 1830 00fe 1A70     		strb	r2, [r3]
 354:bluetooth_rxtx.c **** 
 355:bluetooth_rxtx.c **** 	return 1;
 1831              		.loc 1 355 0
ARM GAS  /tmp/ccXEAChk.s 			page 38


 1832 0100 0123     		movs	r3, #1
 1833              	.L31:
 356:bluetooth_rxtx.c **** }
 1834              		.loc 1 356 0
 1835 0102 1846     		mov	r0, r3
 1836 0104 2837     		adds	r7, r7, #40
 1837              		.cfi_def_cfa_offset 8
 1838 0106 BD46     		mov	sp, r7
 1839              		.cfi_def_cfa_register 13
 1840              		@ sp needed
 1841 0108 80BD     		pop	{r7, pc}
 1842              	.L33:
 1843 010a 00BF     		.align	2
 1844              	.L32:
 1845 010c 00000000 		.word	status
 1846 0110 00000000 		.word	channel
 1847 0114 38C00920 		.word	537509944
 1848              		.cfi_endproc
 1849              	.LFE5:
 1851              		.section	.text.cs_threshold_calc_and_set,"ax",%progbits
 1852              		.align	2
 1853              		.thumb
 1854              		.thumb_func
 1856              	cs_threshold_calc_and_set:
 1857              	.LFB6:
 357:bluetooth_rxtx.c **** 
 358:bluetooth_rxtx.c **** static void cs_threshold_calc_and_set(void)
 359:bluetooth_rxtx.c **** {
 1858              		.loc 1 359 0
 1859              		.cfi_startproc
 1860              		@ args = 0, pretend = 0, frame = 8
 1861              		@ frame_needed = 1, uses_anonymous_args = 0
 1862 0000 80B5     		push	{r7, lr}
 1863              		.cfi_def_cfa_offset 8
 1864              		.cfi_offset 7, -8
 1865              		.cfi_offset 14, -4
 1866 0002 82B0     		sub	sp, sp, #8
 1867              		.cfi_def_cfa_offset 16
 1868 0004 00AF     		add	r7, sp, #0
 1869              		.cfi_def_cfa_register 7
 360:bluetooth_rxtx.c **** 	int8_t level;
 361:bluetooth_rxtx.c **** 
 362:bluetooth_rxtx.c **** 	/* If threshold is max/avg based (>0), reset here while rx is
 363:bluetooth_rxtx.c **** 	 * off.  TODO - max-to-iir only works in SWEEP mode, where the
 364:bluetooth_rxtx.c **** 	 * channel is known to be in the BT band, i.e., rssi_iir has a
 365:bluetooth_rxtx.c **** 	 * value for it. */
 366:bluetooth_rxtx.c **** 	if ((hop_mode > 0) && (cs_threshold_req > 0)) {
 1870              		.loc 1 366 0
 1871 0006 174B     		ldr	r3, .L38
 1872 0008 1B78     		ldrb	r3, [r3]	@ zero_extendqisi2
 1873 000a 002B     		cmp	r3, #0
 1874 000c 1DD0     		beq	.L35
 1875              		.loc 1 366 0 is_stmt 0 discriminator 1
 1876 000e 164B     		ldr	r3, .L38+4
 1877 0010 1B78     		ldrb	r3, [r3]	@ zero_extendqisi2
 1878 0012 5BB2     		sxtb	r3, r3
 1879 0014 002B     		cmp	r3, #0
ARM GAS  /tmp/ccXEAChk.s 			page 39


 1880 0016 18DD     		ble	.L35
 1881              	.LBB2:
 367:bluetooth_rxtx.c **** 		int8_t rssi = (int8_t)((rssi_iir[channel-2402] + 128)/256);
 1882              		.loc 1 367 0 is_stmt 1
 1883 0018 144B     		ldr	r3, .L38+8
 1884 001a 1B88     		ldrh	r3, [r3]	@ movhi
 1885 001c 9BB2     		uxth	r3, r3
 1886 001e A3F66213 		subw	r3, r3, #2402
 1887 0022 134A     		ldr	r2, .L38+12
 1888 0024 32F81330 		ldrh	r3, [r2, r3, lsl #1]
 1889 0028 1BB2     		sxth	r3, r3
 1890 002a 8033     		adds	r3, r3, #128
 1891 002c 002B     		cmp	r3, #0
 1892 002e 00DA     		bge	.L36
 1893 0030 FF33     		adds	r3, r3, #255
 1894              	.L36:
 1895 0032 1B12     		asrs	r3, r3, #8
 1896 0034 BB71     		strb	r3, [r7, #6]
 368:bluetooth_rxtx.c **** 		level = rssi - 54 + cs_threshold_req;
 1897              		.loc 1 368 0
 1898 0036 BA79     		ldrb	r2, [r7, #6]	@ zero_extendqisi2
 1899 0038 0B4B     		ldr	r3, .L38+4
 1900 003a 1B78     		ldrb	r3, [r3]	@ zero_extendqisi2
 1901 003c DBB2     		uxtb	r3, r3
 1902 003e 1344     		add	r3, r3, r2
 1903 0040 DBB2     		uxtb	r3, r3
 1904 0042 363B     		subs	r3, r3, #54
 1905 0044 DBB2     		uxtb	r3, r3
 1906 0046 FB71     		strb	r3, [r7, #7]
 1907              	.LBE2:
 366:bluetooth_rxtx.c **** 		int8_t rssi = (int8_t)((rssi_iir[channel-2402] + 128)/256);
 1908              		.loc 1 366 0
 1909 0048 02E0     		b	.L37
 1910              	.L35:
 369:bluetooth_rxtx.c **** 	}
 370:bluetooth_rxtx.c **** 	else {
 371:bluetooth_rxtx.c **** 		level = cs_threshold_req;
 1911              		.loc 1 371 0
 1912 004a 074B     		ldr	r3, .L38+4
 1913 004c 1B78     		ldrb	r3, [r3]
 1914 004e FB71     		strb	r3, [r7, #7]
 1915              	.L37:
 372:bluetooth_rxtx.c **** 	}
 373:bluetooth_rxtx.c **** 	cs_threshold_set(level, CS_SAMPLES_4);
 1916              		.loc 1 373 0
 1917 0050 97F90730 		ldrsb	r3, [r7, #7]
 1918 0054 1846     		mov	r0, r3
 1919 0056 0321     		movs	r1, #3
 1920 0058 FFF7FEFF 		bl	cs_threshold_set
 374:bluetooth_rxtx.c **** }
 1921              		.loc 1 374 0
 1922 005c 0837     		adds	r7, r7, #8
 1923              		.cfi_def_cfa_offset 8
 1924 005e BD46     		mov	sp, r7
 1925              		.cfi_def_cfa_register 13
 1926              		@ sp needed
 1927 0060 80BD     		pop	{r7, pc}
ARM GAS  /tmp/ccXEAChk.s 			page 40


 1928              	.L39:
 1929 0062 00BF     		.align	2
 1930              	.L38:
 1931 0064 00000000 		.word	hop_mode
 1932 0068 00000000 		.word	cs_threshold_req
 1933 006c 00000000 		.word	channel
 1934 0070 00000000 		.word	rssi_iir
 1935              		.cfi_endproc
 1936              	.LFE6:
 1938              		.section	.text.cs_trigger_enable,"ax",%progbits
 1939              		.align	2
 1940              		.thumb
 1941              		.thumb_func
 1943              	cs_trigger_enable:
 1944              	.LFB7:
 375:bluetooth_rxtx.c **** 
 376:bluetooth_rxtx.c **** /* CS comes from CC2400 GIO6, which is LPC P2.2, active low. GPIO
 377:bluetooth_rxtx.c ****  * triggers EINT3, which could be used for other things (but is not
 378:bluetooth_rxtx.c ****  * currently). TODO - EINT3 should be managed globally, not turned on
 379:bluetooth_rxtx.c ****  * and off here. */
 380:bluetooth_rxtx.c **** static void cs_trigger_enable(void)
 381:bluetooth_rxtx.c **** {
 1945              		.loc 1 381 0
 1946              		.cfi_startproc
 1947              		@ args = 0, pretend = 0, frame = 0
 1948              		@ frame_needed = 1, uses_anonymous_args = 0
 1949              		@ link register save eliminated.
 1950 0000 80B4     		push	{r7}
 1951              		.cfi_def_cfa_offset 4
 1952              		.cfi_offset 7, -4
 1953 0002 00AF     		add	r7, sp, #0
 1954              		.cfi_def_cfa_register 7
 382:bluetooth_rxtx.c **** 	cs_trigger = 0;
 1955              		.loc 1 382 0
 1956 0004 094B     		ldr	r3, .L41
 1957 0006 0022     		movs	r2, #0
 1958 0008 1A70     		strb	r2, [r3]
 383:bluetooth_rxtx.c **** 	ISER0 = ISER0_ISE_EINT3;
 1959              		.loc 1 383 0
 1960 000a 094B     		ldr	r3, .L41+4
 1961 000c 4FF40012 		mov	r2, #2097152
 1962 0010 1A60     		str	r2, [r3]
 384:bluetooth_rxtx.c **** 	IO2IntClr = PIN_GIO6;      // Clear pending
 1963              		.loc 1 384 0
 1964 0012 084B     		ldr	r3, .L41+8
 1965 0014 0422     		movs	r2, #4
 1966 0016 1A60     		str	r2, [r3]
 385:bluetooth_rxtx.c **** 	IO2IntEnF |= PIN_GIO6;     // Enable port 2.2 falling (CS active low)
 1967              		.loc 1 385 0
 1968 0018 074A     		ldr	r2, .L41+12
 1969 001a 074B     		ldr	r3, .L41+12
 1970 001c 1B68     		ldr	r3, [r3]
 1971 001e 43F00403 		orr	r3, r3, #4
 1972 0022 1360     		str	r3, [r2]
 386:bluetooth_rxtx.c **** }
 1973              		.loc 1 386 0
 1974 0024 BD46     		mov	sp, r7
ARM GAS  /tmp/ccXEAChk.s 			page 41


 1975              		.cfi_def_cfa_register 13
 1976              		@ sp needed
 1977 0026 5DF8047B 		ldr	r7, [sp], #4
 1978              		.cfi_restore 7
 1979              		.cfi_def_cfa_offset 0
 1980 002a 7047     		bx	lr
 1981              	.L42:
 1982              		.align	2
 1983              	.L41:
 1984 002c 00000000 		.word	cs_trigger
 1985 0030 00E100E0 		.word	-536813312
 1986 0034 AC800240 		.word	1073905836
 1987 0038 B4800240 		.word	1073905844
 1988              		.cfi_endproc
 1989              	.LFE7:
 1991              		.section	.text.cs_trigger_disable,"ax",%progbits
 1992              		.align	2
 1993              		.thumb
 1994              		.thumb_func
 1996              	cs_trigger_disable:
 1997              	.LFB8:
 387:bluetooth_rxtx.c **** 
 388:bluetooth_rxtx.c **** static void cs_trigger_disable(void)
 389:bluetooth_rxtx.c **** {
 1998              		.loc 1 389 0
 1999              		.cfi_startproc
 2000              		@ args = 0, pretend = 0, frame = 0
 2001              		@ frame_needed = 1, uses_anonymous_args = 0
 2002              		@ link register save eliminated.
 2003 0000 80B4     		push	{r7}
 2004              		.cfi_def_cfa_offset 4
 2005              		.cfi_offset 7, -4
 2006 0002 00AF     		add	r7, sp, #0
 2007              		.cfi_def_cfa_register 7
 390:bluetooth_rxtx.c **** 	IO2IntEnF &= ~PIN_GIO6;    // Disable port 2.2 falling (CS active low)
 2008              		.loc 1 390 0
 2009 0004 094A     		ldr	r2, .L44
 2010 0006 094B     		ldr	r3, .L44
 2011 0008 1B68     		ldr	r3, [r3]
 2012 000a 23F00403 		bic	r3, r3, #4
 2013 000e 1360     		str	r3, [r2]
 391:bluetooth_rxtx.c **** 	IO2IntClr = PIN_GIO6;      // Clear pending
 2014              		.loc 1 391 0
 2015 0010 074B     		ldr	r3, .L44+4
 2016 0012 0422     		movs	r2, #4
 2017 0014 1A60     		str	r2, [r3]
 392:bluetooth_rxtx.c **** 	ICER0 = ICER0_ICE_EINT3;
 2018              		.loc 1 392 0
 2019 0016 074B     		ldr	r3, .L44+8
 2020 0018 4FF40012 		mov	r2, #2097152
 2021 001c 1A60     		str	r2, [r3]
 393:bluetooth_rxtx.c **** 	cs_trigger = 0;
 2022              		.loc 1 393 0
 2023 001e 064B     		ldr	r3, .L44+12
 2024 0020 0022     		movs	r2, #0
 2025 0022 1A70     		strb	r2, [r3]
 394:bluetooth_rxtx.c **** }
ARM GAS  /tmp/ccXEAChk.s 			page 42


 2026              		.loc 1 394 0
 2027 0024 BD46     		mov	sp, r7
 2028              		.cfi_def_cfa_register 13
 2029              		@ sp needed
 2030 0026 5DF8047B 		ldr	r7, [sp], #4
 2031              		.cfi_restore 7
 2032              		.cfi_def_cfa_offset 0
 2033 002a 7047     		bx	lr
 2034              	.L45:
 2035              		.align	2
 2036              	.L44:
 2037 002c B4800240 		.word	1073905844
 2038 0030 AC800240 		.word	1073905836
 2039 0034 80E100E0 		.word	-536813184
 2040 0038 00000000 		.word	cs_trigger
 2041              		.cfi_endproc
 2042              	.LFE8:
 2044              		.section	.rodata
 2045 08f9 000000   		.align	2
 2046              	.LC3:
 2047 08fc 32303135 		.ascii	"2015-10-R1\000"
 2047      2D31302D 
 2047      523100
 2048              		.section	.text.vendor_request_handler,"ax",%progbits
 2049              		.align	2
 2050              		.thumb
 2051              		.thumb_func
 2053              	vendor_request_handler:
 2054              	.LFB9:
 395:bluetooth_rxtx.c **** 
 396:bluetooth_rxtx.c **** static int vendor_request_handler(u8 request, u16 *request_params, u8 *data, int *data_len)
 397:bluetooth_rxtx.c **** {
 2055              		.loc 1 397 0
 2056              		.cfi_startproc
 2057              		@ args = 0, pretend = 0, frame = 80
 2058              		@ frame_needed = 1, uses_anonymous_args = 0
 2059 0000 2DE9F04F 		push	{r4, r5, r6, r7, r8, r9, r10, fp, lr}
 2060              		.cfi_def_cfa_offset 36
 2061              		.cfi_offset 4, -36
 2062              		.cfi_offset 5, -32
 2063              		.cfi_offset 6, -28
 2064              		.cfi_offset 7, -24
 2065              		.cfi_offset 8, -20
 2066              		.cfi_offset 9, -16
 2067              		.cfi_offset 10, -12
 2068              		.cfi_offset 11, -8
 2069              		.cfi_offset 14, -4
 2070 0004 95B0     		sub	sp, sp, #84
 2071              		.cfi_def_cfa_offset 120
 2072 0006 00AF     		add	r7, sp, #0
 2073              		.cfi_def_cfa_register 7
 2074 0008 B960     		str	r1, [r7, #8]
 2075 000a 7A60     		str	r2, [r7, #4]
 2076 000c 3B60     		str	r3, [r7]
 2077 000e 0346     		mov	r3, r0
 2078 0010 FB73     		strb	r3, [r7, #15]
 398:bluetooth_rxtx.c **** 	u32 command[5];
ARM GAS  /tmp/ccXEAChk.s 			page 43


 399:bluetooth_rxtx.c **** 	u32 result[5];
 400:bluetooth_rxtx.c **** 	u64 ac_copy;
 401:bluetooth_rxtx.c **** 	int i; // loop counter
 402:bluetooth_rxtx.c **** 	u32 clock;
 403:bluetooth_rxtx.c **** 	int clock_offset;
 404:bluetooth_rxtx.c **** 	u8 length; // string length
 405:bluetooth_rxtx.c **** 	usb_pkt_rx *p = NULL;
 2079              		.loc 1 405 0
 2080 0012 0023     		movs	r3, #0
 2081 0014 7B64     		str	r3, [r7, #68]
 406:bluetooth_rxtx.c **** 	u16 reg_val;
 407:bluetooth_rxtx.c **** 
 408:bluetooth_rxtx.c **** 	switch (request) {
 2082              		.loc 1 408 0
 2083 0016 FB7B     		ldrb	r3, [r7, #15]	@ zero_extendqisi2
 2084 0018 3C2B     		cmp	r3, #60
 2085 001a 00F25185 		bhi	.L47
 2086 001e 01A2     		adr	r2, .L49
 2087 0020 52F823F0 		ldr	pc, [r2, r3, lsl #2]
 2088              		.p2align 2
 2089              	.L49:
 2090 0024 19010000 		.word	.L48+1
 2091 0028 23010000 		.word	.L50+1
 2092 002c C10A0000 		.word	.L47+1
 2093 0030 33010000 		.word	.L51+1
 2094 0034 55010000 		.word	.L52+1
 2095 0038 71010000 		.word	.L53+1
 2096 003c 93010000 		.word	.L54+1
 2097 0040 AF010000 		.word	.L55+1
 2098 0044 D1010000 		.word	.L56+1
 2099 0048 F1010000 		.word	.L57+1
 2100 004c 13020000 		.word	.L58+1
 2101 0050 B7040000 		.word	.L59+1
 2102 0054 DD040000 		.word	.L60+1
 2103 0058 89020000 		.word	.L61+1
 2104 005c 93020000 		.word	.L62+1
 2105 0060 33020000 		.word	.L63+1
 2106 0064 71030000 		.word	.L64+1
 2107 0068 91030000 		.word	.L65+1
 2108 006c C9030000 		.word	.L66+1
 2109 0070 E9030000 		.word	.L67+1
 2110 0074 05040000 		.word	.L68+1
 2111 0078 91040000 		.word	.L69+1
 2112 007c 99040000 		.word	.L70+1
 2113 0080 AB040000 		.word	.L71+1
 2114 0084 67050000 		.word	.L72+1
 2115 0088 85050000 		.word	.L73+1
 2116 008c C10A0000 		.word	.L47+1
 2117 0090 91050000 		.word	.L74+1
 2118 0094 0D040000 		.word	.L75+1
 2119 0098 29040000 		.word	.L76+1
 2120 009c 51040000 		.word	.L77+1
 2121 00a0 49040000 		.word	.L78+1
 2122 00a4 59040000 		.word	.L79+1
 2123 00a8 55060000 		.word	.L80+1
 2124 00ac ED050000 		.word	.L81+1
 2125 00b0 C9060000 		.word	.L82+1
ARM GAS  /tmp/ccXEAChk.s 			page 44


 2126 00b4 D7060000 		.word	.L83+1
 2127 00b8 E7060000 		.word	.L84+1
 2128 00bc F9060000 		.word	.L85+1
 2129 00c0 C5070000 		.word	.L86+1
 2130 00c4 0B080000 		.word	.L87+1
 2131 00c8 99080000 		.word	.L88+1
 2132 00cc CD080000 		.word	.L89+1
 2133 00d0 EF080000 		.word	.L90+1
 2134 00d4 47090000 		.word	.L91+1
 2135 00d8 C50A0000 		.word	.L150+1
 2136 00dc 79090000 		.word	.L93+1
 2137 00e0 8F090000 		.word	.L94+1
 2138 00e4 AB090000 		.word	.L95+1
 2139 00e8 C1090000 		.word	.L96+1
 2140 00ec ED090000 		.word	.L97+1
 2141 00f0 3D080000 		.word	.L98+1
 2142 00f4 6F080000 		.word	.L99+1
 2143 00f8 090A0000 		.word	.L100+1
 2144 00fc 4D0A0000 		.word	.L101+1
 2145 0100 97060000 		.word	.L102+1
 2146 0104 5F0A0000 		.word	.L103+1
 2147 0108 C10A0000 		.word	.L47+1
 2148 010c 370A0000 		.word	.L104+1
 2149 0110 A30A0000 		.word	.L105+1
 2150 0114 AF0A0000 		.word	.L106+1
 2151              		.p2align 1
 2152              	.L48:
 409:bluetooth_rxtx.c **** 
 410:bluetooth_rxtx.c **** 	case UBERTOOTH_PING:
 411:bluetooth_rxtx.c **** 		*data_len = 0;
 2153              		.loc 1 411 0
 2154 0118 3B68     		ldr	r3, [r7]
 2155 011a 0022     		movs	r2, #0
 2156 011c 1A60     		str	r2, [r3]
 412:bluetooth_rxtx.c **** 		break;
 2157              		.loc 1 412 0
 2158 011e 00F0D2BC 		b	.L107
 2159              	.L50:
 413:bluetooth_rxtx.c **** 
 414:bluetooth_rxtx.c **** 	case UBERTOOTH_RX_SYMBOLS:
 415:bluetooth_rxtx.c **** 		requested_mode = MODE_RX_SYMBOLS;
 2160              		.loc 1 415 0
 2161 0122 A14B     		ldr	r3, .L151
 2162 0124 0122     		movs	r2, #1
 2163 0126 1A70     		strb	r2, [r3]
 416:bluetooth_rxtx.c **** 		*data_len = 0;
 2164              		.loc 1 416 0
 2165 0128 3B68     		ldr	r3, [r7]
 2166 012a 0022     		movs	r2, #0
 2167 012c 1A60     		str	r2, [r3]
 417:bluetooth_rxtx.c **** 		break;
 2168              		.loc 1 417 0
 2169 012e 00F0CABC 		b	.L107
 2170              	.L51:
 418:bluetooth_rxtx.c **** 
 419:bluetooth_rxtx.c **** 	case UBERTOOTH_GET_USRLED:
 420:bluetooth_rxtx.c **** 		data[0] = (USRLED) ? 1 : 0;
ARM GAS  /tmp/ccXEAChk.s 			page 45


 2171              		.loc 1 420 0
 2172 0132 9E4B     		ldr	r3, .L151+4
 2173 0134 1B68     		ldr	r3, [r3]
 2174 0136 03F00203 		and	r3, r3, #2
 2175 013a 002B     		cmp	r3, #0
 2176 013c 14BF     		ite	ne
 2177 013e 0123     		movne	r3, #1
 2178 0140 0023     		moveq	r3, #0
 2179 0142 DBB2     		uxtb	r3, r3
 2180 0144 1A46     		mov	r2, r3
 2181 0146 7B68     		ldr	r3, [r7, #4]
 2182 0148 1A70     		strb	r2, [r3]
 421:bluetooth_rxtx.c **** 		*data_len = 1;
 2183              		.loc 1 421 0
 2184 014a 3B68     		ldr	r3, [r7]
 2185 014c 0122     		movs	r2, #1
 2186 014e 1A60     		str	r2, [r3]
 422:bluetooth_rxtx.c **** 		break;
 2187              		.loc 1 422 0
 2188 0150 00F0B9BC 		b	.L107
 2189              	.L52:
 423:bluetooth_rxtx.c **** 
 424:bluetooth_rxtx.c **** 	case UBERTOOTH_SET_USRLED:
 425:bluetooth_rxtx.c **** 		if (request_params[0])
 2190              		.loc 1 425 0
 2191 0154 BB68     		ldr	r3, [r7, #8]
 2192 0156 1B88     		ldrh	r3, [r3]
 2193 0158 002B     		cmp	r3, #0
 2194 015a 04D0     		beq	.L108
 426:bluetooth_rxtx.c **** 			USRLED_SET;
 2195              		.loc 1 426 0
 2196 015c 944B     		ldr	r3, .L151+8
 2197 015e 0222     		movs	r2, #2
 2198 0160 1A60     		str	r2, [r3]
 427:bluetooth_rxtx.c **** 		else
 428:bluetooth_rxtx.c **** 			USRLED_CLR;
 429:bluetooth_rxtx.c **** 		break;
 2199              		.loc 1 429 0
 2200 0162 00F0B0BC 		b	.L107
 2201              	.L108:
 428:bluetooth_rxtx.c **** 		break;
 2202              		.loc 1 428 0
 2203 0166 934B     		ldr	r3, .L151+12
 2204 0168 0222     		movs	r2, #2
 2205 016a 1A60     		str	r2, [r3]
 2206              		.loc 1 429 0
 2207 016c 00F0ABBC 		b	.L107
 2208              	.L53:
 430:bluetooth_rxtx.c **** 
 431:bluetooth_rxtx.c **** 	case UBERTOOTH_GET_RXLED:
 432:bluetooth_rxtx.c **** 		data[0] = (RXLED) ? 1 : 0;
 2209              		.loc 1 432 0
 2210 0170 8E4B     		ldr	r3, .L151+4
 2211 0172 1B68     		ldr	r3, [r3]
 2212 0174 03F01003 		and	r3, r3, #16
 2213 0178 002B     		cmp	r3, #0
 2214 017a 14BF     		ite	ne
ARM GAS  /tmp/ccXEAChk.s 			page 46


 2215 017c 0123     		movne	r3, #1
 2216 017e 0023     		moveq	r3, #0
 2217 0180 DBB2     		uxtb	r3, r3
 2218 0182 1A46     		mov	r2, r3
 2219 0184 7B68     		ldr	r3, [r7, #4]
 2220 0186 1A70     		strb	r2, [r3]
 433:bluetooth_rxtx.c **** 		*data_len = 1;
 2221              		.loc 1 433 0
 2222 0188 3B68     		ldr	r3, [r7]
 2223 018a 0122     		movs	r2, #1
 2224 018c 1A60     		str	r2, [r3]
 434:bluetooth_rxtx.c **** 		break;
 2225              		.loc 1 434 0
 2226 018e 00F09ABC 		b	.L107
 2227              	.L54:
 435:bluetooth_rxtx.c **** 
 436:bluetooth_rxtx.c **** 	case UBERTOOTH_SET_RXLED:
 437:bluetooth_rxtx.c **** 		if (request_params[0])
 2228              		.loc 1 437 0
 2229 0192 BB68     		ldr	r3, [r7, #8]
 2230 0194 1B88     		ldrh	r3, [r3]
 2231 0196 002B     		cmp	r3, #0
 2232 0198 04D0     		beq	.L110
 438:bluetooth_rxtx.c **** 			RXLED_SET;
 2233              		.loc 1 438 0
 2234 019a 854B     		ldr	r3, .L151+8
 2235 019c 1022     		movs	r2, #16
 2236 019e 1A60     		str	r2, [r3]
 439:bluetooth_rxtx.c **** 		else
 440:bluetooth_rxtx.c **** 			RXLED_CLR;
 441:bluetooth_rxtx.c **** 		break;
 2237              		.loc 1 441 0
 2238 01a0 00F091BC 		b	.L107
 2239              	.L110:
 440:bluetooth_rxtx.c **** 		break;
 2240              		.loc 1 440 0
 2241 01a4 834B     		ldr	r3, .L151+12
 2242 01a6 1022     		movs	r2, #16
 2243 01a8 1A60     		str	r2, [r3]
 2244              		.loc 1 441 0
 2245 01aa 00F08CBC 		b	.L107
 2246              	.L55:
 442:bluetooth_rxtx.c **** 
 443:bluetooth_rxtx.c **** 	case UBERTOOTH_GET_TXLED:
 444:bluetooth_rxtx.c **** 		data[0] = (TXLED) ? 1 : 0;
 2247              		.loc 1 444 0
 2248 01ae 7F4B     		ldr	r3, .L151+4
 2249 01b0 1B68     		ldr	r3, [r3]
 2250 01b2 03F48073 		and	r3, r3, #256
 2251 01b6 002B     		cmp	r3, #0
 2252 01b8 14BF     		ite	ne
 2253 01ba 0123     		movne	r3, #1
 2254 01bc 0023     		moveq	r3, #0
 2255 01be DBB2     		uxtb	r3, r3
 2256 01c0 1A46     		mov	r2, r3
 2257 01c2 7B68     		ldr	r3, [r7, #4]
 2258 01c4 1A70     		strb	r2, [r3]
ARM GAS  /tmp/ccXEAChk.s 			page 47


 445:bluetooth_rxtx.c **** 		*data_len = 1;
 2259              		.loc 1 445 0
 2260 01c6 3B68     		ldr	r3, [r7]
 2261 01c8 0122     		movs	r2, #1
 2262 01ca 1A60     		str	r2, [r3]
 446:bluetooth_rxtx.c **** 		break;
 2263              		.loc 1 446 0
 2264 01cc 00F07BBC 		b	.L107
 2265              	.L56:
 447:bluetooth_rxtx.c **** 
 448:bluetooth_rxtx.c **** 	case UBERTOOTH_SET_TXLED:
 449:bluetooth_rxtx.c **** 		if (request_params[0])
 2266              		.loc 1 449 0
 2267 01d0 BB68     		ldr	r3, [r7, #8]
 2268 01d2 1B88     		ldrh	r3, [r3]
 2269 01d4 002B     		cmp	r3, #0
 2270 01d6 05D0     		beq	.L112
 450:bluetooth_rxtx.c **** 			TXLED_SET;
 2271              		.loc 1 450 0
 2272 01d8 754B     		ldr	r3, .L151+8
 2273 01da 4FF48072 		mov	r2, #256
 2274 01de 1A60     		str	r2, [r3]
 451:bluetooth_rxtx.c **** 		else
 452:bluetooth_rxtx.c **** 			TXLED_CLR;
 453:bluetooth_rxtx.c **** 		break;
 2275              		.loc 1 453 0
 2276 01e0 00F071BC 		b	.L107
 2277              	.L112:
 452:bluetooth_rxtx.c **** 		break;
 2278              		.loc 1 452 0
 2279 01e4 734B     		ldr	r3, .L151+12
 2280 01e6 4FF48072 		mov	r2, #256
 2281 01ea 1A60     		str	r2, [r3]
 2282              		.loc 1 453 0
 2283 01ec 00F06BBC 		b	.L107
 2284              	.L57:
 454:bluetooth_rxtx.c **** 
 455:bluetooth_rxtx.c **** 	case UBERTOOTH_GET_1V8:
 456:bluetooth_rxtx.c **** 		data[0] = (CC1V8) ? 1 : 0;
 2285              		.loc 1 456 0
 2286 01f0 6E4B     		ldr	r3, .L151+4
 2287 01f2 1B68     		ldr	r3, [r3]
 2288 01f4 03F40073 		and	r3, r3, #512
 2289 01f8 002B     		cmp	r3, #0
 2290 01fa 14BF     		ite	ne
 2291 01fc 0123     		movne	r3, #1
 2292 01fe 0023     		moveq	r3, #0
 2293 0200 DBB2     		uxtb	r3, r3
 2294 0202 1A46     		mov	r2, r3
 2295 0204 7B68     		ldr	r3, [r7, #4]
 2296 0206 1A70     		strb	r2, [r3]
 457:bluetooth_rxtx.c **** 		*data_len = 1;
 2297              		.loc 1 457 0
 2298 0208 3B68     		ldr	r3, [r7]
 2299 020a 0122     		movs	r2, #1
 2300 020c 1A60     		str	r2, [r3]
 458:bluetooth_rxtx.c **** 		break;
ARM GAS  /tmp/ccXEAChk.s 			page 48


 2301              		.loc 1 458 0
 2302 020e 00F05ABC 		b	.L107
 2303              	.L58:
 459:bluetooth_rxtx.c **** 
 460:bluetooth_rxtx.c **** 	case UBERTOOTH_SET_1V8:
 461:bluetooth_rxtx.c **** 		if (request_params[0])
 2304              		.loc 1 461 0
 2305 0212 BB68     		ldr	r3, [r7, #8]
 2306 0214 1B88     		ldrh	r3, [r3]
 2307 0216 002B     		cmp	r3, #0
 2308 0218 05D0     		beq	.L114
 462:bluetooth_rxtx.c **** 			CC1V8_SET;
 2309              		.loc 1 462 0
 2310 021a 654B     		ldr	r3, .L151+8
 2311 021c 4FF40072 		mov	r2, #512
 2312 0220 1A60     		str	r2, [r3]
 463:bluetooth_rxtx.c **** 		else
 464:bluetooth_rxtx.c **** 			CC1V8_CLR;
 465:bluetooth_rxtx.c **** 		break;
 2313              		.loc 1 465 0
 2314 0222 00F050BC 		b	.L107
 2315              	.L114:
 464:bluetooth_rxtx.c **** 		break;
 2316              		.loc 1 464 0
 2317 0226 634B     		ldr	r3, .L151+12
 2318 0228 4FF40072 		mov	r2, #512
 2319 022c 1A60     		str	r2, [r3]
 2320              		.loc 1 465 0
 2321 022e 00F04ABC 		b	.L107
 2322              	.L63:
 466:bluetooth_rxtx.c **** 
 467:bluetooth_rxtx.c **** 	case UBERTOOTH_GET_PARTNUM:
 468:bluetooth_rxtx.c **** 		command[0] = 54; /* read part number */
 2323              		.loc 1 468 0
 2324 0232 3623     		movs	r3, #54
 2325 0234 7B62     		str	r3, [r7, #36]
 469:bluetooth_rxtx.c **** 		iap_entry(command, result);
 2326              		.loc 1 469 0
 2327 0236 604B     		ldr	r3, .L151+16
 2328 0238 1B68     		ldr	r3, [r3]
 2329 023a 07F12401 		add	r1, r7, #36
 2330 023e 07F11002 		add	r2, r7, #16
 2331 0242 0846     		mov	r0, r1
 2332 0244 1146     		mov	r1, r2
 2333 0246 9847     		blx	r3
 470:bluetooth_rxtx.c **** 		data[0] = result[0] & 0xFF; /* status */
 2334              		.loc 1 470 0
 2335 0248 3B69     		ldr	r3, [r7, #16]
 2336 024a DAB2     		uxtb	r2, r3
 2337 024c 7B68     		ldr	r3, [r7, #4]
 2338 024e 1A70     		strb	r2, [r3]
 471:bluetooth_rxtx.c **** 		data[1] = result[1] & 0xFF;
 2339              		.loc 1 471 0
 2340 0250 7B68     		ldr	r3, [r7, #4]
 2341 0252 0133     		adds	r3, r3, #1
 2342 0254 7A69     		ldr	r2, [r7, #20]
 2343 0256 D2B2     		uxtb	r2, r2
ARM GAS  /tmp/ccXEAChk.s 			page 49


 2344 0258 1A70     		strb	r2, [r3]
 472:bluetooth_rxtx.c **** 		data[2] = (result[1] >> 8) & 0xFF;
 2345              		.loc 1 472 0
 2346 025a 7B68     		ldr	r3, [r7, #4]
 2347 025c 0233     		adds	r3, r3, #2
 2348 025e 7A69     		ldr	r2, [r7, #20]
 2349 0260 120A     		lsrs	r2, r2, #8
 2350 0262 D2B2     		uxtb	r2, r2
 2351 0264 1A70     		strb	r2, [r3]
 473:bluetooth_rxtx.c **** 		data[3] = (result[1] >> 16) & 0xFF;
 2352              		.loc 1 473 0
 2353 0266 7B68     		ldr	r3, [r7, #4]
 2354 0268 0333     		adds	r3, r3, #3
 2355 026a 7A69     		ldr	r2, [r7, #20]
 2356 026c 120C     		lsrs	r2, r2, #16
 2357 026e D2B2     		uxtb	r2, r2
 2358 0270 1A70     		strb	r2, [r3]
 474:bluetooth_rxtx.c **** 		data[4] = (result[1] >> 24) & 0xFF;
 2359              		.loc 1 474 0
 2360 0272 7B68     		ldr	r3, [r7, #4]
 2361 0274 0433     		adds	r3, r3, #4
 2362 0276 7A69     		ldr	r2, [r7, #20]
 2363 0278 120E     		lsrs	r2, r2, #24
 2364 027a D2B2     		uxtb	r2, r2
 2365 027c 1A70     		strb	r2, [r3]
 475:bluetooth_rxtx.c **** 		*data_len = 5;
 2366              		.loc 1 475 0
 2367 027e 3B68     		ldr	r3, [r7]
 2368 0280 0522     		movs	r2, #5
 2369 0282 1A60     		str	r2, [r3]
 476:bluetooth_rxtx.c **** 		break;
 2370              		.loc 1 476 0
 2371 0284 00F01FBC 		b	.L107
 2372              	.L61:
 477:bluetooth_rxtx.c **** 
 478:bluetooth_rxtx.c **** 	case UBERTOOTH_RESET:
 479:bluetooth_rxtx.c **** 		requested_mode = MODE_RESET;
 2373              		.loc 1 479 0
 2374 0288 474B     		ldr	r3, .L151
 2375 028a 0B22     		movs	r2, #11
 2376 028c 1A70     		strb	r2, [r3]
 480:bluetooth_rxtx.c **** 		break;
 2377              		.loc 1 480 0
 2378 028e 00F01ABC 		b	.L107
 2379              	.L62:
 481:bluetooth_rxtx.c **** 
 482:bluetooth_rxtx.c **** 	case UBERTOOTH_GET_SERIAL:
 483:bluetooth_rxtx.c **** 		command[0] = 58; /* read device serial number */
 2380              		.loc 1 483 0
 2381 0292 3A23     		movs	r3, #58
 2382 0294 7B62     		str	r3, [r7, #36]
 484:bluetooth_rxtx.c **** 		iap_entry(command, result);
 2383              		.loc 1 484 0
 2384 0296 484B     		ldr	r3, .L151+16
 2385 0298 1B68     		ldr	r3, [r3]
 2386 029a 07F12401 		add	r1, r7, #36
 2387 029e 07F11002 		add	r2, r7, #16
ARM GAS  /tmp/ccXEAChk.s 			page 50


 2388 02a2 0846     		mov	r0, r1
 2389 02a4 1146     		mov	r1, r2
 2390 02a6 9847     		blx	r3
 485:bluetooth_rxtx.c **** 		data[0] = result[0] & 0xFF; /* status */
 2391              		.loc 1 485 0
 2392 02a8 3B69     		ldr	r3, [r7, #16]
 2393 02aa DAB2     		uxtb	r2, r3
 2394 02ac 7B68     		ldr	r3, [r7, #4]
 2395 02ae 1A70     		strb	r2, [r3]
 486:bluetooth_rxtx.c **** 		data[1] = result[1] & 0xFF;
 2396              		.loc 1 486 0
 2397 02b0 7B68     		ldr	r3, [r7, #4]
 2398 02b2 0133     		adds	r3, r3, #1
 2399 02b4 7A69     		ldr	r2, [r7, #20]
 2400 02b6 D2B2     		uxtb	r2, r2
 2401 02b8 1A70     		strb	r2, [r3]
 487:bluetooth_rxtx.c **** 		data[2] = (result[1] >> 8) & 0xFF;
 2402              		.loc 1 487 0
 2403 02ba 7B68     		ldr	r3, [r7, #4]
 2404 02bc 0233     		adds	r3, r3, #2
 2405 02be 7A69     		ldr	r2, [r7, #20]
 2406 02c0 120A     		lsrs	r2, r2, #8
 2407 02c2 D2B2     		uxtb	r2, r2
 2408 02c4 1A70     		strb	r2, [r3]
 488:bluetooth_rxtx.c **** 		data[3] = (result[1] >> 16) & 0xFF;
 2409              		.loc 1 488 0
 2410 02c6 7B68     		ldr	r3, [r7, #4]
 2411 02c8 0333     		adds	r3, r3, #3
 2412 02ca 7A69     		ldr	r2, [r7, #20]
 2413 02cc 120C     		lsrs	r2, r2, #16
 2414 02ce D2B2     		uxtb	r2, r2
 2415 02d0 1A70     		strb	r2, [r3]
 489:bluetooth_rxtx.c **** 		data[4] = (result[1] >> 24) & 0xFF;
 2416              		.loc 1 489 0
 2417 02d2 7B68     		ldr	r3, [r7, #4]
 2418 02d4 0433     		adds	r3, r3, #4
 2419 02d6 7A69     		ldr	r2, [r7, #20]
 2420 02d8 120E     		lsrs	r2, r2, #24
 2421 02da D2B2     		uxtb	r2, r2
 2422 02dc 1A70     		strb	r2, [r3]
 490:bluetooth_rxtx.c **** 		data[5] = result[2] & 0xFF;
 2423              		.loc 1 490 0
 2424 02de 7B68     		ldr	r3, [r7, #4]
 2425 02e0 0533     		adds	r3, r3, #5
 2426 02e2 BA69     		ldr	r2, [r7, #24]
 2427 02e4 D2B2     		uxtb	r2, r2
 2428 02e6 1A70     		strb	r2, [r3]
 491:bluetooth_rxtx.c **** 		data[6] = (result[2] >> 8) & 0xFF;
 2429              		.loc 1 491 0
 2430 02e8 7B68     		ldr	r3, [r7, #4]
 2431 02ea 0633     		adds	r3, r3, #6
 2432 02ec BA69     		ldr	r2, [r7, #24]
 2433 02ee 120A     		lsrs	r2, r2, #8
 2434 02f0 D2B2     		uxtb	r2, r2
 2435 02f2 1A70     		strb	r2, [r3]
 492:bluetooth_rxtx.c **** 		data[7] = (result[2] >> 16) & 0xFF;
 2436              		.loc 1 492 0
ARM GAS  /tmp/ccXEAChk.s 			page 51


 2437 02f4 7B68     		ldr	r3, [r7, #4]
 2438 02f6 0733     		adds	r3, r3, #7
 2439 02f8 BA69     		ldr	r2, [r7, #24]
 2440 02fa 120C     		lsrs	r2, r2, #16
 2441 02fc D2B2     		uxtb	r2, r2
 2442 02fe 1A70     		strb	r2, [r3]
 493:bluetooth_rxtx.c **** 		data[8] = (result[2] >> 24) & 0xFF;
 2443              		.loc 1 493 0
 2444 0300 7B68     		ldr	r3, [r7, #4]
 2445 0302 0833     		adds	r3, r3, #8
 2446 0304 BA69     		ldr	r2, [r7, #24]
 2447 0306 120E     		lsrs	r2, r2, #24
 2448 0308 D2B2     		uxtb	r2, r2
 2449 030a 1A70     		strb	r2, [r3]
 494:bluetooth_rxtx.c **** 		data[9] = result[3] & 0xFF;
 2450              		.loc 1 494 0
 2451 030c 7B68     		ldr	r3, [r7, #4]
 2452 030e 0933     		adds	r3, r3, #9
 2453 0310 FA69     		ldr	r2, [r7, #28]
 2454 0312 D2B2     		uxtb	r2, r2
 2455 0314 1A70     		strb	r2, [r3]
 495:bluetooth_rxtx.c **** 		data[10] = (result[3] >> 8) & 0xFF;
 2456              		.loc 1 495 0
 2457 0316 7B68     		ldr	r3, [r7, #4]
 2458 0318 0A33     		adds	r3, r3, #10
 2459 031a FA69     		ldr	r2, [r7, #28]
 2460 031c 120A     		lsrs	r2, r2, #8
 2461 031e D2B2     		uxtb	r2, r2
 2462 0320 1A70     		strb	r2, [r3]
 496:bluetooth_rxtx.c **** 		data[11] = (result[3] >> 16) & 0xFF;
 2463              		.loc 1 496 0
 2464 0322 7B68     		ldr	r3, [r7, #4]
 2465 0324 0B33     		adds	r3, r3, #11
 2466 0326 FA69     		ldr	r2, [r7, #28]
 2467 0328 120C     		lsrs	r2, r2, #16
 2468 032a D2B2     		uxtb	r2, r2
 2469 032c 1A70     		strb	r2, [r3]
 497:bluetooth_rxtx.c **** 		data[12] = (result[3] >> 24) & 0xFF;
 2470              		.loc 1 497 0
 2471 032e 7B68     		ldr	r3, [r7, #4]
 2472 0330 0C33     		adds	r3, r3, #12
 2473 0332 FA69     		ldr	r2, [r7, #28]
 2474 0334 120E     		lsrs	r2, r2, #24
 2475 0336 D2B2     		uxtb	r2, r2
 2476 0338 1A70     		strb	r2, [r3]
 498:bluetooth_rxtx.c **** 		data[13] = result[4] & 0xFF;
 2477              		.loc 1 498 0
 2478 033a 7B68     		ldr	r3, [r7, #4]
 2479 033c 0D33     		adds	r3, r3, #13
 2480 033e 3A6A     		ldr	r2, [r7, #32]
 2481 0340 D2B2     		uxtb	r2, r2
 2482 0342 1A70     		strb	r2, [r3]
 499:bluetooth_rxtx.c **** 		data[14] = (result[4] >> 8) & 0xFF;
 2483              		.loc 1 499 0
 2484 0344 7B68     		ldr	r3, [r7, #4]
 2485 0346 0E33     		adds	r3, r3, #14
 2486 0348 3A6A     		ldr	r2, [r7, #32]
ARM GAS  /tmp/ccXEAChk.s 			page 52


 2487 034a 120A     		lsrs	r2, r2, #8
 2488 034c D2B2     		uxtb	r2, r2
 2489 034e 1A70     		strb	r2, [r3]
 500:bluetooth_rxtx.c **** 		data[15] = (result[4] >> 16) & 0xFF;
 2490              		.loc 1 500 0
 2491 0350 7B68     		ldr	r3, [r7, #4]
 2492 0352 0F33     		adds	r3, r3, #15
 2493 0354 3A6A     		ldr	r2, [r7, #32]
 2494 0356 120C     		lsrs	r2, r2, #16
 2495 0358 D2B2     		uxtb	r2, r2
 2496 035a 1A70     		strb	r2, [r3]
 501:bluetooth_rxtx.c **** 		data[16] = (result[4] >> 24) & 0xFF;
 2497              		.loc 1 501 0
 2498 035c 7B68     		ldr	r3, [r7, #4]
 2499 035e 1033     		adds	r3, r3, #16
 2500 0360 3A6A     		ldr	r2, [r7, #32]
 2501 0362 120E     		lsrs	r2, r2, #24
 2502 0364 D2B2     		uxtb	r2, r2
 2503 0366 1A70     		strb	r2, [r3]
 502:bluetooth_rxtx.c **** 		*data_len = 17;
 2504              		.loc 1 502 0
 2505 0368 3B68     		ldr	r3, [r7]
 2506 036a 1122     		movs	r2, #17
 2507 036c 1A60     		str	r2, [r3]
 503:bluetooth_rxtx.c **** 		break;
 2508              		.loc 1 503 0
 2509 036e AAE3     		b	.L107
 2510              	.L64:
 504:bluetooth_rxtx.c **** 
 505:bluetooth_rxtx.c **** #ifdef UBERTOOTH_ONE
 506:bluetooth_rxtx.c **** 	case UBERTOOTH_GET_PAEN:
 507:bluetooth_rxtx.c **** 		data[0] = (PAEN) ? 1 : 0;
 2511              		.loc 1 507 0
 2512 0370 124B     		ldr	r3, .L151+20
 2513 0372 1B68     		ldr	r3, [r3]
 2514 0374 03F08003 		and	r3, r3, #128
 2515 0378 002B     		cmp	r3, #0
 2516 037a 14BF     		ite	ne
 2517 037c 0123     		movne	r3, #1
 2518 037e 0023     		moveq	r3, #0
 2519 0380 DBB2     		uxtb	r3, r3
 2520 0382 1A46     		mov	r2, r3
 2521 0384 7B68     		ldr	r3, [r7, #4]
 2522 0386 1A70     		strb	r2, [r3]
 508:bluetooth_rxtx.c **** 		*data_len = 1;
 2523              		.loc 1 508 0
 2524 0388 3B68     		ldr	r3, [r7]
 2525 038a 0122     		movs	r2, #1
 2526 038c 1A60     		str	r2, [r3]
 509:bluetooth_rxtx.c **** 		break;
 2527              		.loc 1 509 0
 2528 038e 9AE3     		b	.L107
 2529              	.L65:
 510:bluetooth_rxtx.c **** 
 511:bluetooth_rxtx.c **** 	case UBERTOOTH_SET_PAEN:
 512:bluetooth_rxtx.c **** 		if (request_params[0])
 2530              		.loc 1 512 0
ARM GAS  /tmp/ccXEAChk.s 			page 53


 2531 0390 BB68     		ldr	r3, [r7, #8]
 2532 0392 1B88     		ldrh	r3, [r3]
 2533 0394 002B     		cmp	r3, #0
 2534 0396 03D0     		beq	.L116
 513:bluetooth_rxtx.c **** 			PAEN_SET;
 2535              		.loc 1 513 0
 2536 0398 094B     		ldr	r3, .L151+24
 2537 039a 8022     		movs	r2, #128
 2538 039c 1A60     		str	r2, [r3]
 514:bluetooth_rxtx.c **** 		else
 515:bluetooth_rxtx.c **** 			PAEN_CLR;
 516:bluetooth_rxtx.c **** 		break;
 2539              		.loc 1 516 0
 2540 039e 92E3     		b	.L107
 2541              	.L116:
 515:bluetooth_rxtx.c **** 		break;
 2542              		.loc 1 515 0
 2543 03a0 084B     		ldr	r3, .L151+28
 2544 03a2 8022     		movs	r2, #128
 2545 03a4 1A60     		str	r2, [r3]
 2546              		.loc 1 516 0
 2547 03a6 8EE3     		b	.L107
 2548              	.L152:
 2549              		.align	2
 2550              	.L151:
 2551 03a8 00000000 		.word	requested_mode
 2552 03ac 34C00920 		.word	537509940
 2553 03b0 38C00920 		.word	537509944
 2554 03b4 3CC00920 		.word	537509948
 2555 03b8 00000000 		.word	iap_entry
 2556 03bc 54C00920 		.word	537509972
 2557 03c0 58C00920 		.word	537509976
 2558 03c4 5CC00920 		.word	537509980
 2559              	.L66:
 517:bluetooth_rxtx.c **** 
 518:bluetooth_rxtx.c **** 	case UBERTOOTH_GET_HGM:
 519:bluetooth_rxtx.c **** 		data[0] = (HGM) ? 1 : 0;
 2560              		.loc 1 519 0
 2561 03c8 924B     		ldr	r3, .L153
 2562 03ca 1B68     		ldr	r3, [r3]
 2563 03cc 03F48073 		and	r3, r3, #256
 2564 03d0 002B     		cmp	r3, #0
 2565 03d2 14BF     		ite	ne
 2566 03d4 0123     		movne	r3, #1
 2567 03d6 0023     		moveq	r3, #0
 2568 03d8 DBB2     		uxtb	r3, r3
 2569 03da 1A46     		mov	r2, r3
 2570 03dc 7B68     		ldr	r3, [r7, #4]
 2571 03de 1A70     		strb	r2, [r3]
 520:bluetooth_rxtx.c **** 		*data_len = 1;
 2572              		.loc 1 520 0
 2573 03e0 3B68     		ldr	r3, [r7]
 2574 03e2 0122     		movs	r2, #1
 2575 03e4 1A60     		str	r2, [r3]
 521:bluetooth_rxtx.c **** 		break;
 2576              		.loc 1 521 0
 2577 03e6 6EE3     		b	.L107
ARM GAS  /tmp/ccXEAChk.s 			page 54


 2578              	.L67:
 522:bluetooth_rxtx.c **** 
 523:bluetooth_rxtx.c **** 	case UBERTOOTH_SET_HGM:
 524:bluetooth_rxtx.c **** 		if (request_params[0])
 2579              		.loc 1 524 0
 2580 03e8 BB68     		ldr	r3, [r7, #8]
 2581 03ea 1B88     		ldrh	r3, [r3]
 2582 03ec 002B     		cmp	r3, #0
 2583 03ee 04D0     		beq	.L118
 525:bluetooth_rxtx.c **** 			HGM_SET;
 2584              		.loc 1 525 0
 2585 03f0 894B     		ldr	r3, .L153+4
 2586 03f2 4FF48072 		mov	r2, #256
 2587 03f6 1A60     		str	r2, [r3]
 526:bluetooth_rxtx.c **** 		else
 527:bluetooth_rxtx.c **** 			HGM_CLR;
 528:bluetooth_rxtx.c **** 		break;
 2588              		.loc 1 528 0
 2589 03f8 65E3     		b	.L107
 2590              	.L118:
 527:bluetooth_rxtx.c **** 		break;
 2591              		.loc 1 527 0
 2592 03fa 884B     		ldr	r3, .L153+8
 2593 03fc 4FF48072 		mov	r2, #256
 2594 0400 1A60     		str	r2, [r3]
 2595              		.loc 1 528 0
 2596 0402 60E3     		b	.L107
 2597              	.L68:
 529:bluetooth_rxtx.c **** #endif
 530:bluetooth_rxtx.c **** 
 531:bluetooth_rxtx.c **** #ifdef TX_ENABLE
 532:bluetooth_rxtx.c **** 	case UBERTOOTH_TX_TEST:
 533:bluetooth_rxtx.c **** 		requested_mode = MODE_TX_TEST;
 2598              		.loc 1 533 0
 2599 0404 864B     		ldr	r3, .L153+12
 2600 0406 0322     		movs	r2, #3
 2601 0408 1A70     		strb	r2, [r3]
 534:bluetooth_rxtx.c **** 		break;
 2602              		.loc 1 534 0
 2603 040a 5CE3     		b	.L107
 2604              	.L75:
 535:bluetooth_rxtx.c **** 
 536:bluetooth_rxtx.c **** 	case UBERTOOTH_GET_PALEVEL:
 537:bluetooth_rxtx.c **** 		data[0] = cc2400_get(FREND) & 0x7;
 2605              		.loc 1 537 0
 2606 040c 0520     		movs	r0, #5
 2607 040e FFF7FEFF 		bl	cc2400_get
 2608 0412 0346     		mov	r3, r0
 2609 0414 DBB2     		uxtb	r3, r3
 2610 0416 03F00703 		and	r3, r3, #7
 2611 041a DAB2     		uxtb	r2, r3
 2612 041c 7B68     		ldr	r3, [r7, #4]
 2613 041e 1A70     		strb	r2, [r3]
 538:bluetooth_rxtx.c **** 		*data_len = 1;
 2614              		.loc 1 538 0
 2615 0420 3B68     		ldr	r3, [r7]
 2616 0422 0122     		movs	r2, #1
ARM GAS  /tmp/ccXEAChk.s 			page 55


 2617 0424 1A60     		str	r2, [r3]
 539:bluetooth_rxtx.c **** 		break;
 2618              		.loc 1 539 0
 2619 0426 4EE3     		b	.L107
 2620              	.L76:
 540:bluetooth_rxtx.c **** 
 541:bluetooth_rxtx.c **** 	case UBERTOOTH_SET_PALEVEL:
 542:bluetooth_rxtx.c **** 		if( request_params[0] < 8 ) {
 2621              		.loc 1 542 0
 2622 0428 BB68     		ldr	r3, [r7, #8]
 2623 042a 1B88     		ldrh	r3, [r3]
 2624 042c 072B     		cmp	r3, #7
 2625 042e 09D8     		bhi	.L120
 543:bluetooth_rxtx.c **** 			cc2400_set(FREND, 8 | request_params[0]);
 2626              		.loc 1 543 0
 2627 0430 BB68     		ldr	r3, [r7, #8]
 2628 0432 1B88     		ldrh	r3, [r3]
 2629 0434 43F00803 		orr	r3, r3, #8
 2630 0438 9BB2     		uxth	r3, r3
 2631 043a 0520     		movs	r0, #5
 2632 043c 1946     		mov	r1, r3
 2633 043e FFF7FEFF 		bl	cc2400_set
 544:bluetooth_rxtx.c **** 		} else {
 545:bluetooth_rxtx.c **** 			return 0;
 546:bluetooth_rxtx.c **** 		}
 547:bluetooth_rxtx.c **** 		break;
 2634              		.loc 1 547 0
 2635 0442 40E3     		b	.L107
 2636              	.L120:
 545:bluetooth_rxtx.c **** 		}
 2637              		.loc 1 545 0
 2638 0444 0023     		movs	r3, #0
 2639 0446 3FE3     		b	.L149
 2640              	.L78:
 548:bluetooth_rxtx.c **** 
 549:bluetooth_rxtx.c **** 	case UBERTOOTH_RANGE_TEST:
 550:bluetooth_rxtx.c **** 		requested_mode = MODE_RANGE_TEST;
 2641              		.loc 1 550 0
 2642 0448 754B     		ldr	r3, .L153+12
 2643 044a 0522     		movs	r2, #5
 2644 044c 1A70     		strb	r2, [r3]
 551:bluetooth_rxtx.c **** 		break;
 2645              		.loc 1 551 0
 2646 044e 3AE3     		b	.L107
 2647              	.L77:
 552:bluetooth_rxtx.c **** 
 553:bluetooth_rxtx.c **** 	case UBERTOOTH_REPEATER:
 554:bluetooth_rxtx.c **** 		requested_mode = MODE_REPEATER;
 2648              		.loc 1 554 0
 2649 0450 734B     		ldr	r3, .L153+12
 2650 0452 0622     		movs	r2, #6
 2651 0454 1A70     		strb	r2, [r3]
 555:bluetooth_rxtx.c **** 		break;
 2652              		.loc 1 555 0
 2653 0456 36E3     		b	.L107
 2654              	.L79:
 556:bluetooth_rxtx.c **** #endif
ARM GAS  /tmp/ccXEAChk.s 			page 56


 557:bluetooth_rxtx.c **** 
 558:bluetooth_rxtx.c **** 	case UBERTOOTH_RANGE_CHECK:
 559:bluetooth_rxtx.c **** 		data[0] = rr.valid;
 2655              		.loc 1 559 0
 2656 0458 724B     		ldr	r3, .L153+16
 2657 045a 1A78     		ldrb	r2, [r3]	@ zero_extendqisi2
 2658 045c 7B68     		ldr	r3, [r7, #4]
 2659 045e 1A70     		strb	r2, [r3]
 560:bluetooth_rxtx.c **** 		data[1] = rr.request_pa;
 2660              		.loc 1 560 0
 2661 0460 7B68     		ldr	r3, [r7, #4]
 2662 0462 0133     		adds	r3, r3, #1
 2663 0464 6F4A     		ldr	r2, .L153+16
 2664 0466 5278     		ldrb	r2, [r2, #1]	@ zero_extendqisi2
 2665 0468 1A70     		strb	r2, [r3]
 561:bluetooth_rxtx.c **** 		data[2] = rr.request_num;
 2666              		.loc 1 561 0
 2667 046a 7B68     		ldr	r3, [r7, #4]
 2668 046c 0233     		adds	r3, r3, #2
 2669 046e 6D4A     		ldr	r2, .L153+16
 2670 0470 9278     		ldrb	r2, [r2, #2]	@ zero_extendqisi2
 2671 0472 1A70     		strb	r2, [r3]
 562:bluetooth_rxtx.c **** 		data[3] = rr.reply_pa;
 2672              		.loc 1 562 0
 2673 0474 7B68     		ldr	r3, [r7, #4]
 2674 0476 0333     		adds	r3, r3, #3
 2675 0478 6A4A     		ldr	r2, .L153+16
 2676 047a D278     		ldrb	r2, [r2, #3]	@ zero_extendqisi2
 2677 047c 1A70     		strb	r2, [r3]
 563:bluetooth_rxtx.c **** 		data[4] = rr.reply_num;
 2678              		.loc 1 563 0
 2679 047e 7B68     		ldr	r3, [r7, #4]
 2680 0480 0433     		adds	r3, r3, #4
 2681 0482 684A     		ldr	r2, .L153+16
 2682 0484 1279     		ldrb	r2, [r2, #4]	@ zero_extendqisi2
 2683 0486 1A70     		strb	r2, [r3]
 564:bluetooth_rxtx.c **** 		*data_len = 5;
 2684              		.loc 1 564 0
 2685 0488 3B68     		ldr	r3, [r7]
 2686 048a 0522     		movs	r2, #5
 2687 048c 1A60     		str	r2, [r3]
 565:bluetooth_rxtx.c **** 		break;
 2688              		.loc 1 565 0
 2689 048e 1AE3     		b	.L107
 2690              	.L69:
 566:bluetooth_rxtx.c **** 
 567:bluetooth_rxtx.c **** 	case UBERTOOTH_STOP:
 568:bluetooth_rxtx.c **** 		requested_mode = MODE_IDLE;
 2691              		.loc 1 568 0
 2692 0490 634B     		ldr	r3, .L153+12
 2693 0492 0022     		movs	r2, #0
 2694 0494 1A70     		strb	r2, [r3]
 569:bluetooth_rxtx.c **** 		break;
 2695              		.loc 1 569 0
 2696 0496 16E3     		b	.L107
 2697              	.L70:
 570:bluetooth_rxtx.c **** 
ARM GAS  /tmp/ccXEAChk.s 			page 57


 571:bluetooth_rxtx.c **** 	case UBERTOOTH_GET_MOD:
 572:bluetooth_rxtx.c **** 		data[0] = modulation;
 2698              		.loc 1 572 0
 2699 0498 634B     		ldr	r3, .L153+20
 2700 049a 1B78     		ldrb	r3, [r3]
 2701 049c DAB2     		uxtb	r2, r3
 2702 049e 7B68     		ldr	r3, [r7, #4]
 2703 04a0 1A70     		strb	r2, [r3]
 573:bluetooth_rxtx.c **** 		*data_len = 1;
 2704              		.loc 1 573 0
 2705 04a2 3B68     		ldr	r3, [r7]
 2706 04a4 0122     		movs	r2, #1
 2707 04a6 1A60     		str	r2, [r3]
 574:bluetooth_rxtx.c **** 		break;
 2708              		.loc 1 574 0
 2709 04a8 0DE3     		b	.L107
 2710              	.L71:
 575:bluetooth_rxtx.c **** 
 576:bluetooth_rxtx.c **** 	case UBERTOOTH_SET_MOD:
 577:bluetooth_rxtx.c **** 		modulation = request_params[0];
 2711              		.loc 1 577 0
 2712 04aa BB68     		ldr	r3, [r7, #8]
 2713 04ac 1B88     		ldrh	r3, [r3]
 2714 04ae DAB2     		uxtb	r2, r3
 2715 04b0 5D4B     		ldr	r3, .L153+20
 2716 04b2 1A70     		strb	r2, [r3]
 578:bluetooth_rxtx.c **** 		break;
 2717              		.loc 1 578 0
 2718 04b4 07E3     		b	.L107
 2719              	.L59:
 579:bluetooth_rxtx.c **** 
 580:bluetooth_rxtx.c **** 	case UBERTOOTH_GET_CHANNEL:
 581:bluetooth_rxtx.c **** 		data[0] = channel & 0xFF;
 2720              		.loc 1 581 0
 2721 04b6 5D4B     		ldr	r3, .L153+24
 2722 04b8 1B88     		ldrh	r3, [r3]	@ movhi
 2723 04ba 9BB2     		uxth	r3, r3
 2724 04bc DAB2     		uxtb	r2, r3
 2725 04be 7B68     		ldr	r3, [r7, #4]
 2726 04c0 1A70     		strb	r2, [r3]
 582:bluetooth_rxtx.c **** 		data[1] = (channel >> 8) & 0xFF;
 2727              		.loc 1 582 0
 2728 04c2 7B68     		ldr	r3, [r7, #4]
 2729 04c4 0133     		adds	r3, r3, #1
 2730 04c6 594A     		ldr	r2, .L153+24
 2731 04c8 1288     		ldrh	r2, [r2]	@ movhi
 2732 04ca 92B2     		uxth	r2, r2
 2733 04cc 120A     		lsrs	r2, r2, #8
 2734 04ce 92B2     		uxth	r2, r2
 2735 04d0 D2B2     		uxtb	r2, r2
 2736 04d2 1A70     		strb	r2, [r3]
 583:bluetooth_rxtx.c **** 		*data_len = 2;
 2737              		.loc 1 583 0
 2738 04d4 3B68     		ldr	r3, [r7]
 2739 04d6 0222     		movs	r2, #2
 2740 04d8 1A60     		str	r2, [r3]
 584:bluetooth_rxtx.c **** 		break;
ARM GAS  /tmp/ccXEAChk.s 			page 58


 2741              		.loc 1 584 0
 2742 04da F4E2     		b	.L107
 2743              	.L60:
 585:bluetooth_rxtx.c **** 
 586:bluetooth_rxtx.c **** 	case UBERTOOTH_SET_CHANNEL:
 587:bluetooth_rxtx.c **** 		requested_channel = request_params[0];
 2744              		.loc 1 587 0
 2745 04dc BB68     		ldr	r3, [r7, #8]
 2746 04de 1A88     		ldrh	r2, [r3]
 2747 04e0 534B     		ldr	r3, .L153+28
 2748 04e2 1A80     		strh	r2, [r3]	@ movhi
 588:bluetooth_rxtx.c **** 		/* bluetooth band sweep mode, start at channel 2402 */
 589:bluetooth_rxtx.c **** 		if (requested_channel > MAX_FREQ) {
 2749              		.loc 1 589 0
 2750 04e4 524B     		ldr	r3, .L153+28
 2751 04e6 1B88     		ldrh	r3, [r3]	@ movhi
 2752 04e8 9BB2     		uxth	r3, r3
 2753 04ea 40F6EA22 		movw	r2, #2794
 2754 04ee 9342     		cmp	r3, r2
 2755 04f0 07D9     		bls	.L123
 590:bluetooth_rxtx.c **** 			hop_mode = HOP_SWEEP;
 2756              		.loc 1 590 0
 2757 04f2 504B     		ldr	r3, .L153+32
 2758 04f4 0122     		movs	r2, #1
 2759 04f6 1A70     		strb	r2, [r3]
 591:bluetooth_rxtx.c **** 			requested_channel = 2402;
 2760              		.loc 1 591 0
 2761 04f8 4D4B     		ldr	r3, .L153+28
 2762 04fa 40F66212 		movw	r2, #2402
 2763 04fe 1A80     		strh	r2, [r3]	@ movhi
 2764 0500 20E0     		b	.L124
 2765              	.L123:
 592:bluetooth_rxtx.c **** 		}
 593:bluetooth_rxtx.c **** 		/* fixed channel mode, can be outside bluetooth band */
 594:bluetooth_rxtx.c **** 		else {
 595:bluetooth_rxtx.c **** 			hop_mode = HOP_NONE;
 2766              		.loc 1 595 0
 2767 0502 4C4B     		ldr	r3, .L153+32
 2768 0504 0022     		movs	r2, #0
 2769 0506 1A70     		strb	r2, [r3]
 596:bluetooth_rxtx.c **** 			requested_channel = MAX(requested_channel, MIN_FREQ);
 2770              		.loc 1 596 0
 2771 0508 494B     		ldr	r3, .L153+28
 2772 050a 1B88     		ldrh	r3, [r3]	@ movhi
 2773 050c 9BB2     		uxth	r3, r3
 2774 050e 40F6DC02 		movw	r2, #2268
 2775 0512 9342     		cmp	r3, r2
 2776 0514 03D9     		bls	.L125
 2777              		.loc 1 596 0 is_stmt 0 discriminator 1
 2778 0516 464B     		ldr	r3, .L153+28
 2779 0518 1B88     		ldrh	r3, [r3]	@ movhi
 2780 051a 9BB2     		uxth	r3, r3
 2781 051c 01E0     		b	.L126
 2782              	.L125:
 2783              		.loc 1 596 0 discriminator 2
 2784 051e 40F6DC03 		movw	r3, #2268
 2785              	.L126:
ARM GAS  /tmp/ccXEAChk.s 			page 59


 2786              		.loc 1 596 0 discriminator 4
 2787 0522 434A     		ldr	r2, .L153+28
 2788 0524 1380     		strh	r3, [r2]	@ movhi
 597:bluetooth_rxtx.c **** 			requested_channel = MIN(requested_channel, MAX_FREQ);
 2789              		.loc 1 597 0 is_stmt 1 discriminator 4
 2790 0526 424B     		ldr	r3, .L153+28
 2791 0528 1B88     		ldrh	r3, [r3]	@ movhi
 2792 052a 9BB2     		uxth	r3, r3
 2793 052c 40F6E922 		movw	r2, #2793
 2794 0530 9342     		cmp	r3, r2
 2795 0532 03D8     		bhi	.L127
 2796              		.loc 1 597 0 is_stmt 0 discriminator 1
 2797 0534 3E4B     		ldr	r3, .L153+28
 2798 0536 1B88     		ldrh	r3, [r3]	@ movhi
 2799 0538 9BB2     		uxth	r3, r3
 2800 053a 01E0     		b	.L128
 2801              	.L127:
 2802              		.loc 1 597 0 discriminator 2
 2803 053c 40F6EA23 		movw	r3, #2794
 2804              	.L128:
 2805              		.loc 1 597 0 discriminator 4
 2806 0540 3B4A     		ldr	r2, .L153+28
 2807 0542 1380     		strh	r3, [r2]	@ movhi
 2808              	.L124:
 598:bluetooth_rxtx.c **** 		}
 599:bluetooth_rxtx.c **** 
 600:bluetooth_rxtx.c **** 		if (mode != MODE_BT_FOLLOW_LE) {
 2809              		.loc 1 600 0 is_stmt 1
 2810 0544 3C4B     		ldr	r3, .L153+36
 2811 0546 1B78     		ldrb	r3, [r3]
 2812 0548 DBB2     		uxtb	r3, r3
 2813 054a 092B     		cmp	r3, #9
 2814 054c 0AD0     		beq	.L129
 601:bluetooth_rxtx.c **** 			channel = requested_channel;
 2815              		.loc 1 601 0
 2816 054e 384B     		ldr	r3, .L153+28
 2817 0550 1B88     		ldrh	r3, [r3]	@ movhi
 2818 0552 9AB2     		uxth	r2, r3
 2819 0554 354B     		ldr	r3, .L153+24
 2820 0556 1A80     		strh	r2, [r3]	@ movhi
 602:bluetooth_rxtx.c **** 			requested_channel = 0;
 2821              		.loc 1 602 0
 2822 0558 354B     		ldr	r3, .L153+28
 2823 055a 0022     		movs	r2, #0
 2824 055c 1A80     		strh	r2, [r3]	@ movhi
 603:bluetooth_rxtx.c **** 
 604:bluetooth_rxtx.c **** 			/* CS threshold is mode-dependent. Update it after
 605:bluetooth_rxtx.c **** 			 * possible mode change. TODO - kludgy. */
 606:bluetooth_rxtx.c **** 			cs_threshold_calc_and_set();
 2825              		.loc 1 606 0
 2826 055e FFF7FEFF 		bl	cs_threshold_calc_and_set
 607:bluetooth_rxtx.c **** 		}
 608:bluetooth_rxtx.c **** 		break;
 2827              		.loc 1 608 0
 2828 0562 B0E2     		b	.L107
 2829              	.L129:
 2830 0564 AFE2     		b	.L107
ARM GAS  /tmp/ccXEAChk.s 			page 60


 2831              	.L72:
 609:bluetooth_rxtx.c **** 
 610:bluetooth_rxtx.c **** 	case UBERTOOTH_SET_ISP:
 611:bluetooth_rxtx.c **** 		command[0] = 57;
 2832              		.loc 1 611 0
 2833 0566 3923     		movs	r3, #57
 2834 0568 7B62     		str	r3, [r7, #36]
 612:bluetooth_rxtx.c **** 		iap_entry(command, result);
 2835              		.loc 1 612 0
 2836 056a 344B     		ldr	r3, .L153+40
 2837 056c 1B68     		ldr	r3, [r3]
 2838 056e 07F12401 		add	r1, r7, #36
 2839 0572 07F11002 		add	r2, r7, #16
 2840 0576 0846     		mov	r0, r1
 2841 0578 1146     		mov	r1, r2
 2842 057a 9847     		blx	r3
 613:bluetooth_rxtx.c **** 		*data_len = 0; /* should never return */
 2843              		.loc 1 613 0
 2844 057c 3B68     		ldr	r3, [r7]
 2845 057e 0022     		movs	r2, #0
 2846 0580 1A60     		str	r2, [r3]
 614:bluetooth_rxtx.c **** 		break;
 2847              		.loc 1 614 0
 2848 0582 A0E2     		b	.L107
 2849              	.L73:
 615:bluetooth_rxtx.c **** 
 616:bluetooth_rxtx.c **** 	case UBERTOOTH_FLASH:
 617:bluetooth_rxtx.c **** 		bootloader_ctrl = DFU_MODE;
 2850              		.loc 1 617 0
 2851 0584 2E4B     		ldr	r3, .L153+44
 2852 0586 2F4A     		ldr	r2, .L153+48
 2853 0588 1A60     		str	r2, [r3]
 618:bluetooth_rxtx.c **** 		reset();
 2854              		.loc 1 618 0
 2855 058a FFF7FEFF 		bl	reset
 619:bluetooth_rxtx.c **** 		break;
 2856              		.loc 1 619 0
 2857 058e 9AE2     		b	.L107
 2858              	.L74:
 620:bluetooth_rxtx.c **** 
 621:bluetooth_rxtx.c **** 	case UBERTOOTH_SPECAN:
 622:bluetooth_rxtx.c **** 		if (request_params[0] < 2049 || request_params[0] > 3072 || 
 2859              		.loc 1 622 0
 2860 0590 BB68     		ldr	r3, [r7, #8]
 2861 0592 1B88     		ldrh	r3, [r3]
 2862 0594 B3F5006F 		cmp	r3, #2048
 2863 0598 17D9     		bls	.L130
 2864              		.loc 1 622 0 is_stmt 0 discriminator 1
 2865 059a BB68     		ldr	r3, [r7, #8]
 2866 059c 1B88     		ldrh	r3, [r3]
 2867 059e B3F5406F 		cmp	r3, #3072
 2868 05a2 12D8     		bhi	.L130
 623:bluetooth_rxtx.c **** 				request_params[1] < 2049 || request_params[1] > 3072 ||
 2869              		.loc 1 623 0 is_stmt 1 discriminator 2
 2870 05a4 BB68     		ldr	r3, [r7, #8]
 2871 05a6 0233     		adds	r3, r3, #2
 2872 05a8 1B88     		ldrh	r3, [r3]
ARM GAS  /tmp/ccXEAChk.s 			page 61


 622:bluetooth_rxtx.c **** 				request_params[1] < 2049 || request_params[1] > 3072 ||
 2873              		.loc 1 622 0 discriminator 2
 2874 05aa B3F5006F 		cmp	r3, #2048
 2875 05ae 0CD9     		bls	.L130
 2876              		.loc 1 623 0
 2877 05b0 BB68     		ldr	r3, [r7, #8]
 2878 05b2 0233     		adds	r3, r3, #2
 2879 05b4 1B88     		ldrh	r3, [r3]
 2880 05b6 B3F5406F 		cmp	r3, #3072
 2881 05ba 06D8     		bhi	.L130
 624:bluetooth_rxtx.c **** 				request_params[1] < request_params[0])
 2882              		.loc 1 624 0 discriminator 1
 2883 05bc BB68     		ldr	r3, [r7, #8]
 2884 05be 0233     		adds	r3, r3, #2
 2885 05c0 1A88     		ldrh	r2, [r3]
 2886 05c2 BB68     		ldr	r3, [r7, #8]
 2887 05c4 1B88     		ldrh	r3, [r3]
 623:bluetooth_rxtx.c **** 				request_params[1] < 2049 || request_params[1] > 3072 ||
 2888              		.loc 1 623 0 discriminator 1
 2889 05c6 9A42     		cmp	r2, r3
 2890 05c8 01D2     		bcs	.L131
 2891              	.L130:
 625:bluetooth_rxtx.c **** 			return 0;
 2892              		.loc 1 625 0
 2893 05ca 0023     		movs	r3, #0
 2894 05cc 7CE2     		b	.L149
 2895              	.L131:
 626:bluetooth_rxtx.c **** 		low_freq = request_params[0];
 2896              		.loc 1 626 0
 2897 05ce BB68     		ldr	r3, [r7, #8]
 2898 05d0 1A88     		ldrh	r2, [r3]
 2899 05d2 1D4B     		ldr	r3, .L153+52
 2900 05d4 1A80     		strh	r2, [r3]	@ movhi
 627:bluetooth_rxtx.c **** 		high_freq = request_params[1];
 2901              		.loc 1 627 0
 2902 05d6 BB68     		ldr	r3, [r7, #8]
 2903 05d8 5A88     		ldrh	r2, [r3, #2]
 2904 05da 1C4B     		ldr	r3, .L153+56
 2905 05dc 1A80     		strh	r2, [r3]	@ movhi
 628:bluetooth_rxtx.c **** 		requested_mode = MODE_SPECAN;
 2906              		.loc 1 628 0
 2907 05de 104B     		ldr	r3, .L153+12
 2908 05e0 0422     		movs	r2, #4
 2909 05e2 1A70     		strb	r2, [r3]
 629:bluetooth_rxtx.c **** 		*data_len = 0;
 2910              		.loc 1 629 0
 2911 05e4 3B68     		ldr	r3, [r7]
 2912 05e6 0022     		movs	r2, #0
 2913 05e8 1A60     		str	r2, [r3]
 630:bluetooth_rxtx.c **** 		break;
 2914              		.loc 1 630 0
 2915 05ea 6CE2     		b	.L107
 2916              	.L81:
 631:bluetooth_rxtx.c **** 
 632:bluetooth_rxtx.c **** 	case UBERTOOTH_LED_SPECAN:
 633:bluetooth_rxtx.c **** 		if (request_params[0] > 256)
 2917              		.loc 1 633 0
ARM GAS  /tmp/ccXEAChk.s 			page 62


 2918 05ec BB68     		ldr	r3, [r7, #8]
 2919 05ee 1B88     		ldrh	r3, [r3]
 2920 05f0 B3F5807F 		cmp	r3, #256
 2921 05f4 01D9     		bls	.L132
 634:bluetooth_rxtx.c **** 			return 0;
 2922              		.loc 1 634 0
 2923 05f6 0023     		movs	r3, #0
 2924 05f8 66E2     		b	.L149
 2925              	.L132:
 635:bluetooth_rxtx.c **** 		rssi_threshold = (int8_t)request_params[0];
 2926              		.loc 1 635 0
 2927 05fa BB68     		ldr	r3, [r7, #8]
 2928 05fc 1B88     		ldrh	r3, [r3]
 2929 05fe DAB2     		uxtb	r2, r3
 2930 0600 134B     		ldr	r3, .L153+60
 2931 0602 1A70     		strb	r2, [r3]
 636:bluetooth_rxtx.c **** 		requested_mode = MODE_LED_SPECAN;
 2932              		.loc 1 636 0
 2933 0604 064B     		ldr	r3, .L153+12
 2934 0606 0722     		movs	r2, #7
 2935 0608 1A70     		strb	r2, [r3]
 637:bluetooth_rxtx.c **** 		*data_len = 0;
 2936              		.loc 1 637 0
 2937 060a 3B68     		ldr	r3, [r7]
 2938 060c 0022     		movs	r2, #0
 2939 060e 1A60     		str	r2, [r3]
 638:bluetooth_rxtx.c **** 		break;
 2940              		.loc 1 638 0
 2941 0610 59E2     		b	.L107
 2942              	.L154:
 2943 0612 00BF     		.align	2
 2944              	.L153:
 2945 0614 54C00920 		.word	537509972
 2946 0618 58C00920 		.word	537509976
 2947 061c 5CC00920 		.word	537509980
 2948 0620 00000000 		.word	requested_mode
 2949 0624 00000000 		.word	rr
 2950 0628 00000000 		.word	modulation
 2951 062c 00000000 		.word	channel
 2952 0630 00000000 		.word	requested_channel
 2953 0634 00000000 		.word	hop_mode
 2954 0638 00000000 		.word	mode
 2955 063c 00000000 		.word	iap_entry
 2956 0640 00000000 		.word	bootloader_ctrl
 2957 0644 21BB0543 		.word	1124449057
 2958 0648 00000000 		.word	low_freq
 2959 064c 00000000 		.word	high_freq
 2960 0650 00000000 		.word	rssi_threshold
 2961              	.L80:
 639:bluetooth_rxtx.c **** 
 640:bluetooth_rxtx.c **** 	case UBERTOOTH_GET_REV_NUM:
 641:bluetooth_rxtx.c **** 		data[0] = 0x00;
 2962              		.loc 1 641 0
 2963 0654 7B68     		ldr	r3, [r7, #4]
 2964 0656 0022     		movs	r2, #0
 2965 0658 1A70     		strb	r2, [r3]
 642:bluetooth_rxtx.c **** 		data[1] = 0x00;
ARM GAS  /tmp/ccXEAChk.s 			page 63


 2966              		.loc 1 642 0
 2967 065a 7B68     		ldr	r3, [r7, #4]
 2968 065c 0133     		adds	r3, r3, #1
 2969 065e 0022     		movs	r2, #0
 2970 0660 1A70     		strb	r2, [r3]
 643:bluetooth_rxtx.c **** 
 644:bluetooth_rxtx.c **** 		length = (u8)strlen(GIT_REVISION);
 2971              		.loc 1 644 0
 2972 0662 A448     		ldr	r0, .L155
 2973 0664 FFF7FEFF 		bl	strlen
 2974 0668 0346     		mov	r3, r0
 2975 066a 87F84330 		strb	r3, [r7, #67]
 645:bluetooth_rxtx.c **** 		data[2] = length;
 2976              		.loc 1 645 0
 2977 066e 7B68     		ldr	r3, [r7, #4]
 2978 0670 0233     		adds	r3, r3, #2
 2979 0672 97F84320 		ldrb	r2, [r7, #67]
 2980 0676 1A70     		strb	r2, [r3]
 646:bluetooth_rxtx.c **** 
 647:bluetooth_rxtx.c **** 		memcpy(&data[3], GIT_REVISION, length);
 2981              		.loc 1 647 0
 2982 0678 7B68     		ldr	r3, [r7, #4]
 2983 067a DA1C     		adds	r2, r3, #3
 2984 067c 97F84330 		ldrb	r3, [r7, #67]	@ zero_extendqisi2
 2985 0680 1046     		mov	r0, r2
 2986 0682 9C49     		ldr	r1, .L155
 2987 0684 1A46     		mov	r2, r3
 2988 0686 FFF7FEFF 		bl	memcpy
 648:bluetooth_rxtx.c **** 
 649:bluetooth_rxtx.c **** 		*data_len = 2 + 1 + length;
 2989              		.loc 1 649 0
 2990 068a 97F84330 		ldrb	r3, [r7, #67]	@ zero_extendqisi2
 2991 068e DA1C     		adds	r2, r3, #3
 2992 0690 3B68     		ldr	r3, [r7]
 2993 0692 1A60     		str	r2, [r3]
 650:bluetooth_rxtx.c **** 		break;
 2994              		.loc 1 650 0
 2995 0694 17E2     		b	.L107
 2996              	.L102:
 651:bluetooth_rxtx.c **** 
 652:bluetooth_rxtx.c **** 	case UBERTOOTH_GET_COMPILE_INFO:
 653:bluetooth_rxtx.c **** 		length = (u8)strlen(compile_info);
 2997              		.loc 1 653 0
 2998 0696 9848     		ldr	r0, .L155+4
 2999 0698 FFF7FEFF 		bl	strlen
 3000 069c 0346     		mov	r3, r0
 3001 069e 87F84330 		strb	r3, [r7, #67]
 654:bluetooth_rxtx.c **** 		data[0] = length;
 3002              		.loc 1 654 0
 3003 06a2 7B68     		ldr	r3, [r7, #4]
 3004 06a4 97F84320 		ldrb	r2, [r7, #67]
 3005 06a8 1A70     		strb	r2, [r3]
 655:bluetooth_rxtx.c **** 		memcpy(&data[1], compile_info, length);
 3006              		.loc 1 655 0
 3007 06aa 7B68     		ldr	r3, [r7, #4]
 3008 06ac 5A1C     		adds	r2, r3, #1
 3009 06ae 97F84330 		ldrb	r3, [r7, #67]	@ zero_extendqisi2
ARM GAS  /tmp/ccXEAChk.s 			page 64


 3010 06b2 1046     		mov	r0, r2
 3011 06b4 9049     		ldr	r1, .L155+4
 3012 06b6 1A46     		mov	r2, r3
 3013 06b8 FFF7FEFF 		bl	memcpy
 656:bluetooth_rxtx.c **** 		*data_len = 1 + length;
 3014              		.loc 1 656 0
 3015 06bc 97F84330 		ldrb	r3, [r7, #67]	@ zero_extendqisi2
 3016 06c0 5A1C     		adds	r2, r3, #1
 3017 06c2 3B68     		ldr	r3, [r7]
 3018 06c4 1A60     		str	r2, [r3]
 657:bluetooth_rxtx.c **** 		break;
 3019              		.loc 1 657 0
 3020 06c6 FEE1     		b	.L107
 3021              	.L82:
 658:bluetooth_rxtx.c **** 
 659:bluetooth_rxtx.c **** 	case UBERTOOTH_GET_BOARD_ID:
 660:bluetooth_rxtx.c **** 		data[0] = BOARD_ID;
 3022              		.loc 1 660 0
 3023 06c8 7B68     		ldr	r3, [r7, #4]
 3024 06ca 0122     		movs	r2, #1
 3025 06cc 1A70     		strb	r2, [r3]
 661:bluetooth_rxtx.c **** 		*data_len = 1;
 3026              		.loc 1 661 0
 3027 06ce 3B68     		ldr	r3, [r7]
 3028 06d0 0122     		movs	r2, #1
 3029 06d2 1A60     		str	r2, [r3]
 662:bluetooth_rxtx.c **** 		break;
 3030              		.loc 1 662 0
 3031 06d4 F7E1     		b	.L107
 3032              	.L83:
 663:bluetooth_rxtx.c **** 
 664:bluetooth_rxtx.c **** 	case UBERTOOTH_SET_SQUELCH:
 665:bluetooth_rxtx.c **** 		cs_threshold_req = (int8_t)request_params[0];
 3033              		.loc 1 665 0
 3034 06d6 BB68     		ldr	r3, [r7, #8]
 3035 06d8 1B88     		ldrh	r3, [r3]
 3036 06da DAB2     		uxtb	r2, r3
 3037 06dc 874B     		ldr	r3, .L155+8
 3038 06de 1A70     		strb	r2, [r3]
 666:bluetooth_rxtx.c **** 		cs_threshold_calc_and_set();
 3039              		.loc 1 666 0
 3040 06e0 FFF7FEFF 		bl	cs_threshold_calc_and_set
 667:bluetooth_rxtx.c **** 		break;
 3041              		.loc 1 667 0
 3042 06e4 EFE1     		b	.L107
 3043              	.L84:
 668:bluetooth_rxtx.c **** 
 669:bluetooth_rxtx.c **** 	case UBERTOOTH_GET_SQUELCH:
 670:bluetooth_rxtx.c **** 		data[0] = cs_threshold_req;
 3044              		.loc 1 670 0
 3045 06e6 854B     		ldr	r3, .L155+8
 3046 06e8 1B78     		ldrb	r3, [r3]	@ zero_extendqisi2
 3047 06ea DAB2     		uxtb	r2, r3
 3048 06ec 7B68     		ldr	r3, [r7, #4]
 3049 06ee 1A70     		strb	r2, [r3]
 671:bluetooth_rxtx.c **** 		*data_len = 1;
 3050              		.loc 1 671 0
ARM GAS  /tmp/ccXEAChk.s 			page 65


 3051 06f0 3B68     		ldr	r3, [r7]
 3052 06f2 0122     		movs	r2, #1
 3053 06f4 1A60     		str	r2, [r3]
 672:bluetooth_rxtx.c **** 		break;
 3054              		.loc 1 672 0
 3055 06f6 E6E1     		b	.L107
 3056              	.L85:
 673:bluetooth_rxtx.c **** 
 674:bluetooth_rxtx.c **** 	case UBERTOOTH_SET_BDADDR:
 675:bluetooth_rxtx.c **** 		target.address = 0;
 3057              		.loc 1 675 0
 3058 06f8 8149     		ldr	r1, .L155+12
 3059 06fa 4FF00002 		mov	r2, #0
 3060 06fe 4FF00003 		mov	r3, #0
 3061 0702 C1E90023 		strd	r2, [r1]
 676:bluetooth_rxtx.c **** 		target.access_code = 0;
 3062              		.loc 1 676 0
 3063 0706 7E49     		ldr	r1, .L155+12
 3064 0708 4FF00002 		mov	r2, #0
 3065 070c 4FF00003 		mov	r3, #0
 3066 0710 C1E90223 		strd	r2, [r1, #8]
 677:bluetooth_rxtx.c **** 		for(i=0; i < 8; i++) {
 3067              		.loc 1 677 0
 3068 0714 0023     		movs	r3, #0
 3069 0716 FB64     		str	r3, [r7, #76]
 3070 0718 25E0     		b	.L133
 3071              	.L134:
 678:bluetooth_rxtx.c **** 			target.address |= (uint64_t)data[i] << 8*i;
 3072              		.loc 1 678 0 discriminator 3
 3073 071a 794B     		ldr	r3, .L155+12
 3074 071c D3E900AB 		ldrd	r10, [r3]
 3075 0720 FB6C     		ldr	r3, [r7, #76]
 3076 0722 7A68     		ldr	r2, [r7, #4]
 3077 0724 1344     		add	r3, r3, r2
 3078 0726 1B78     		ldrb	r3, [r3]	@ zero_extendqisi2
 3079 0728 DAB2     		uxtb	r2, r3
 3080 072a 4FF00003 		mov	r3, #0
 3081 072e F96C     		ldr	r1, [r7, #76]
 3082 0730 C900     		lsls	r1, r1, #3
 3083 0732 A1F12006 		sub	r6, r1, #32
 3084 0736 C1F12000 		rsb	r0, r1, #32
 3085 073a 03FA01F9 		lsl	r9, r3, r1
 3086 073e 02FA06F6 		lsl	r6, r2, r6
 3087 0742 49EA0609 		orr	r9, r9, r6
 3088 0746 22FA00F0 		lsr	r0, r2, r0
 3089 074a 49EA0009 		orr	r9, r9, r0
 3090 074e 02FA01F8 		lsl	r8, r2, r1
 3091 0752 4AEA0802 		orr	r2, r10, r8
 3092 0756 4BEA0903 		orr	r3, fp, r9
 3093 075a 6949     		ldr	r1, .L155+12
 3094 075c C1E90023 		strd	r2, [r1]
 677:bluetooth_rxtx.c **** 		for(i=0; i < 8; i++) {
 3095              		.loc 1 677 0 discriminator 3
 3096 0760 FB6C     		ldr	r3, [r7, #76]
 3097 0762 0133     		adds	r3, r3, #1
 3098 0764 FB64     		str	r3, [r7, #76]
 3099              	.L133:
ARM GAS  /tmp/ccXEAChk.s 			page 66


 677:bluetooth_rxtx.c **** 		for(i=0; i < 8; i++) {
 3100              		.loc 1 677 0 is_stmt 0 discriminator 1
 3101 0766 FB6C     		ldr	r3, [r7, #76]
 3102 0768 072B     		cmp	r3, #7
 3103 076a D6DD     		ble	.L134
 679:bluetooth_rxtx.c **** 		}
 680:bluetooth_rxtx.c **** 		for(i=0; i < 8; i++) {
 3104              		.loc 1 680 0 is_stmt 1
 3105 076c 0023     		movs	r3, #0
 3106 076e FB64     		str	r3, [r7, #76]
 3107 0770 24E0     		b	.L135
 3108              	.L136:
 681:bluetooth_rxtx.c **** 			target.access_code |= (uint64_t)data[i+8] << 8*i;
 3109              		.loc 1 681 0 discriminator 3
 3110 0772 634B     		ldr	r3, .L155+12
 3111 0774 D3E90289 		ldrd	r8, [r3, #8]
 3112 0778 FB6C     		ldr	r3, [r7, #76]
 3113 077a 0833     		adds	r3, r3, #8
 3114 077c 7A68     		ldr	r2, [r7, #4]
 3115 077e 1344     		add	r3, r3, r2
 3116 0780 1B78     		ldrb	r3, [r3]	@ zero_extendqisi2
 3117 0782 DAB2     		uxtb	r2, r3
 3118 0784 4FF00003 		mov	r3, #0
 3119 0788 F96C     		ldr	r1, [r7, #76]
 3120 078a C900     		lsls	r1, r1, #3
 3121 078c A1F12006 		sub	r6, r1, #32
 3122 0790 C1F12000 		rsb	r0, r1, #32
 3123 0794 03FA01F5 		lsl	r5, r3, r1
 3124 0798 02FA06F6 		lsl	r6, r2, r6
 3125 079c 3543     		orrs	r5, r5, r6
 3126 079e 22FA00F0 		lsr	r0, r2, r0
 3127 07a2 0543     		orrs	r5, r5, r0
 3128 07a4 02FA01F4 		lsl	r4, r2, r1
 3129 07a8 48EA0402 		orr	r2, r8, r4
 3130 07ac 49EA0503 		orr	r3, r9, r5
 3131 07b0 5349     		ldr	r1, .L155+12
 3132 07b2 C1E90223 		strd	r2, [r1, #8]
 680:bluetooth_rxtx.c **** 			target.access_code |= (uint64_t)data[i+8] << 8*i;
 3133              		.loc 1 680 0 discriminator 3
 3134 07b6 FB6C     		ldr	r3, [r7, #76]
 3135 07b8 0133     		adds	r3, r3, #1
 3136 07ba FB64     		str	r3, [r7, #76]
 3137              	.L135:
 680:bluetooth_rxtx.c **** 			target.access_code |= (uint64_t)data[i+8] << 8*i;
 3138              		.loc 1 680 0 is_stmt 0 discriminator 1
 3139 07bc FB6C     		ldr	r3, [r7, #76]
 3140 07be 072B     		cmp	r3, #7
 3141 07c0 D7DD     		ble	.L136
 682:bluetooth_rxtx.c **** 		}
 683:bluetooth_rxtx.c **** 		break;
 3142              		.loc 1 683 0 is_stmt 1
 3143 07c2 80E1     		b	.L107
 3144              	.L86:
 684:bluetooth_rxtx.c **** 
 685:bluetooth_rxtx.c **** 	case UBERTOOTH_START_HOPPING:
 686:bluetooth_rxtx.c **** 		clock_offset = 0;
 3145              		.loc 1 686 0
ARM GAS  /tmp/ccXEAChk.s 			page 67


 3146 07c4 0023     		movs	r3, #0
 3147 07c6 BB64     		str	r3, [r7, #72]
 687:bluetooth_rxtx.c **** 		for(i=0; i < 4; i++) {
 3148              		.loc 1 687 0
 3149 07c8 0023     		movs	r3, #0
 3150 07ca FB64     		str	r3, [r7, #76]
 3151 07cc 0DE0     		b	.L137
 3152              	.L138:
 688:bluetooth_rxtx.c **** 			clock_offset <<= 8;
 3153              		.loc 1 688 0 discriminator 3
 3154 07ce BB6C     		ldr	r3, [r7, #72]
 3155 07d0 1B02     		lsls	r3, r3, #8
 3156 07d2 BB64     		str	r3, [r7, #72]
 689:bluetooth_rxtx.c **** 			clock_offset |= data[i];
 3157              		.loc 1 689 0 discriminator 3
 3158 07d4 FB6C     		ldr	r3, [r7, #76]
 3159 07d6 7A68     		ldr	r2, [r7, #4]
 3160 07d8 1344     		add	r3, r3, r2
 3161 07da 1B78     		ldrb	r3, [r3]	@ zero_extendqisi2
 3162 07dc 1A46     		mov	r2, r3
 3163 07de BB6C     		ldr	r3, [r7, #72]
 3164 07e0 1343     		orrs	r3, r3, r2
 3165 07e2 BB64     		str	r3, [r7, #72]
 687:bluetooth_rxtx.c **** 		for(i=0; i < 4; i++) {
 3166              		.loc 1 687 0 discriminator 3
 3167 07e4 FB6C     		ldr	r3, [r7, #76]
 3168 07e6 0133     		adds	r3, r3, #1
 3169 07e8 FB64     		str	r3, [r7, #76]
 3170              	.L137:
 687:bluetooth_rxtx.c **** 		for(i=0; i < 4; i++) {
 3171              		.loc 1 687 0 is_stmt 0 discriminator 1
 3172 07ea FB6C     		ldr	r3, [r7, #76]
 3173 07ec 032B     		cmp	r3, #3
 3174 07ee EEDD     		ble	.L138
 690:bluetooth_rxtx.c **** 		}
 691:bluetooth_rxtx.c **** 		clkn += clock_offset;
 3175              		.loc 1 691 0 is_stmt 1
 3176 07f0 444B     		ldr	r3, .L155+16
 3177 07f2 1A68     		ldr	r2, [r3]
 3178 07f4 BB6C     		ldr	r3, [r7, #72]
 3179 07f6 1344     		add	r3, r3, r2
 3180 07f8 424A     		ldr	r2, .L155+16
 3181 07fa 1360     		str	r3, [r2]
 692:bluetooth_rxtx.c **** 		hop_mode = HOP_BLUETOOTH;
 3182              		.loc 1 692 0
 3183 07fc 424B     		ldr	r3, .L155+20
 3184 07fe 0222     		movs	r2, #2
 3185 0800 1A70     		strb	r2, [r3]
 693:bluetooth_rxtx.c **** 		requested_mode = MODE_BT_FOLLOW;
 3186              		.loc 1 693 0
 3187 0802 424B     		ldr	r3, .L155+24
 3188 0804 0822     		movs	r2, #8
 3189 0806 1A70     		strb	r2, [r3]
 694:bluetooth_rxtx.c **** 		break;
 3190              		.loc 1 694 0
 3191 0808 5DE1     		b	.L107
 3192              	.L87:
ARM GAS  /tmp/ccXEAChk.s 			page 68


 695:bluetooth_rxtx.c **** 
 696:bluetooth_rxtx.c **** 	case UBERTOOTH_SET_CLOCK:
 697:bluetooth_rxtx.c **** 		clock = data[0] | data[1] << 8 | data[2] << 16 | data[3] << 24;
 3193              		.loc 1 697 0
 3194 080a 7B68     		ldr	r3, [r7, #4]
 3195 080c 1B78     		ldrb	r3, [r3]	@ zero_extendqisi2
 3196 080e 1A46     		mov	r2, r3
 3197 0810 7B68     		ldr	r3, [r7, #4]
 3198 0812 0133     		adds	r3, r3, #1
 3199 0814 1B78     		ldrb	r3, [r3]	@ zero_extendqisi2
 3200 0816 1B02     		lsls	r3, r3, #8
 3201 0818 1A43     		orrs	r2, r2, r3
 3202 081a 7B68     		ldr	r3, [r7, #4]
 3203 081c 0233     		adds	r3, r3, #2
 3204 081e 1B78     		ldrb	r3, [r3]	@ zero_extendqisi2
 3205 0820 1B04     		lsls	r3, r3, #16
 3206 0822 1A43     		orrs	r2, r2, r3
 3207 0824 7B68     		ldr	r3, [r7, #4]
 3208 0826 0333     		adds	r3, r3, #3
 3209 0828 1B78     		ldrb	r3, [r3]	@ zero_extendqisi2
 3210 082a 1B06     		lsls	r3, r3, #24
 3211 082c 1343     		orrs	r3, r3, r2
 3212 082e FB63     		str	r3, [r7, #60]
 698:bluetooth_rxtx.c **** 		clkn = clock;
 3213              		.loc 1 698 0
 3214 0830 344A     		ldr	r2, .L155+16
 3215 0832 FB6B     		ldr	r3, [r7, #60]
 3216 0834 1360     		str	r3, [r2]
 699:bluetooth_rxtx.c **** 		cs_threshold_calc_and_set();
 3217              		.loc 1 699 0
 3218 0836 FFF7FEFF 		bl	cs_threshold_calc_and_set
 700:bluetooth_rxtx.c **** 		break;
 3219              		.loc 1 700 0
 3220 083a 44E1     		b	.L107
 3221              	.L98:
 701:bluetooth_rxtx.c **** 
 702:bluetooth_rxtx.c **** 	case UBERTOOTH_SET_AFHMAP:
 703:bluetooth_rxtx.c **** 		for(i=0; i < 10; i++) {
 3222              		.loc 1 703 0
 3223 083c 0023     		movs	r3, #0
 3224 083e FB64     		str	r3, [r7, #76]
 3225 0840 0BE0     		b	.L139
 3226              	.L140:
 704:bluetooth_rxtx.c **** 			afh_map[i] = data[i];
 3227              		.loc 1 704 0 discriminator 3
 3228 0842 FB6C     		ldr	r3, [r7, #76]
 3229 0844 7A68     		ldr	r2, [r7, #4]
 3230 0846 1344     		add	r3, r3, r2
 3231 0848 1978     		ldrb	r1, [r3]	@ zero_extendqisi2
 3232 084a 314A     		ldr	r2, .L155+28
 3233 084c FB6C     		ldr	r3, [r7, #76]
 3234 084e 1344     		add	r3, r3, r2
 3235 0850 0A46     		mov	r2, r1
 3236 0852 1A70     		strb	r2, [r3]
 703:bluetooth_rxtx.c **** 			afh_map[i] = data[i];
 3237              		.loc 1 703 0 discriminator 3
 3238 0854 FB6C     		ldr	r3, [r7, #76]
ARM GAS  /tmp/ccXEAChk.s 			page 69


 3239 0856 0133     		adds	r3, r3, #1
 3240 0858 FB64     		str	r3, [r7, #76]
 3241              	.L139:
 703:bluetooth_rxtx.c **** 			afh_map[i] = data[i];
 3242              		.loc 1 703 0 is_stmt 0 discriminator 1
 3243 085a FB6C     		ldr	r3, [r7, #76]
 3244 085c 092B     		cmp	r3, #9
 3245 085e F0DD     		ble	.L140
 705:bluetooth_rxtx.c **** 		}
 706:bluetooth_rxtx.c **** 		afh_enabled = 1;
 3246              		.loc 1 706 0 is_stmt 1
 3247 0860 2C4B     		ldr	r3, .L155+32
 3248 0862 0122     		movs	r2, #1
 3249 0864 1A70     		strb	r2, [r3]
 707:bluetooth_rxtx.c **** 		*data_len = 10;
 3250              		.loc 1 707 0
 3251 0866 3B68     		ldr	r3, [r7]
 3252 0868 0A22     		movs	r2, #10
 3253 086a 1A60     		str	r2, [r3]
 708:bluetooth_rxtx.c **** 		break;
 3254              		.loc 1 708 0
 3255 086c 2BE1     		b	.L107
 3256              	.L99:
 709:bluetooth_rxtx.c **** 
 710:bluetooth_rxtx.c **** 	case UBERTOOTH_CLEAR_AFHMAP:
 711:bluetooth_rxtx.c **** 		for(i=0; i < 10; i++) {
 3257              		.loc 1 711 0
 3258 086e 0023     		movs	r3, #0
 3259 0870 FB64     		str	r3, [r7, #76]
 3260 0872 07E0     		b	.L141
 3261              	.L142:
 712:bluetooth_rxtx.c **** 			afh_map[i] = 0;
 3262              		.loc 1 712 0 discriminator 3
 3263 0874 264A     		ldr	r2, .L155+28
 3264 0876 FB6C     		ldr	r3, [r7, #76]
 3265 0878 1344     		add	r3, r3, r2
 3266 087a 0022     		movs	r2, #0
 3267 087c 1A70     		strb	r2, [r3]
 711:bluetooth_rxtx.c **** 			afh_map[i] = 0;
 3268              		.loc 1 711 0 discriminator 3
 3269 087e FB6C     		ldr	r3, [r7, #76]
 3270 0880 0133     		adds	r3, r3, #1
 3271 0882 FB64     		str	r3, [r7, #76]
 3272              	.L141:
 711:bluetooth_rxtx.c **** 			afh_map[i] = 0;
 3273              		.loc 1 711 0 is_stmt 0 discriminator 1
 3274 0884 FB6C     		ldr	r3, [r7, #76]
 3275 0886 092B     		cmp	r3, #9
 3276 0888 F4DD     		ble	.L142
 713:bluetooth_rxtx.c **** 		}
 714:bluetooth_rxtx.c **** 		afh_enabled = 0;
 3277              		.loc 1 714 0 is_stmt 1
 3278 088a 224B     		ldr	r3, .L155+32
 3279 088c 0022     		movs	r2, #0
 3280 088e 1A70     		strb	r2, [r3]
 715:bluetooth_rxtx.c **** 		*data_len = 10;
 3281              		.loc 1 715 0
ARM GAS  /tmp/ccXEAChk.s 			page 70


 3282 0890 3B68     		ldr	r3, [r7]
 3283 0892 0A22     		movs	r2, #10
 3284 0894 1A60     		str	r2, [r3]
 716:bluetooth_rxtx.c **** 		break;
 3285              		.loc 1 716 0
 3286 0896 16E1     		b	.L107
 3287              	.L88:
 717:bluetooth_rxtx.c **** 
 718:bluetooth_rxtx.c **** 	case UBERTOOTH_GET_CLOCK:
 719:bluetooth_rxtx.c **** 		clock = clkn;
 3288              		.loc 1 719 0
 3289 0898 1A4B     		ldr	r3, .L155+16
 3290 089a 1B68     		ldr	r3, [r3]
 3291 089c FB63     		str	r3, [r7, #60]
 720:bluetooth_rxtx.c **** 		for(i=0; i < 4; i++) {
 3292              		.loc 1 720 0
 3293 089e 0023     		movs	r3, #0
 3294 08a0 FB64     		str	r3, [r7, #76]
 3295 08a2 0CE0     		b	.L143
 3296              	.L144:
 721:bluetooth_rxtx.c **** 			data[i] = (clock >> (8*i)) & 0xff;
 3297              		.loc 1 721 0 discriminator 3
 3298 08a4 FB6C     		ldr	r3, [r7, #76]
 3299 08a6 7A68     		ldr	r2, [r7, #4]
 3300 08a8 1344     		add	r3, r3, r2
 3301 08aa FA6C     		ldr	r2, [r7, #76]
 3302 08ac D200     		lsls	r2, r2, #3
 3303 08ae F96B     		ldr	r1, [r7, #60]
 3304 08b0 21FA02F2 		lsr	r2, r1, r2
 3305 08b4 D2B2     		uxtb	r2, r2
 3306 08b6 1A70     		strb	r2, [r3]
 720:bluetooth_rxtx.c **** 		for(i=0; i < 4; i++) {
 3307              		.loc 1 720 0 discriminator 3
 3308 08b8 FB6C     		ldr	r3, [r7, #76]
 3309 08ba 0133     		adds	r3, r3, #1
 3310 08bc FB64     		str	r3, [r7, #76]
 3311              	.L143:
 720:bluetooth_rxtx.c **** 		for(i=0; i < 4; i++) {
 3312              		.loc 1 720 0 is_stmt 0 discriminator 1
 3313 08be FB6C     		ldr	r3, [r7, #76]
 3314 08c0 032B     		cmp	r3, #3
 3315 08c2 EFDD     		ble	.L144
 722:bluetooth_rxtx.c **** 		}
 723:bluetooth_rxtx.c **** 		*data_len = 4;
 3316              		.loc 1 723 0 is_stmt 1
 3317 08c4 3B68     		ldr	r3, [r7]
 3318 08c6 0422     		movs	r2, #4
 3319 08c8 1A60     		str	r2, [r3]
 724:bluetooth_rxtx.c **** 		break;
 3320              		.loc 1 724 0
 3321 08ca FCE0     		b	.L107
 3322              	.L89:
 725:bluetooth_rxtx.c **** 
 726:bluetooth_rxtx.c **** 	case UBERTOOTH_BTLE_SNIFFING:
 727:bluetooth_rxtx.c **** 		*data_len = 0;
 3323              		.loc 1 727 0
 3324 08cc 3B68     		ldr	r3, [r7]
ARM GAS  /tmp/ccXEAChk.s 			page 71


 3325 08ce 0022     		movs	r2, #0
 3326 08d0 1A60     		str	r2, [r3]
 728:bluetooth_rxtx.c **** 
 729:bluetooth_rxtx.c **** 		do_hop = 0;
 3327              		.loc 1 729 0
 3328 08d2 114B     		ldr	r3, .L155+36
 3329 08d4 0022     		movs	r2, #0
 3330 08d6 1A70     		strb	r2, [r3]
 730:bluetooth_rxtx.c **** 		hop_mode = HOP_BTLE;
 3331              		.loc 1 730 0
 3332 08d8 0B4B     		ldr	r3, .L155+20
 3333 08da 0322     		movs	r2, #3
 3334 08dc 1A70     		strb	r2, [r3]
 731:bluetooth_rxtx.c **** 		requested_mode = MODE_BT_FOLLOW_LE;
 3335              		.loc 1 731 0
 3336 08de 0B4B     		ldr	r3, .L155+24
 3337 08e0 0922     		movs	r2, #9
 3338 08e2 1A70     		strb	r2, [r3]
 732:bluetooth_rxtx.c **** 
 733:bluetooth_rxtx.c **** 		queue_init();
 3339              		.loc 1 733 0
 3340 08e4 FFF7FEFF 		bl	queue_init
 734:bluetooth_rxtx.c **** 		cs_threshold_calc_and_set();
 3341              		.loc 1 734 0
 3342 08e8 FFF7FEFF 		bl	cs_threshold_calc_and_set
 735:bluetooth_rxtx.c **** 		break;
 3343              		.loc 1 735 0
 3344 08ec EBE0     		b	.L107
 3345              	.L90:
 736:bluetooth_rxtx.c **** 
 737:bluetooth_rxtx.c **** 	case UBERTOOTH_GET_ACCESS_ADDRESS:
 738:bluetooth_rxtx.c **** 		for(i=0; i < 4; i++) {
 3346              		.loc 1 738 0
 3347 08ee 0023     		movs	r3, #0
 3348 08f0 FB64     		str	r3, [r7, #76]
 3349 08f2 21E0     		b	.L145
 3350              	.L156:
 3351              		.align	2
 3352              	.L155:
 3353 08f4 FC080000 		.word	.LC3
 3354 08f8 00000000 		.word	compile_info
 3355 08fc 00000000 		.word	cs_threshold_req
 3356 0900 00000000 		.word	target
 3357 0904 00000000 		.word	clkn
 3358 0908 00000000 		.word	hop_mode
 3359 090c 00000000 		.word	requested_mode
 3360 0910 00000000 		.word	afh_map
 3361 0914 00000000 		.word	afh_enabled
 3362 0918 00000000 		.word	do_hop
 3363              	.L146:
 739:bluetooth_rxtx.c **** 			data[i] = (le.access_address >> (8*i)) & 0xff;
 3364              		.loc 1 739 0 discriminator 3
 3365 091c FB6C     		ldr	r3, [r7, #76]
 3366 091e 7A68     		ldr	r2, [r7, #4]
 3367 0920 1344     		add	r3, r3, r2
 3368 0922 6C4A     		ldr	r2, .L157
 3369 0924 1168     		ldr	r1, [r2]
ARM GAS  /tmp/ccXEAChk.s 			page 72


 3370 0926 FA6C     		ldr	r2, [r7, #76]
 3371 0928 D200     		lsls	r2, r2, #3
 3372 092a 21FA02F2 		lsr	r2, r1, r2
 3373 092e D2B2     		uxtb	r2, r2
 3374 0930 1A70     		strb	r2, [r3]
 738:bluetooth_rxtx.c **** 			data[i] = (le.access_address >> (8*i)) & 0xff;
 3375              		.loc 1 738 0 discriminator 3
 3376 0932 FB6C     		ldr	r3, [r7, #76]
 3377 0934 0133     		adds	r3, r3, #1
 3378 0936 FB64     		str	r3, [r7, #76]
 3379              	.L145:
 738:bluetooth_rxtx.c **** 			data[i] = (le.access_address >> (8*i)) & 0xff;
 3380              		.loc 1 738 0 is_stmt 0 discriminator 1
 3381 0938 FB6C     		ldr	r3, [r7, #76]
 3382 093a 032B     		cmp	r3, #3
 3383 093c EEDD     		ble	.L146
 740:bluetooth_rxtx.c **** 		}
 741:bluetooth_rxtx.c **** 		*data_len = 4;
 3384              		.loc 1 741 0 is_stmt 1
 3385 093e 3B68     		ldr	r3, [r7]
 3386 0940 0422     		movs	r2, #4
 3387 0942 1A60     		str	r2, [r3]
 742:bluetooth_rxtx.c **** 		break;
 3388              		.loc 1 742 0
 3389 0944 BFE0     		b	.L107
 3390              	.L91:
 743:bluetooth_rxtx.c **** 
 744:bluetooth_rxtx.c **** 	case UBERTOOTH_SET_ACCESS_ADDRESS:
 745:bluetooth_rxtx.c **** 		le_set_access_address(data[0] | data[1] << 8 | data[2] << 16 | data[3] << 24);
 3391              		.loc 1 745 0
 3392 0946 7B68     		ldr	r3, [r7, #4]
 3393 0948 1B78     		ldrb	r3, [r3]	@ zero_extendqisi2
 3394 094a 1A46     		mov	r2, r3
 3395 094c 7B68     		ldr	r3, [r7, #4]
 3396 094e 0133     		adds	r3, r3, #1
 3397 0950 1B78     		ldrb	r3, [r3]	@ zero_extendqisi2
 3398 0952 1B02     		lsls	r3, r3, #8
 3399 0954 1A43     		orrs	r2, r2, r3
 3400 0956 7B68     		ldr	r3, [r7, #4]
 3401 0958 0233     		adds	r3, r3, #2
 3402 095a 1B78     		ldrb	r3, [r3]	@ zero_extendqisi2
 3403 095c 1B04     		lsls	r3, r3, #16
 3404 095e 1A43     		orrs	r2, r2, r3
 3405 0960 7B68     		ldr	r3, [r7, #4]
 3406 0962 0333     		adds	r3, r3, #3
 3407 0964 1B78     		ldrb	r3, [r3]	@ zero_extendqisi2
 3408 0966 1B06     		lsls	r3, r3, #24
 3409 0968 1343     		orrs	r3, r3, r2
 3410 096a 1846     		mov	r0, r3
 3411 096c FFF7FEFF 		bl	le_set_access_address
 746:bluetooth_rxtx.c **** 		le.target_set = 1;
 3412              		.loc 1 746 0
 3413 0970 584B     		ldr	r3, .L157
 3414 0972 0122     		movs	r2, #1
 3415 0974 DA63     		str	r2, [r3, #60]
 747:bluetooth_rxtx.c **** 		break;
 3416              		.loc 1 747 0
ARM GAS  /tmp/ccXEAChk.s 			page 73


 3417 0976 A6E0     		b	.L107
 3418              	.L93:
 748:bluetooth_rxtx.c **** 
 749:bluetooth_rxtx.c **** 	case UBERTOOTH_DO_SOMETHING:
 750:bluetooth_rxtx.c **** 		// do something! just don't commit anything here
 751:bluetooth_rxtx.c **** 		break;
 752:bluetooth_rxtx.c **** 
 753:bluetooth_rxtx.c **** 	case UBERTOOTH_DO_SOMETHING_REPLY:
 754:bluetooth_rxtx.c **** 		// after you do something, tell me what you did!
 755:bluetooth_rxtx.c **** 		// don't commit here please
 756:bluetooth_rxtx.c **** 		data[0] = 0x13;
 3419              		.loc 1 756 0
 3420 0978 7B68     		ldr	r3, [r7, #4]
 3421 097a 1322     		movs	r2, #19
 3422 097c 1A70     		strb	r2, [r3]
 757:bluetooth_rxtx.c **** 		data[1] = 0x37;
 3423              		.loc 1 757 0
 3424 097e 7B68     		ldr	r3, [r7, #4]
 3425 0980 0133     		adds	r3, r3, #1
 3426 0982 3722     		movs	r2, #55
 3427 0984 1A70     		strb	r2, [r3]
 758:bluetooth_rxtx.c **** 		*data_len = 2;
 3428              		.loc 1 758 0
 3429 0986 3B68     		ldr	r3, [r7]
 3430 0988 0222     		movs	r2, #2
 3431 098a 1A60     		str	r2, [r3]
 759:bluetooth_rxtx.c **** 		break;
 3432              		.loc 1 759 0
 3433 098c 9BE0     		b	.L107
 3434              	.L94:
 760:bluetooth_rxtx.c **** 
 761:bluetooth_rxtx.c **** 	case UBERTOOTH_GET_CRC_VERIFY:
 762:bluetooth_rxtx.c **** 		data[0] = le.crc_verify ? 1 : 0;
 3435              		.loc 1 762 0
 3436 098e 514B     		ldr	r3, .L157
 3437 0990 1B69     		ldr	r3, [r3, #16]
 3438 0992 002B     		cmp	r3, #0
 3439 0994 14BF     		ite	ne
 3440 0996 0123     		movne	r3, #1
 3441 0998 0023     		moveq	r3, #0
 3442 099a DBB2     		uxtb	r3, r3
 3443 099c 1A46     		mov	r2, r3
 3444 099e 7B68     		ldr	r3, [r7, #4]
 3445 09a0 1A70     		strb	r2, [r3]
 763:bluetooth_rxtx.c **** 		*data_len = 1;
 3446              		.loc 1 763 0
 3447 09a2 3B68     		ldr	r3, [r7]
 3448 09a4 0122     		movs	r2, #1
 3449 09a6 1A60     		str	r2, [r3]
 764:bluetooth_rxtx.c **** 		break;
 3450              		.loc 1 764 0
 3451 09a8 8DE0     		b	.L107
 3452              	.L95:
 765:bluetooth_rxtx.c **** 
 766:bluetooth_rxtx.c **** 	case UBERTOOTH_SET_CRC_VERIFY:
 767:bluetooth_rxtx.c **** 		le.crc_verify = request_params[0] ? 1 : 0;
 3453              		.loc 1 767 0
ARM GAS  /tmp/ccXEAChk.s 			page 74


 3454 09aa BB68     		ldr	r3, [r7, #8]
 3455 09ac 1B88     		ldrh	r3, [r3]
 3456 09ae 002B     		cmp	r3, #0
 3457 09b0 14BF     		ite	ne
 3458 09b2 0123     		movne	r3, #1
 3459 09b4 0023     		moveq	r3, #0
 3460 09b6 DBB2     		uxtb	r3, r3
 3461 09b8 1A46     		mov	r2, r3
 3462 09ba 464B     		ldr	r3, .L157
 3463 09bc 1A61     		str	r2, [r3, #16]
 768:bluetooth_rxtx.c **** 		break;
 3464              		.loc 1 768 0
 3465 09be 82E0     		b	.L107
 3466              	.L96:
 769:bluetooth_rxtx.c **** 
 770:bluetooth_rxtx.c **** 	case UBERTOOTH_POLL:
 771:bluetooth_rxtx.c **** 		p = dequeue();
 3467              		.loc 1 771 0
 3468 09c0 FFF7FEFF 		bl	dequeue
 3469 09c4 7864     		str	r0, [r7, #68]
 772:bluetooth_rxtx.c **** 		if (p != NULL) {
 3470              		.loc 1 772 0
 3471 09c6 7B6C     		ldr	r3, [r7, #68]
 3472 09c8 002B     		cmp	r3, #0
 3473 09ca 08D0     		beq	.L147
 773:bluetooth_rxtx.c **** 			memcpy(data, (void *)p, sizeof(usb_pkt_rx));
 3474              		.loc 1 773 0
 3475 09cc 7868     		ldr	r0, [r7, #4]
 3476 09ce 796C     		ldr	r1, [r7, #68]
 3477 09d0 4022     		movs	r2, #64
 3478 09d2 FFF7FEFF 		bl	memcpy
 774:bluetooth_rxtx.c **** 			*data_len = sizeof(usb_pkt_rx);
 3479              		.loc 1 774 0
 3480 09d6 3B68     		ldr	r3, [r7]
 3481 09d8 4022     		movs	r2, #64
 3482 09da 1A60     		str	r2, [r3]
 775:bluetooth_rxtx.c **** 		} else {
 776:bluetooth_rxtx.c **** 			data[0] = 0;
 777:bluetooth_rxtx.c **** 			*data_len = 1;
 778:bluetooth_rxtx.c **** 		}
 779:bluetooth_rxtx.c **** 		break;
 3483              		.loc 1 779 0
 3484 09dc 73E0     		b	.L107
 3485              	.L147:
 776:bluetooth_rxtx.c **** 			*data_len = 1;
 3486              		.loc 1 776 0
 3487 09de 7B68     		ldr	r3, [r7, #4]
 3488 09e0 0022     		movs	r2, #0
 3489 09e2 1A70     		strb	r2, [r3]
 777:bluetooth_rxtx.c **** 		}
 3490              		.loc 1 777 0
 3491 09e4 3B68     		ldr	r3, [r7]
 3492 09e6 0122     		movs	r2, #1
 3493 09e8 1A60     		str	r2, [r3]
 3494              		.loc 1 779 0
 3495 09ea 6CE0     		b	.L107
 3496              	.L97:
ARM GAS  /tmp/ccXEAChk.s 			page 75


 780:bluetooth_rxtx.c **** 
 781:bluetooth_rxtx.c **** 	case UBERTOOTH_BTLE_PROMISC:
 782:bluetooth_rxtx.c **** 		*data_len = 0;
 3497              		.loc 1 782 0
 3498 09ec 3B68     		ldr	r3, [r7]
 3499 09ee 0022     		movs	r2, #0
 3500 09f0 1A60     		str	r2, [r3]
 783:bluetooth_rxtx.c **** 
 784:bluetooth_rxtx.c **** 		hop_mode = HOP_NONE;
 3501              		.loc 1 784 0
 3502 09f2 394B     		ldr	r3, .L157+4
 3503 09f4 0022     		movs	r2, #0
 3504 09f6 1A70     		strb	r2, [r3]
 785:bluetooth_rxtx.c **** 		requested_mode = MODE_BT_PROMISC_LE;
 3505              		.loc 1 785 0
 3506 09f8 384B     		ldr	r3, .L157+8
 3507 09fa 0A22     		movs	r2, #10
 3508 09fc 1A70     		strb	r2, [r3]
 786:bluetooth_rxtx.c **** 
 787:bluetooth_rxtx.c **** 		queue_init();
 3509              		.loc 1 787 0
 3510 09fe FFF7FEFF 		bl	queue_init
 788:bluetooth_rxtx.c **** 		cs_threshold_calc_and_set();
 3511              		.loc 1 788 0
 3512 0a02 FFF7FEFF 		bl	cs_threshold_calc_and_set
 789:bluetooth_rxtx.c **** 		break;
 3513              		.loc 1 789 0
 3514 0a06 5EE0     		b	.L107
 3515              	.L100:
 790:bluetooth_rxtx.c **** 
 791:bluetooth_rxtx.c **** 	case UBERTOOTH_READ_REGISTER:
 792:bluetooth_rxtx.c **** 		reg_val = cc2400_get(request_params[0]);
 3516              		.loc 1 792 0
 3517 0a08 BB68     		ldr	r3, [r7, #8]
 3518 0a0a 1B88     		ldrh	r3, [r3]
 3519 0a0c DBB2     		uxtb	r3, r3
 3520 0a0e 1846     		mov	r0, r3
 3521 0a10 FFF7FEFF 		bl	cc2400_get
 3522 0a14 0346     		mov	r3, r0
 3523 0a16 7B87     		strh	r3, [r7, #58]	@ movhi
 793:bluetooth_rxtx.c **** 		data[0] = (reg_val >> 8) & 0xff;
 3524              		.loc 1 793 0
 3525 0a18 7B8F     		ldrh	r3, [r7, #58]
 3526 0a1a 1B0A     		lsrs	r3, r3, #8
 3527 0a1c 9BB2     		uxth	r3, r3
 3528 0a1e DAB2     		uxtb	r2, r3
 3529 0a20 7B68     		ldr	r3, [r7, #4]
 3530 0a22 1A70     		strb	r2, [r3]
 794:bluetooth_rxtx.c **** 		data[1] = reg_val & 0xff;
 3531              		.loc 1 794 0
 3532 0a24 7B68     		ldr	r3, [r7, #4]
 3533 0a26 0133     		adds	r3, r3, #1
 3534 0a28 7A8F     		ldrh	r2, [r7, #58]	@ movhi
 3535 0a2a D2B2     		uxtb	r2, r2
 3536 0a2c 1A70     		strb	r2, [r3]
 795:bluetooth_rxtx.c **** 		*data_len = 2;
 3537              		.loc 1 795 0
ARM GAS  /tmp/ccXEAChk.s 			page 76


 3538 0a2e 3B68     		ldr	r3, [r7]
 3539 0a30 0222     		movs	r2, #2
 3540 0a32 1A60     		str	r2, [r3]
 796:bluetooth_rxtx.c **** 		break;
 3541              		.loc 1 796 0
 3542 0a34 47E0     		b	.L107
 3543              	.L104:
 797:bluetooth_rxtx.c **** 
 798:bluetooth_rxtx.c **** 	case UBERTOOTH_WRITE_REGISTER:
 799:bluetooth_rxtx.c **** 		cc2400_set(request_params[0] & 0xff, request_params[1]);
 3544              		.loc 1 799 0
 3545 0a36 BB68     		ldr	r3, [r7, #8]
 3546 0a38 1B88     		ldrh	r3, [r3]
 3547 0a3a DAB2     		uxtb	r2, r3
 3548 0a3c BB68     		ldr	r3, [r7, #8]
 3549 0a3e 0233     		adds	r3, r3, #2
 3550 0a40 1B88     		ldrh	r3, [r3]
 3551 0a42 1046     		mov	r0, r2
 3552 0a44 1946     		mov	r1, r3
 3553 0a46 FFF7FEFF 		bl	cc2400_set
 800:bluetooth_rxtx.c **** 		break;
 3554              		.loc 1 800 0
 3555 0a4a 3CE0     		b	.L107
 3556              	.L101:
 801:bluetooth_rxtx.c **** 
 802:bluetooth_rxtx.c **** 	case UBERTOOTH_BTLE_SLAVE:
 803:bluetooth_rxtx.c **** 		memcpy(slave_mac_address, data, 6);
 3557              		.loc 1 803 0
 3558 0a4c 2448     		ldr	r0, .L157+12
 3559 0a4e 7968     		ldr	r1, [r7, #4]
 3560 0a50 0622     		movs	r2, #6
 3561 0a52 FFF7FEFF 		bl	memcpy
 804:bluetooth_rxtx.c **** 		requested_mode = MODE_BT_SLAVE_LE;
 3562              		.loc 1 804 0
 3563 0a56 214B     		ldr	r3, .L157+8
 3564 0a58 0C22     		movs	r2, #12
 3565 0a5a 1A70     		strb	r2, [r3]
 805:bluetooth_rxtx.c **** 		break;
 3566              		.loc 1 805 0
 3567 0a5c 33E0     		b	.L107
 3568              	.L103:
 806:bluetooth_rxtx.c **** 
 807:bluetooth_rxtx.c **** 	case UBERTOOTH_BTLE_SET_TARGET:
 808:bluetooth_rxtx.c **** 		// Addresses appear in packets in reverse-octet order.
 809:bluetooth_rxtx.c **** 		// Store the target address in reverse order so that we can do a simple memcmp later
 810:bluetooth_rxtx.c **** 		le.target[0] = data[5];
 3569              		.loc 1 810 0
 3570 0a5e 7B68     		ldr	r3, [r7, #4]
 3571 0a60 5A79     		ldrb	r2, [r3, #5]	@ zero_extendqisi2
 3572 0a62 1C4B     		ldr	r3, .L157
 3573 0a64 83F83420 		strb	r2, [r3, #52]
 811:bluetooth_rxtx.c **** 		le.target[1] = data[4];
 3574              		.loc 1 811 0
 3575 0a68 7B68     		ldr	r3, [r7, #4]
 3576 0a6a 1A79     		ldrb	r2, [r3, #4]	@ zero_extendqisi2
 3577 0a6c 194B     		ldr	r3, .L157
 3578 0a6e 83F83520 		strb	r2, [r3, #53]
ARM GAS  /tmp/ccXEAChk.s 			page 77


 812:bluetooth_rxtx.c **** 		le.target[2] = data[3];
 3579              		.loc 1 812 0
 3580 0a72 7B68     		ldr	r3, [r7, #4]
 3581 0a74 DA78     		ldrb	r2, [r3, #3]	@ zero_extendqisi2
 3582 0a76 174B     		ldr	r3, .L157
 3583 0a78 83F83620 		strb	r2, [r3, #54]
 813:bluetooth_rxtx.c **** 		le.target[3] = data[2];
 3584              		.loc 1 813 0
 3585 0a7c 7B68     		ldr	r3, [r7, #4]
 3586 0a7e 9A78     		ldrb	r2, [r3, #2]	@ zero_extendqisi2
 3587 0a80 144B     		ldr	r3, .L157
 3588 0a82 83F83720 		strb	r2, [r3, #55]
 814:bluetooth_rxtx.c **** 		le.target[4] = data[1];
 3589              		.loc 1 814 0
 3590 0a86 7B68     		ldr	r3, [r7, #4]
 3591 0a88 5A78     		ldrb	r2, [r3, #1]	@ zero_extendqisi2
 3592 0a8a 124B     		ldr	r3, .L157
 3593 0a8c 83F83820 		strb	r2, [r3, #56]
 815:bluetooth_rxtx.c **** 		le.target[5] = data[0];
 3594              		.loc 1 815 0
 3595 0a90 7B68     		ldr	r3, [r7, #4]
 3596 0a92 1A78     		ldrb	r2, [r3]	@ zero_extendqisi2
 3597 0a94 0F4B     		ldr	r3, .L157
 3598 0a96 83F83920 		strb	r2, [r3, #57]
 816:bluetooth_rxtx.c **** 		le.target_set = 1;
 3599              		.loc 1 816 0
 3600 0a9a 0E4B     		ldr	r3, .L157
 3601 0a9c 0122     		movs	r2, #1
 3602 0a9e DA63     		str	r2, [r3, #60]
 817:bluetooth_rxtx.c **** 		break;
 3603              		.loc 1 817 0
 3604 0aa0 11E0     		b	.L107
 3605              	.L105:
 818:bluetooth_rxtx.c **** 
 819:bluetooth_rxtx.c **** #ifdef TX_ENABLE
 820:bluetooth_rxtx.c **** 	case UBERTOOTH_JAM_MODE:
 821:bluetooth_rxtx.c **** 		jam_mode = request_params[0];
 3606              		.loc 1 821 0
 3607 0aa2 BB68     		ldr	r3, [r7, #8]
 3608 0aa4 1B88     		ldrh	r3, [r3]
 3609 0aa6 DAB2     		uxtb	r2, r3
 3610 0aa8 0E4B     		ldr	r3, .L157+16
 3611 0aaa 1A70     		strb	r2, [r3]
 822:bluetooth_rxtx.c **** 		break;
 3612              		.loc 1 822 0
 3613 0aac 0BE0     		b	.L107
 3614              	.L106:
 823:bluetooth_rxtx.c **** #endif
 824:bluetooth_rxtx.c **** 
 825:bluetooth_rxtx.c **** 	case UBERTOOTH_EGO:
 826:bluetooth_rxtx.c **** #ifndef TX_ENABLE
 827:bluetooth_rxtx.c **** 		if (ego_mode == EGO_JAM)
 828:bluetooth_rxtx.c **** 			return 0;
 829:bluetooth_rxtx.c **** #endif
 830:bluetooth_rxtx.c **** 		requested_mode = MODE_EGO;
 3615              		.loc 1 830 0
 3616 0aae 0B4B     		ldr	r3, .L157+8
ARM GAS  /tmp/ccXEAChk.s 			page 78


 3617 0ab0 0D22     		movs	r2, #13
 3618 0ab2 1A70     		strb	r2, [r3]
 831:bluetooth_rxtx.c **** 		ego_mode = request_params[0];
 3619              		.loc 1 831 0
 3620 0ab4 BB68     		ldr	r3, [r7, #8]
 3621 0ab6 1B88     		ldrh	r3, [r3]
 3622 0ab8 DAB2     		uxtb	r2, r3
 3623 0aba 0B4B     		ldr	r3, .L157+20
 3624 0abc 1A70     		strb	r2, [r3]
 832:bluetooth_rxtx.c **** 		break;
 3625              		.loc 1 832 0
 3626 0abe 02E0     		b	.L107
 3627              	.L47:
 833:bluetooth_rxtx.c **** 
 834:bluetooth_rxtx.c **** 	default:
 835:bluetooth_rxtx.c **** 		return 0;
 3628              		.loc 1 835 0
 3629 0ac0 0023     		movs	r3, #0
 3630 0ac2 01E0     		b	.L149
 3631              	.L150:
 751:bluetooth_rxtx.c **** 
 3632              		.loc 1 751 0
 3633 0ac4 00BF     		nop
 3634              	.L107:
 836:bluetooth_rxtx.c **** 	}
 837:bluetooth_rxtx.c **** 	return 1;
 3635              		.loc 1 837 0
 3636 0ac6 0123     		movs	r3, #1
 3637              	.L149:
 838:bluetooth_rxtx.c **** }
 3638              		.loc 1 838 0 discriminator 1
 3639 0ac8 1846     		mov	r0, r3
 3640 0aca 5437     		adds	r7, r7, #84
 3641              		.cfi_def_cfa_offset 36
 3642 0acc BD46     		mov	sp, r7
 3643              		.cfi_def_cfa_register 13
 3644              		@ sp needed
 3645 0ace BDE8F08F 		pop	{r4, r5, r6, r7, r8, r9, r10, fp, pc}
 3646              	.L158:
 3647 0ad2 00BF     		.align	2
 3648              	.L157:
 3649 0ad4 00000000 		.word	le
 3650 0ad8 00000000 		.word	hop_mode
 3651 0adc 00000000 		.word	requested_mode
 3652 0ae0 00000000 		.word	slave_mac_address
 3653 0ae4 00000000 		.word	jam_mode
 3654 0ae8 00000000 		.word	ego_mode
 3655              		.cfi_endproc
 3656              	.LFE9:
 3658              		.section	.text.clkn_init,"ax",%progbits
 3659              		.align	2
 3660              		.thumb
 3661              		.thumb_func
 3663              	clkn_init:
 3664              	.LFB10:
 839:bluetooth_rxtx.c **** 
 840:bluetooth_rxtx.c **** static void clkn_init()
ARM GAS  /tmp/ccXEAChk.s 			page 79


 841:bluetooth_rxtx.c **** {
 3665              		.loc 1 841 0
 3666              		.cfi_startproc
 3667              		@ args = 0, pretend = 0, frame = 0
 3668              		@ frame_needed = 1, uses_anonymous_args = 0
 3669              		@ link register save eliminated.
 3670 0000 80B4     		push	{r7}
 3671              		.cfi_def_cfa_offset 4
 3672              		.cfi_offset 7, -4
 3673 0002 00AF     		add	r7, sp, #0
 3674              		.cfi_def_cfa_register 7
 842:bluetooth_rxtx.c **** 	/*
 843:bluetooth_rxtx.c **** 	 * Because these are reset defaults, we're assuming TIMER0 is powered on
 844:bluetooth_rxtx.c **** 	 * and in timer mode.  The TIMER0 peripheral clock should have been set by
 845:bluetooth_rxtx.c **** 	 * clock_start().
 846:bluetooth_rxtx.c **** 	 */
 847:bluetooth_rxtx.c **** 
 848:bluetooth_rxtx.c **** 	/* stop and reset the timer to zero */
 849:bluetooth_rxtx.c **** 	T0TCR = TCR_Counter_Reset;
 3675              		.loc 1 849 0
 3676 0004 0C4B     		ldr	r3, .L160
 3677 0006 0222     		movs	r2, #2
 3678 0008 1A60     		str	r2, [r3]
 850:bluetooth_rxtx.c **** 	clkn = 0;
 3679              		.loc 1 850 0
 3680 000a 0C4B     		ldr	r3, .L160+4
 3681 000c 0022     		movs	r2, #0
 3682 000e 1A60     		str	r2, [r3]
 851:bluetooth_rxtx.c **** 
 852:bluetooth_rxtx.c **** #ifdef TC13BADGE
 853:bluetooth_rxtx.c **** 	/*
 854:bluetooth_rxtx.c **** 	 * The peripheral clock has a period of 33.3ns.  3 pclk periods makes one
 855:bluetooth_rxtx.c **** 	 * CLK100NS period (100 ns).
 856:bluetooth_rxtx.c **** 	 */
 857:bluetooth_rxtx.c **** 	T0PR = 2;
 858:bluetooth_rxtx.c **** #else
 859:bluetooth_rxtx.c **** 	/*
 860:bluetooth_rxtx.c **** 	 * The peripheral clock has a period of 20ns.  5 pclk periods
 861:bluetooth_rxtx.c **** 	 * makes one CLK100NS period (100 ns).
 862:bluetooth_rxtx.c **** 	 */
 863:bluetooth_rxtx.c **** 	T0PR = 4;
 3683              		.loc 1 863 0
 3684 0010 0B4B     		ldr	r3, .L160+8
 3685 0012 0422     		movs	r2, #4
 3686 0014 1A60     		str	r2, [r3]
 864:bluetooth_rxtx.c **** #endif
 865:bluetooth_rxtx.c **** 	/* 3125 * 100 ns = 312.5 us, the Bluetooth clock (CLKN). */
 866:bluetooth_rxtx.c **** 	T0MR0 = 3124;
 3687              		.loc 1 866 0
 3688 0016 0B4B     		ldr	r3, .L160+12
 3689 0018 40F63442 		movw	r2, #3124
 3690 001c 1A60     		str	r2, [r3]
 867:bluetooth_rxtx.c **** 	T0MCR = TMCR_MR0R | TMCR_MR0I;
 3691              		.loc 1 867 0
 3692 001e 0A4B     		ldr	r3, .L160+16
 3693 0020 0322     		movs	r2, #3
 3694 0022 1A60     		str	r2, [r3]
ARM GAS  /tmp/ccXEAChk.s 			page 80


 868:bluetooth_rxtx.c **** 	ISER0 = ISER0_ISE_TIMER0;
 3695              		.loc 1 868 0
 3696 0024 094B     		ldr	r3, .L160+20
 3697 0026 0222     		movs	r2, #2
 3698 0028 1A60     		str	r2, [r3]
 869:bluetooth_rxtx.c **** 
 870:bluetooth_rxtx.c **** 	/* start timer */
 871:bluetooth_rxtx.c **** 	T0TCR = TCR_Counter_Enable;
 3699              		.loc 1 871 0
 3700 002a 034B     		ldr	r3, .L160
 3701 002c 0122     		movs	r2, #1
 3702 002e 1A60     		str	r2, [r3]
 872:bluetooth_rxtx.c **** }
 3703              		.loc 1 872 0
 3704 0030 BD46     		mov	sp, r7
 3705              		.cfi_def_cfa_register 13
 3706              		@ sp needed
 3707 0032 5DF8047B 		ldr	r7, [sp], #4
 3708              		.cfi_restore 7
 3709              		.cfi_def_cfa_offset 0
 3710 0036 7047     		bx	lr
 3711              	.L161:
 3712              		.align	2
 3713              	.L160:
 3714 0038 04400040 		.word	1073758212
 3715 003c 00000000 		.word	clkn
 3716 0040 0C400040 		.word	1073758220
 3717 0044 18400040 		.word	1073758232
 3718 0048 14400040 		.word	1073758228
 3719 004c 00E100E0 		.word	-536813312
 3720              		.cfi_endproc
 3721              	.LFE10:
 3723              		.section	.text.TIMER0_IRQHandler,"ax",%progbits
 3724              		.align	2
 3725              		.global	TIMER0_IRQHandler
 3726              		.thumb
 3727              		.thumb_func
 3729              	TIMER0_IRQHandler:
 3730              	.LFB11:
 873:bluetooth_rxtx.c **** 
 874:bluetooth_rxtx.c **** /* Update CLKN. */
 875:bluetooth_rxtx.c **** void TIMER0_IRQHandler()
 876:bluetooth_rxtx.c **** {
 3731              		.loc 1 876 0
 3732              		.cfi_startproc
 3733              		@ args = 0, pretend = 0, frame = 8
 3734              		@ frame_needed = 1, uses_anonymous_args = 0
 3735              		@ link register save eliminated.
 3736 0000 80B4     		push	{r7}
 3737              		.cfi_def_cfa_offset 4
 3738              		.cfi_offset 7, -4
 3739 0002 83B0     		sub	sp, sp, #12
 3740              		.cfi_def_cfa_offset 16
 3741 0004 00AF     		add	r7, sp, #0
 3742              		.cfi_def_cfa_register 7
 877:bluetooth_rxtx.c **** 	// Use non-volatile working register to shave off a couple instructions
 878:bluetooth_rxtx.c **** 	u32 next;
ARM GAS  /tmp/ccXEAChk.s 			page 81


 879:bluetooth_rxtx.c **** 	u32 le_clk;
 880:bluetooth_rxtx.c **** 
 881:bluetooth_rxtx.c **** 	if (T0IR & TIR_MR0_Interrupt) {
 3743              		.loc 1 881 0
 3744 0006 4FF04023 		mov	r3, #1073758208
 3745 000a 1B68     		ldr	r3, [r3]
 3746 000c 03F00103 		and	r3, r3, #1
 3747 0010 002B     		cmp	r3, #0
 3748 0012 6DD0     		beq	.L162
 882:bluetooth_rxtx.c **** 
 883:bluetooth_rxtx.c **** 		clkn++;
 3749              		.loc 1 883 0
 3750 0014 394B     		ldr	r3, .L172
 3751 0016 1B68     		ldr	r3, [r3]
 3752 0018 0133     		adds	r3, r3, #1
 3753 001a 384A     		ldr	r2, .L172
 3754 001c 1360     		str	r3, [r2]
 884:bluetooth_rxtx.c **** 		next = clkn;
 3755              		.loc 1 884 0
 3756 001e 374B     		ldr	r3, .L172
 3757 0020 1B68     		ldr	r3, [r3]
 3758 0022 7B60     		str	r3, [r7, #4]
 885:bluetooth_rxtx.c **** 		le_clk = (next - le.conn_epoch) & 0x03;
 3759              		.loc 1 885 0
 3760 0024 364B     		ldr	r3, .L172+4
 3761 0026 9B69     		ldr	r3, [r3, #24]
 3762 0028 7A68     		ldr	r2, [r7, #4]
 3763 002a D31A     		subs	r3, r2, r3
 3764 002c 03F00303 		and	r3, r3, #3
 3765 0030 3B60     		str	r3, [r7]
 886:bluetooth_rxtx.c **** 
 887:bluetooth_rxtx.c **** 		/* Trigger hop based on mode */
 888:bluetooth_rxtx.c **** 
 889:bluetooth_rxtx.c **** 		/* NONE or SWEEP -> 25 Hz */
 890:bluetooth_rxtx.c **** 		if (hop_mode == HOP_NONE || hop_mode == HOP_SWEEP) {
 3766              		.loc 1 890 0
 3767 0032 344B     		ldr	r3, .L172+8
 3768 0034 1B78     		ldrb	r3, [r3]	@ zero_extendqisi2
 3769 0036 002B     		cmp	r3, #0
 3770 0038 03D0     		beq	.L164
 3771              		.loc 1 890 0 is_stmt 0 discriminator 1
 3772 003a 324B     		ldr	r3, .L172+8
 3773 003c 1B78     		ldrb	r3, [r3]	@ zero_extendqisi2
 3774 003e 012B     		cmp	r3, #1
 3775 0040 09D1     		bne	.L165
 3776              	.L164:
 891:bluetooth_rxtx.c **** 			if ((next & 0x7f) == 0)
 3777              		.loc 1 891 0 is_stmt 1
 3778 0042 7B68     		ldr	r3, [r7, #4]
 3779 0044 03F07F03 		and	r3, r3, #127
 3780 0048 002B     		cmp	r3, #0
 3781 004a 03D1     		bne	.L166
 892:bluetooth_rxtx.c **** 				do_hop = 1;
 3782              		.loc 1 892 0
 3783 004c 2E4B     		ldr	r3, .L172+12
 3784 004e 0122     		movs	r2, #1
 3785 0050 1A70     		strb	r2, [r3]
ARM GAS  /tmp/ccXEAChk.s 			page 82


 891:bluetooth_rxtx.c **** 			if ((next & 0x7f) == 0)
 3786              		.loc 1 891 0
 3787 0052 37E0     		b	.L167
 3788              	.L166:
 3789 0054 36E0     		b	.L167
 3790              	.L165:
 893:bluetooth_rxtx.c **** 		}
 894:bluetooth_rxtx.c **** 		/* BLUETOOTH -> 1600 Hz */
 895:bluetooth_rxtx.c **** 		else if (hop_mode == HOP_BLUETOOTH) {
 3791              		.loc 1 895 0
 3792 0056 2B4B     		ldr	r3, .L172+8
 3793 0058 1B78     		ldrb	r3, [r3]	@ zero_extendqisi2
 3794 005a 022B     		cmp	r3, #2
 3795 005c 08D1     		bne	.L168
 896:bluetooth_rxtx.c **** 			if ((next & 0x1) == 0)
 3796              		.loc 1 896 0
 3797 005e 7B68     		ldr	r3, [r7, #4]
 3798 0060 03F00103 		and	r3, r3, #1
 3799 0064 002B     		cmp	r3, #0
 3800 0066 2DD1     		bne	.L167
 897:bluetooth_rxtx.c **** 				do_hop = 1;
 3801              		.loc 1 897 0
 3802 0068 274B     		ldr	r3, .L172+12
 3803 006a 0122     		movs	r2, #1
 3804 006c 1A70     		strb	r2, [r3]
 3805 006e 29E0     		b	.L167
 3806              	.L168:
 898:bluetooth_rxtx.c **** 		}
 899:bluetooth_rxtx.c **** 		/* BLUETOOTH Low Energy -> 7.5ms - 4.0s in multiples of 1.25 ms */
 900:bluetooth_rxtx.c **** 		else if (hop_mode == HOP_BTLE) {
 3807              		.loc 1 900 0
 3808 0070 244B     		ldr	r3, .L172+8
 3809 0072 1B78     		ldrb	r3, [r3]	@ zero_extendqisi2
 3810 0074 032B     		cmp	r3, #3
 3811 0076 25D1     		bne	.L167
 901:bluetooth_rxtx.c **** 			// Only hop if connected
 902:bluetooth_rxtx.c **** 			if (le.link_state == LINK_CONNECTED && le_clk == 0) {
 3812              		.loc 1 902 0
 3813 0078 214B     		ldr	r3, .L172+4
 3814 007a 1B7D     		ldrb	r3, [r3, #20]	@ zero_extendqisi2
 3815 007c 032B     		cmp	r3, #3
 3816 007e 21D1     		bne	.L167
 3817              		.loc 1 902 0 is_stmt 0 discriminator 1
 3818 0080 3B68     		ldr	r3, [r7]
 3819 0082 002B     		cmp	r3, #0
 3820 0084 1ED1     		bne	.L167
 903:bluetooth_rxtx.c **** 				--le.interval_timer;
 3821              		.loc 1 903 0 is_stmt 1
 3822 0086 1E4B     		ldr	r3, .L172+4
 3823 0088 9B8B     		ldrh	r3, [r3, #28]	@ movhi
 3824 008a 9BB2     		uxth	r3, r3
 3825 008c 013B     		subs	r3, r3, #1
 3826 008e 9AB2     		uxth	r2, r3
 3827 0090 1B4B     		ldr	r3, .L172+4
 3828 0092 9A83     		strh	r2, [r3, #28]	@ movhi
 904:bluetooth_rxtx.c **** 				if (le.interval_timer == 0) {
 3829              		.loc 1 904 0
ARM GAS  /tmp/ccXEAChk.s 			page 83


 3830 0094 1A4B     		ldr	r3, .L172+4
 3831 0096 9B8B     		ldrh	r3, [r3, #28]	@ movhi
 3832 0098 9BB2     		uxth	r3, r3
 3833 009a 002B     		cmp	r3, #0
 3834 009c 0ED1     		bne	.L170
 905:bluetooth_rxtx.c **** 					do_hop = 1;
 3835              		.loc 1 905 0
 3836 009e 1A4B     		ldr	r3, .L172+12
 3837 00a0 0122     		movs	r2, #1
 3838 00a2 1A70     		strb	r2, [r3]
 906:bluetooth_rxtx.c **** 					++le.conn_count;
 3839              		.loc 1 906 0
 3840 00a4 164B     		ldr	r3, .L172+4
 3841 00a6 1B8C     		ldrh	r3, [r3, #32]	@ movhi
 3842 00a8 9BB2     		uxth	r3, r3
 3843 00aa 0133     		adds	r3, r3, #1
 3844 00ac 9AB2     		uxth	r2, r3
 3845 00ae 144B     		ldr	r3, .L172+4
 3846 00b0 1A84     		strh	r2, [r3, #32]	@ movhi
 907:bluetooth_rxtx.c **** 					le.interval_timer = le.conn_interval;
 3847              		.loc 1 907 0
 3848 00b2 134B     		ldr	r3, .L172+4
 3849 00b4 DA8B     		ldrh	r2, [r3, #30]
 3850 00b6 124B     		ldr	r3, .L172+4
 3851 00b8 9A83     		strh	r2, [r3, #28]	@ movhi
 3852 00ba 03E0     		b	.L167
 3853              	.L170:
 908:bluetooth_rxtx.c **** 				} else {
 909:bluetooth_rxtx.c **** 					TXLED_CLR; // hack!
 3854              		.loc 1 909 0
 3855 00bc 134B     		ldr	r3, .L172+16
 3856 00be 4FF48072 		mov	r2, #256
 3857 00c2 1A60     		str	r2, [r3]
 3858              	.L167:
 910:bluetooth_rxtx.c **** 				}
 911:bluetooth_rxtx.c **** 			}
 912:bluetooth_rxtx.c **** 		}
 913:bluetooth_rxtx.c **** 
 914:bluetooth_rxtx.c **** 		/* Keepalive trigger fires at 3200/2^9 = 6.25 Hz */
 915:bluetooth_rxtx.c **** 		if ((next & 0x1ff) == 0)
 3859              		.loc 1 915 0
 3860 00c4 7B68     		ldr	r3, [r7, #4]
 3861 00c6 C3F30803 		ubfx	r3, r3, #0, #9
 3862 00ca 002B     		cmp	r3, #0
 3863 00cc 02D1     		bne	.L171
 916:bluetooth_rxtx.c **** 			keepalive_trigger = 1;
 3864              		.loc 1 916 0
 3865 00ce 104B     		ldr	r3, .L172+20
 3866 00d0 0122     		movs	r2, #1
 3867 00d2 1A70     		strb	r2, [r3]
 3868              	.L171:
 917:bluetooth_rxtx.c **** 
 918:bluetooth_rxtx.c **** 		/* Ack interrupt */
 919:bluetooth_rxtx.c **** 		T0MR0 = 3124 - clock_trim;
 3869              		.loc 1 919 0
 3870 00d4 0F4A     		ldr	r2, .L172+24
 3871 00d6 104B     		ldr	r3, .L172+28
ARM GAS  /tmp/ccXEAChk.s 			page 84


 3872 00d8 1B68     		ldr	r3, [r3]
 3873 00da C3F54363 		rsb	r3, r3, #3120
 3874 00de 0433     		adds	r3, r3, #4
 3875 00e0 1360     		str	r3, [r2]
 920:bluetooth_rxtx.c **** 		clock_trim = 0;
 3876              		.loc 1 920 0
 3877 00e2 0D4B     		ldr	r3, .L172+28
 3878 00e4 0022     		movs	r2, #0
 3879 00e6 1A60     		str	r2, [r3]
 921:bluetooth_rxtx.c **** 		T0IR = TIR_MR0_Interrupt;
 3880              		.loc 1 921 0
 3881 00e8 4FF04023 		mov	r3, #1073758208
 3882 00ec 0122     		movs	r2, #1
 3883 00ee 1A60     		str	r2, [r3]
 3884              	.L162:
 922:bluetooth_rxtx.c **** 	}
 923:bluetooth_rxtx.c **** }
 3885              		.loc 1 923 0
 3886 00f0 0C37     		adds	r7, r7, #12
 3887              		.cfi_def_cfa_offset 4
 3888 00f2 BD46     		mov	sp, r7
 3889              		.cfi_def_cfa_register 13
 3890              		@ sp needed
 3891 00f4 5DF8047B 		ldr	r7, [sp], #4
 3892              		.cfi_restore 7
 3893              		.cfi_def_cfa_offset 0
 3894 00f8 7047     		bx	lr
 3895              	.L173:
 3896 00fa 00BF     		.align	2
 3897              	.L172:
 3898 00fc 00000000 		.word	clkn
 3899 0100 00000000 		.word	le
 3900 0104 00000000 		.word	hop_mode
 3901 0108 00000000 		.word	do_hop
 3902 010c 3CC00920 		.word	537509948
 3903 0110 00000000 		.word	keepalive_trigger
 3904 0114 18400040 		.word	1073758232
 3905 0118 00000000 		.word	clock_trim
 3906              		.cfi_endproc
 3907              	.LFE11:
 3909              		.section	.text.EINT3_IRQHandler,"ax",%progbits
 3910              		.align	2
 3911              		.global	EINT3_IRQHandler
 3912              		.thumb
 3913              		.thumb_func
 3915              	EINT3_IRQHandler:
 3916              	.LFB12:
 924:bluetooth_rxtx.c **** 
 925:bluetooth_rxtx.c **** /* EINT3 handler is also defined in ubertooth.c for TC13BADGE. */
 926:bluetooth_rxtx.c **** #ifndef TC13BADGE
 927:bluetooth_rxtx.c **** //static volatile u8 txledstate = 1;
 928:bluetooth_rxtx.c **** void EINT3_IRQHandler()
 929:bluetooth_rxtx.c **** {
 3917              		.loc 1 929 0
 3918              		.cfi_startproc
 3919              		@ args = 0, pretend = 0, frame = 0
 3920              		@ frame_needed = 1, uses_anonymous_args = 0
ARM GAS  /tmp/ccXEAChk.s 			page 85


 3921              		@ link register save eliminated.
 3922 0000 80B4     		push	{r7}
 3923              		.cfi_def_cfa_offset 4
 3924              		.cfi_offset 7, -4
 3925 0002 00AF     		add	r7, sp, #0
 3926              		.cfi_def_cfa_register 7
 930:bluetooth_rxtx.c **** 	/* TODO - check specific source of shared interrupt */
 931:bluetooth_rxtx.c **** 	IO2IntClr = PIN_GIO6;            // clear interrupt
 3927              		.loc 1 931 0
 3928 0004 0B4B     		ldr	r3, .L175
 3929 0006 0422     		movs	r2, #4
 3930 0008 1A60     		str	r2, [r3]
 932:bluetooth_rxtx.c **** 	cs_trigger = 1;                  // signal trigger
 3931              		.loc 1 932 0
 3932 000a 0B4B     		ldr	r3, .L175+4
 3933 000c 0122     		movs	r2, #1
 3934 000e 1A70     		strb	r2, [r3]
 933:bluetooth_rxtx.c **** 	cs_timestamp = CLK100NS;         // time at trigger
 3935              		.loc 1 933 0
 3936 0010 0A4B     		ldr	r3, .L175+8
 3937 0012 1B68     		ldr	r3, [r3]
 3938 0014 C3F31303 		ubfx	r3, r3, #0, #20
 3939 0018 40F63542 		movw	r2, #3125
 3940 001c 02FB03F2 		mul	r2, r2, r3
 3941 0020 074B     		ldr	r3, .L175+12
 3942 0022 1B68     		ldr	r3, [r3]
 3943 0024 1344     		add	r3, r3, r2
 3944 0026 074A     		ldr	r2, .L175+16
 3945 0028 1360     		str	r3, [r2]
 934:bluetooth_rxtx.c **** }
 3946              		.loc 1 934 0
 3947 002a BD46     		mov	sp, r7
 3948              		.cfi_def_cfa_register 13
 3949              		@ sp needed
 3950 002c 5DF8047B 		ldr	r7, [sp], #4
 3951              		.cfi_restore 7
 3952              		.cfi_def_cfa_offset 0
 3953 0030 7047     		bx	lr
 3954              	.L176:
 3955 0032 00BF     		.align	2
 3956              	.L175:
 3957 0034 AC800240 		.word	1073905836
 3958 0038 00000000 		.word	cs_trigger
 3959 003c 00000000 		.word	clkn
 3960 0040 08400040 		.word	1073758216
 3961 0044 00000000 		.word	cs_timestamp
 3962              		.cfi_endproc
 3963              	.LFE12:
 3965              		.global	__aeabi_ui2d
 3966              		.global	__aeabi_dmul
 3967              		.global	__aeabi_ddiv
 3968              		.global	__aeabi_dadd
 3969              		.global	__aeabi_d2uiz
 3970              		.section	.text.msleep,"ax",%progbits
 3971              		.align	2
 3972              		.thumb
 3973              		.thumb_func
ARM GAS  /tmp/ccXEAChk.s 			page 86


 3975              	msleep:
 3976              	.LFB13:
 935:bluetooth_rxtx.c **** #endif // TC13BADGE
 936:bluetooth_rxtx.c **** 
 937:bluetooth_rxtx.c **** /* Sleep (busy wait) for 'millis' milliseconds. The 'wait' routines in
 938:bluetooth_rxtx.c ****  * ubertooth.c are matched to the clock setup at boot time and can not
 939:bluetooth_rxtx.c ****  * be used while the board is running at 100MHz. */
 940:bluetooth_rxtx.c **** static void msleep(uint32_t millis)
 941:bluetooth_rxtx.c **** {
 3977              		.loc 1 941 0
 3978              		.cfi_startproc
 3979              		@ args = 0, pretend = 0, frame = 16
 3980              		@ frame_needed = 1, uses_anonymous_args = 0
 3981 0000 B0B5     		push	{r4, r5, r7, lr}
 3982              		.cfi_def_cfa_offset 16
 3983              		.cfi_offset 4, -16
 3984              		.cfi_offset 5, -12
 3985              		.cfi_offset 7, -8
 3986              		.cfi_offset 14, -4
 3987 0002 84B0     		sub	sp, sp, #16
 3988              		.cfi_def_cfa_offset 32
 3989 0004 00AF     		add	r7, sp, #0
 3990              		.cfi_def_cfa_register 7
 3991 0006 7860     		str	r0, [r7, #4]
 942:bluetooth_rxtx.c **** 	uint32_t stop_at = clkn + millis * 312.5 / 1000;  // millis -> clkn ticks
 3992              		.loc 1 942 0
 3993 0008 1B4B     		ldr	r3, .L179+8
 3994 000a 1B68     		ldr	r3, [r3]
 3995 000c 1846     		mov	r0, r3
 3996 000e FFF7FEFF 		bl	__aeabi_ui2d
 3997 0012 0446     		mov	r4, r0
 3998 0014 0D46     		mov	r5, r1
 3999 0016 7868     		ldr	r0, [r7, #4]
 4000 0018 FFF7FEFF 		bl	__aeabi_ui2d
 4001 001c 0246     		mov	r2, r0
 4002 001e 0B46     		mov	r3, r1
 4003 0020 1046     		mov	r0, r2
 4004 0022 1946     		mov	r1, r3
 4005 0024 12A3     		adr	r3, .L179
 4006 0026 D3E90023 		ldrd	r2, [r3]
 4007 002a FFF7FEFF 		bl	__aeabi_dmul
 4008 002e 0246     		mov	r2, r0
 4009 0030 0B46     		mov	r3, r1
 4010 0032 1046     		mov	r0, r2
 4011 0034 1946     		mov	r1, r3
 4012 0036 4FF00002 		mov	r2, #0
 4013 003a 104B     		ldr	r3, .L179+12
 4014 003c FFF7FEFF 		bl	__aeabi_ddiv
 4015 0040 0246     		mov	r2, r0
 4016 0042 0B46     		mov	r3, r1
 4017 0044 2046     		mov	r0, r4
 4018 0046 2946     		mov	r1, r5
 4019 0048 FFF7FEFF 		bl	__aeabi_dadd
 4020 004c 0246     		mov	r2, r0
 4021 004e 0B46     		mov	r3, r1
 4022 0050 1046     		mov	r0, r2
 4023 0052 1946     		mov	r1, r3
ARM GAS  /tmp/ccXEAChk.s 			page 87


 4024 0054 FFF7FEFF 		bl	__aeabi_d2uiz
 4025 0058 0346     		mov	r3, r0
 4026 005a FB60     		str	r3, [r7, #12]
 4027              	.L178:
 943:bluetooth_rxtx.c **** 	do { } while (clkn < stop_at);                   // TODO: handle wrapping
 4028              		.loc 1 943 0 discriminator 1
 4029 005c 064B     		ldr	r3, .L179+8
 4030 005e 1A68     		ldr	r2, [r3]
 4031 0060 FB68     		ldr	r3, [r7, #12]
 4032 0062 9A42     		cmp	r2, r3
 4033 0064 FAD3     		bcc	.L178
 944:bluetooth_rxtx.c **** }
 4034              		.loc 1 944 0
 4035 0066 1037     		adds	r7, r7, #16
 4036              		.cfi_def_cfa_offset 16
 4037 0068 BD46     		mov	sp, r7
 4038              		.cfi_def_cfa_register 13
 4039              		@ sp needed
 4040 006a B0BD     		pop	{r4, r5, r7, pc}
 4041              	.L180:
 4042 006c AFF30080 		.align	3
 4043              	.L179:
 4044 0070 00000000 		.word	0
 4045 0074 00887340 		.word	1081313280
 4046 0078 00000000 		.word	clkn
 4047 007c 00408F40 		.word	1083129856
 4048              		.cfi_endproc
 4049              	.LFE13:
 4051              		.section	.text.dma_init,"ax",%progbits
 4052              		.align	2
 4053              		.thumb
 4054              		.thumb_func
 4056              	dma_init:
 4057              	.LFB14:
 945:bluetooth_rxtx.c **** 
 946:bluetooth_rxtx.c **** static void dma_init()
 947:bluetooth_rxtx.c **** {
 4058              		.loc 1 947 0
 4059              		.cfi_startproc
 4060              		@ args = 0, pretend = 0, frame = 0
 4061              		@ frame_needed = 1, uses_anonymous_args = 0
 4062              		@ link register save eliminated.
 4063 0000 80B4     		push	{r7}
 4064              		.cfi_def_cfa_offset 4
 4065              		.cfi_offset 7, -4
 4066 0002 00AF     		add	r7, sp, #0
 4067              		.cfi_def_cfa_register 7
 948:bluetooth_rxtx.c **** 	/* power up GPDMA controller */
 949:bluetooth_rxtx.c **** 	PCONP |= PCONP_PCGPDMA;
 4068              		.loc 1 949 0
 4069 0004 3F4A     		ldr	r2, .L183
 4070 0006 3F4B     		ldr	r3, .L183
 4071 0008 1B68     		ldr	r3, [r3]
 4072 000a 43F00053 		orr	r3, r3, #536870912
 4073 000e 1360     		str	r3, [r2]
 950:bluetooth_rxtx.c **** 
 951:bluetooth_rxtx.c **** 	/* zero out channel configs and clear interrupts */
ARM GAS  /tmp/ccXEAChk.s 			page 88


 952:bluetooth_rxtx.c **** 	DMACC0Config = 0;
 4074              		.loc 1 952 0
 4075 0010 3D4B     		ldr	r3, .L183+4
 4076 0012 0022     		movs	r2, #0
 4077 0014 1A60     		str	r2, [r3]
 953:bluetooth_rxtx.c **** 	DMACC1Config = 0;
 4078              		.loc 1 953 0
 4079 0016 3D4B     		ldr	r3, .L183+8
 4080 0018 0022     		movs	r2, #0
 4081 001a 1A60     		str	r2, [r3]
 954:bluetooth_rxtx.c **** 	DMACC2Config = 0;
 4082              		.loc 1 954 0
 4083 001c 3C4B     		ldr	r3, .L183+12
 4084 001e 0022     		movs	r2, #0
 4085 0020 1A60     		str	r2, [r3]
 955:bluetooth_rxtx.c **** 	DMACC3Config = 0;
 4086              		.loc 1 955 0
 4087 0022 3C4B     		ldr	r3, .L183+16
 4088 0024 0022     		movs	r2, #0
 4089 0026 1A60     		str	r2, [r3]
 956:bluetooth_rxtx.c **** 	DMACC4Config = 0;
 4090              		.loc 1 956 0
 4091 0028 3B4B     		ldr	r3, .L183+20
 4092 002a 0022     		movs	r2, #0
 4093 002c 1A60     		str	r2, [r3]
 957:bluetooth_rxtx.c **** 	DMACC5Config = 0;
 4094              		.loc 1 957 0
 4095 002e 3B4B     		ldr	r3, .L183+24
 4096 0030 0022     		movs	r2, #0
 4097 0032 1A60     		str	r2, [r3]
 958:bluetooth_rxtx.c **** 	DMACC6Config = 0;
 4098              		.loc 1 958 0
 4099 0034 3A4B     		ldr	r3, .L183+28
 4100 0036 0022     		movs	r2, #0
 4101 0038 1A60     		str	r2, [r3]
 959:bluetooth_rxtx.c **** 	DMACC7Config = 0;
 4102              		.loc 1 959 0
 4103 003a 3A4B     		ldr	r3, .L183+32
 4104 003c 0022     		movs	r2, #0
 4105 003e 1A60     		str	r2, [r3]
 960:bluetooth_rxtx.c **** 	DMACIntTCClear = 0xFF;
 4106              		.loc 1 960 0
 4107 0040 394B     		ldr	r3, .L183+36
 4108 0042 FF22     		movs	r2, #255
 4109 0044 1A60     		str	r2, [r3]
 961:bluetooth_rxtx.c **** 	DMACIntErrClr = 0xFF;
 4110              		.loc 1 961 0
 4111 0046 394B     		ldr	r3, .L183+40
 4112 0048 FF22     		movs	r2, #255
 4113 004a 1A60     		str	r2, [r3]
 962:bluetooth_rxtx.c **** 
 963:bluetooth_rxtx.c **** 	/* DMA linked lists */
 964:bluetooth_rxtx.c **** 	rx_dma_lli1.src = (u32)&(DIO_SSP_DR);
 4114              		.loc 1 964 0
 4115 004c 384B     		ldr	r3, .L183+44
 4116 004e 394A     		ldr	r2, .L183+48
 4117 0050 1A60     		str	r2, [r3]
ARM GAS  /tmp/ccXEAChk.s 			page 89


 965:bluetooth_rxtx.c **** 	rx_dma_lli1.dest = (u32)&rxbuf1[0];
 4118              		.loc 1 965 0
 4119 0052 394A     		ldr	r2, .L183+52
 4120 0054 364B     		ldr	r3, .L183+44
 4121 0056 5A60     		str	r2, [r3, #4]
 966:bluetooth_rxtx.c **** 	rx_dma_lli1.next_lli = (u32)&rx_dma_lli2;
 4122              		.loc 1 966 0
 4123 0058 384A     		ldr	r2, .L183+56
 4124 005a 354B     		ldr	r3, .L183+44
 4125 005c 9A60     		str	r2, [r3, #8]
 967:bluetooth_rxtx.c **** 	rx_dma_lli1.control = (DMA_SIZE) |
 4126              		.loc 1 967 0
 4127 005e 344B     		ldr	r3, .L183+44
 4128 0060 374A     		ldr	r2, .L183+60
 4129 0062 DA60     		str	r2, [r3, #12]
 968:bluetooth_rxtx.c **** 			(1 << 12) |        /* source burst size = 4 */
 969:bluetooth_rxtx.c **** 			(1 << 15) |        /* destination burst size = 4 */
 970:bluetooth_rxtx.c **** 			(0 << 18) |        /* source width 8 bits */
 971:bluetooth_rxtx.c **** 			(0 << 21) |        /* destination width 8 bits */
 972:bluetooth_rxtx.c **** 			DMACCxControl_DI | /* destination increment */
 973:bluetooth_rxtx.c **** 			DMACCxControl_I;   /* terminal count interrupt enable */
 974:bluetooth_rxtx.c **** 
 975:bluetooth_rxtx.c **** 	rx_dma_lli2.src = (u32)&(DIO_SSP_DR);
 4130              		.loc 1 975 0
 4131 0064 354B     		ldr	r3, .L183+56
 4132 0066 334A     		ldr	r2, .L183+48
 4133 0068 1A60     		str	r2, [r3]
 976:bluetooth_rxtx.c **** 	rx_dma_lli2.dest = (u32)&rxbuf2[0];
 4134              		.loc 1 976 0
 4135 006a 364A     		ldr	r2, .L183+64
 4136 006c 334B     		ldr	r3, .L183+56
 4137 006e 5A60     		str	r2, [r3, #4]
 977:bluetooth_rxtx.c **** 	rx_dma_lli2.next_lli = (u32)&rx_dma_lli1;
 4138              		.loc 1 977 0
 4139 0070 2F4A     		ldr	r2, .L183+44
 4140 0072 324B     		ldr	r3, .L183+56
 4141 0074 9A60     		str	r2, [r3, #8]
 978:bluetooth_rxtx.c **** 	rx_dma_lli2.control = (DMA_SIZE) |
 4142              		.loc 1 978 0
 4143 0076 314B     		ldr	r3, .L183+56
 4144 0078 314A     		ldr	r2, .L183+60
 4145 007a DA60     		str	r2, [r3, #12]
 979:bluetooth_rxtx.c **** 			(1 << 12) |        /* source burst size = 4 */
 980:bluetooth_rxtx.c **** 			(1 << 15) |        /* destination burst size = 4 */
 981:bluetooth_rxtx.c **** 			(0 << 18) |        /* source width 8 bits */
 982:bluetooth_rxtx.c **** 			(0 << 21) |        /* destination width 8 bits */
 983:bluetooth_rxtx.c **** 			DMACCxControl_DI | /* destination increment */
 984:bluetooth_rxtx.c **** 			DMACCxControl_I;   /* terminal count interrupt enable */
 985:bluetooth_rxtx.c **** 
 986:bluetooth_rxtx.c **** 	/* disable DMA interrupts */
 987:bluetooth_rxtx.c **** 	ICER0 = ICER0_ICE_DMA;
 4146              		.loc 1 987 0
 4147 007c 324B     		ldr	r3, .L183+68
 4148 007e 4FF08062 		mov	r2, #67108864
 4149 0082 1A60     		str	r2, [r3]
 988:bluetooth_rxtx.c **** 
 989:bluetooth_rxtx.c **** 	/* enable DMA globally */
ARM GAS  /tmp/ccXEAChk.s 			page 90


 990:bluetooth_rxtx.c **** 	DMACConfig = DMACConfig_E;
 4150              		.loc 1 990 0
 4151 0084 314B     		ldr	r3, .L183+72
 4152 0086 0122     		movs	r2, #1
 4153 0088 1A60     		str	r2, [r3]
 991:bluetooth_rxtx.c **** 	while (!(DMACConfig & DMACConfig_E));
 4154              		.loc 1 991 0
 4155 008a 00BF     		nop
 4156              	.L182:
 4157              		.loc 1 991 0 is_stmt 0 discriminator 1
 4158 008c 2F4B     		ldr	r3, .L183+72
 4159 008e 1B68     		ldr	r3, [r3]
 4160 0090 03F00103 		and	r3, r3, #1
 4161 0094 002B     		cmp	r3, #0
 4162 0096 F9D0     		beq	.L182
 992:bluetooth_rxtx.c **** 
 993:bluetooth_rxtx.c **** 	/* configure DMA channel 1 */
 994:bluetooth_rxtx.c **** 	DMACC0SrcAddr = rx_dma_lli1.src;
 4163              		.loc 1 994 0 is_stmt 1
 4164 0098 2D4A     		ldr	r2, .L183+76
 4165 009a 254B     		ldr	r3, .L183+44
 4166 009c 1B68     		ldr	r3, [r3]
 4167 009e 1360     		str	r3, [r2]
 995:bluetooth_rxtx.c **** 	DMACC0DestAddr = rx_dma_lli1.dest;
 4168              		.loc 1 995 0
 4169 00a0 2C4A     		ldr	r2, .L183+80
 4170 00a2 234B     		ldr	r3, .L183+44
 4171 00a4 5B68     		ldr	r3, [r3, #4]
 4172 00a6 1360     		str	r3, [r2]
 996:bluetooth_rxtx.c **** 	DMACC0LLI = rx_dma_lli1.next_lli;
 4173              		.loc 1 996 0
 4174 00a8 2B4A     		ldr	r2, .L183+84
 4175 00aa 214B     		ldr	r3, .L183+44
 4176 00ac 9B68     		ldr	r3, [r3, #8]
 4177 00ae 1360     		str	r3, [r2]
 997:bluetooth_rxtx.c **** 	DMACC0Control = rx_dma_lli1.control;
 4178              		.loc 1 997 0
 4179 00b0 2A4A     		ldr	r2, .L183+88
 4180 00b2 1F4B     		ldr	r3, .L183+44
 4181 00b4 DB68     		ldr	r3, [r3, #12]
 4182 00b6 1360     		str	r3, [r2]
 998:bluetooth_rxtx.c **** 	DMACC0Config =
 4183              		.loc 1 998 0
 4184 00b8 134B     		ldr	r3, .L183+4
 4185 00ba 4DF20602 		movw	r2, #53254
 4186 00be 1A60     		str	r2, [r3]
 999:bluetooth_rxtx.c **** 			DIO_SSP_SRC |
1000:bluetooth_rxtx.c **** 			(0x2 << 11) |           /* peripheral to memory */
1001:bluetooth_rxtx.c **** 			DMACCxConfig_IE |       /* allow error interrupts */
1002:bluetooth_rxtx.c **** 			DMACCxConfig_ITC;       /* allow terminal count interrupts */
1003:bluetooth_rxtx.c **** 
1004:bluetooth_rxtx.c **** 	active_buf_clkn_high = (clkn >> 20) & 0xff;
 4187              		.loc 1 1004 0
 4188 00c0 274B     		ldr	r3, .L183+92
 4189 00c2 1B68     		ldr	r3, [r3]
 4190 00c4 1B0D     		lsrs	r3, r3, #20
 4191 00c6 DBB2     		uxtb	r3, r3
ARM GAS  /tmp/ccXEAChk.s 			page 91


 4192 00c8 264A     		ldr	r2, .L183+96
 4193 00ca 1360     		str	r3, [r2]
1005:bluetooth_rxtx.c **** 	active_buf_clk100ns = CLK100NS;
 4194              		.loc 1 1005 0
 4195 00cc 244B     		ldr	r3, .L183+92
 4196 00ce 1B68     		ldr	r3, [r3]
 4197 00d0 C3F31303 		ubfx	r3, r3, #0, #20
 4198 00d4 40F63542 		movw	r2, #3125
 4199 00d8 02FB03F2 		mul	r2, r2, r3
 4200 00dc 224B     		ldr	r3, .L183+100
 4201 00de 1B68     		ldr	r3, [r3]
 4202 00e0 1344     		add	r3, r3, r2
 4203 00e2 224A     		ldr	r2, .L183+104
 4204 00e4 1360     		str	r3, [r2]
1006:bluetooth_rxtx.c **** 	active_buf_channel = channel;
 4205              		.loc 1 1006 0
 4206 00e6 224B     		ldr	r3, .L183+108
 4207 00e8 1B88     		ldrh	r3, [r3]	@ movhi
 4208 00ea 9AB2     		uxth	r2, r3
 4209 00ec 214B     		ldr	r3, .L183+112
 4210 00ee 1A80     		strh	r2, [r3]	@ movhi
1007:bluetooth_rxtx.c **** 
1008:bluetooth_rxtx.c **** 	/* reset interrupt counters */
1009:bluetooth_rxtx.c **** 	rx_tc = 0;
 4211              		.loc 1 1009 0
 4212 00f0 214B     		ldr	r3, .L183+116
 4213 00f2 0022     		movs	r2, #0
 4214 00f4 1A60     		str	r2, [r3]
1010:bluetooth_rxtx.c **** 	rx_err = 0;
 4215              		.loc 1 1010 0
 4216 00f6 214B     		ldr	r3, .L183+120
 4217 00f8 0022     		movs	r2, #0
 4218 00fa 1A60     		str	r2, [r3]
1011:bluetooth_rxtx.c **** }
 4219              		.loc 1 1011 0
 4220 00fc BD46     		mov	sp, r7
 4221              		.cfi_def_cfa_register 13
 4222              		@ sp needed
 4223 00fe 5DF8047B 		ldr	r7, [sp], #4
 4224              		.cfi_restore 7
 4225              		.cfi_def_cfa_offset 0
 4226 0102 7047     		bx	lr
 4227              	.L184:
 4228              		.align	2
 4229              	.L183:
 4230 0104 C4C00F40 		.word	1074774212
 4231 0108 10410050 		.word	1342193936
 4232 010c 30410050 		.word	1342193968
 4233 0110 50410050 		.word	1342194000
 4234 0114 70410050 		.word	1342194032
 4235 0118 90410050 		.word	1342194064
 4236 011c B0410050 		.word	1342194096
 4237 0120 D0410050 		.word	1342194128
 4238 0124 F0410050 		.word	1342194160
 4239 0128 08400050 		.word	1342193672
 4240 012c 10400050 		.word	1342193680
 4241 0130 00000000 		.word	rx_dma_lli1
ARM GAS  /tmp/ccXEAChk.s 			page 92


 4242 0134 08000340 		.word	1073938440
 4243 0138 00000000 		.word	rxbuf1
 4244 013c 00000000 		.word	rx_dma_lli2
 4245 0140 32900088 		.word	-2013229006
 4246 0144 00000000 		.word	rxbuf2
 4247 0148 80E100E0 		.word	-536813184
 4248 014c 30400050 		.word	1342193712
 4249 0150 00410050 		.word	1342193920
 4250 0154 04410050 		.word	1342193924
 4251 0158 08410050 		.word	1342193928
 4252 015c 0C410050 		.word	1342193932
 4253 0160 00000000 		.word	clkn
 4254 0164 00000000 		.word	active_buf_clkn_high
 4255 0168 08400040 		.word	1073758216
 4256 016c 00000000 		.word	active_buf_clk100ns
 4257 0170 00000000 		.word	channel
 4258 0174 00000000 		.word	active_buf_channel
 4259 0178 00000000 		.word	rx_tc
 4260 017c 00000000 		.word	rx_err
 4261              		.cfi_endproc
 4262              	.LFE14:
 4264              		.section	.text.dma_init_le,"ax",%progbits
 4265              		.align	2
 4266              		.thumb
 4267              		.thumb_func
 4269              	dma_init_le:
 4270              	.LFB15:
1012:bluetooth_rxtx.c **** 
1013:bluetooth_rxtx.c **** static void dma_init_le()
1014:bluetooth_rxtx.c **** {
 4271              		.loc 1 1014 0
 4272              		.cfi_startproc
 4273              		@ args = 0, pretend = 0, frame = 8
 4274              		@ frame_needed = 1, uses_anonymous_args = 0
 4275              		@ link register save eliminated.
 4276 0000 80B4     		push	{r7}
 4277              		.cfi_def_cfa_offset 4
 4278              		.cfi_offset 7, -4
 4279 0002 83B0     		sub	sp, sp, #12
 4280              		.cfi_def_cfa_offset 16
 4281 0004 00AF     		add	r7, sp, #0
 4282              		.cfi_def_cfa_register 7
1015:bluetooth_rxtx.c **** 	int i;
1016:bluetooth_rxtx.c **** 
1017:bluetooth_rxtx.c **** 	/* power up GPDMA controller */
1018:bluetooth_rxtx.c **** 	PCONP |= PCONP_PCGPDMA;
 4283              		.loc 1 1018 0
 4284 0006 4B4A     		ldr	r2, .L191
 4285 0008 4A4B     		ldr	r3, .L191
 4286 000a 1B68     		ldr	r3, [r3]
 4287 000c 43F00053 		orr	r3, r3, #536870912
 4288 0010 1360     		str	r3, [r2]
1019:bluetooth_rxtx.c **** 
1020:bluetooth_rxtx.c **** 	/* zero out channel configs and clear interrupts */
1021:bluetooth_rxtx.c **** 	DMACC0Config = 0;
 4289              		.loc 1 1021 0
 4290 0012 494B     		ldr	r3, .L191+4
ARM GAS  /tmp/ccXEAChk.s 			page 93


 4291 0014 0022     		movs	r2, #0
 4292 0016 1A60     		str	r2, [r3]
1022:bluetooth_rxtx.c **** 	DMACC1Config = 0;
 4293              		.loc 1 1022 0
 4294 0018 484B     		ldr	r3, .L191+8
 4295 001a 0022     		movs	r2, #0
 4296 001c 1A60     		str	r2, [r3]
1023:bluetooth_rxtx.c **** 	DMACC2Config = 0;
 4297              		.loc 1 1023 0
 4298 001e 484B     		ldr	r3, .L191+12
 4299 0020 0022     		movs	r2, #0
 4300 0022 1A60     		str	r2, [r3]
1024:bluetooth_rxtx.c **** 	DMACC3Config = 0;
 4301              		.loc 1 1024 0
 4302 0024 474B     		ldr	r3, .L191+16
 4303 0026 0022     		movs	r2, #0
 4304 0028 1A60     		str	r2, [r3]
1025:bluetooth_rxtx.c **** 	DMACC4Config = 0;
 4305              		.loc 1 1025 0
 4306 002a 474B     		ldr	r3, .L191+20
 4307 002c 0022     		movs	r2, #0
 4308 002e 1A60     		str	r2, [r3]
1026:bluetooth_rxtx.c **** 	DMACC5Config = 0;
 4309              		.loc 1 1026 0
 4310 0030 464B     		ldr	r3, .L191+24
 4311 0032 0022     		movs	r2, #0
 4312 0034 1A60     		str	r2, [r3]
1027:bluetooth_rxtx.c **** 	DMACC6Config = 0;
 4313              		.loc 1 1027 0
 4314 0036 464B     		ldr	r3, .L191+28
 4315 0038 0022     		movs	r2, #0
 4316 003a 1A60     		str	r2, [r3]
1028:bluetooth_rxtx.c **** 	DMACC7Config = 0;
 4317              		.loc 1 1028 0
 4318 003c 454B     		ldr	r3, .L191+32
 4319 003e 0022     		movs	r2, #0
 4320 0040 1A60     		str	r2, [r3]
1029:bluetooth_rxtx.c **** 	DMACIntTCClear = 0xFF;
 4321              		.loc 1 1029 0
 4322 0042 454B     		ldr	r3, .L191+36
 4323 0044 FF22     		movs	r2, #255
 4324 0046 1A60     		str	r2, [r3]
1030:bluetooth_rxtx.c **** 	DMACIntErrClr = 0xFF;
 4325              		.loc 1 1030 0
 4326 0048 444B     		ldr	r3, .L191+40
 4327 004a FF22     		movs	r2, #255
 4328 004c 1A60     		str	r2, [r3]
1031:bluetooth_rxtx.c **** 
1032:bluetooth_rxtx.c **** 	/* enable DMA globally */
1033:bluetooth_rxtx.c **** 	DMACConfig = DMACConfig_E;
 4329              		.loc 1 1033 0
 4330 004e 444B     		ldr	r3, .L191+44
 4331 0050 0122     		movs	r2, #1
 4332 0052 1A60     		str	r2, [r3]
1034:bluetooth_rxtx.c **** 	while (!(DMACConfig & DMACConfig_E));
 4333              		.loc 1 1034 0
 4334 0054 00BF     		nop
ARM GAS  /tmp/ccXEAChk.s 			page 94


 4335              	.L186:
 4336              		.loc 1 1034 0 is_stmt 0 discriminator 1
 4337 0056 424B     		ldr	r3, .L191+44
 4338 0058 1B68     		ldr	r3, [r3]
 4339 005a 03F00103 		and	r3, r3, #1
 4340 005e 002B     		cmp	r3, #0
 4341 0060 F9D0     		beq	.L186
1035:bluetooth_rxtx.c **** 
1036:bluetooth_rxtx.c **** 	for (i = 0; i < 11; ++i) {
 4342              		.loc 1 1036 0 is_stmt 1
 4343 0062 0023     		movs	r3, #0
 4344 0064 7B60     		str	r3, [r7, #4]
 4345 0066 2AE0     		b	.L187
 4346              	.L190:
1037:bluetooth_rxtx.c **** 		le_dma_lli[i].src = (u32)&(DIO_SSP_DR);
 4347              		.loc 1 1037 0
 4348 0068 3E4A     		ldr	r2, .L191+48
 4349 006a 7B68     		ldr	r3, [r7, #4]
 4350 006c 1B01     		lsls	r3, r3, #4
 4351 006e 1344     		add	r3, r3, r2
 4352 0070 3D4A     		ldr	r2, .L191+52
 4353 0072 1A60     		str	r2, [r3]
1038:bluetooth_rxtx.c **** 		le_dma_lli[i].dest = (u32)&rxbuf1[4 * i];
 4354              		.loc 1 1038 0
 4355 0074 7B68     		ldr	r3, [r7, #4]
 4356 0076 9B00     		lsls	r3, r3, #2
 4357 0078 3C4A     		ldr	r2, .L191+56
 4358 007a 1344     		add	r3, r3, r2
 4359 007c 1946     		mov	r1, r3
 4360 007e 394A     		ldr	r2, .L191+48
 4361 0080 7B68     		ldr	r3, [r7, #4]
 4362 0082 1B01     		lsls	r3, r3, #4
 4363 0084 1344     		add	r3, r3, r2
 4364 0086 5960     		str	r1, [r3, #4]
1039:bluetooth_rxtx.c **** 		le_dma_lli[i].next_lli = i < 10 ? (u32)&le_dma_lli[i+1] : 0;
 4365              		.loc 1 1039 0
 4366 0088 7B68     		ldr	r3, [r7, #4]
 4367 008a 092B     		cmp	r3, #9
 4368 008c 06DC     		bgt	.L188
 4369              		.loc 1 1039 0 is_stmt 0 discriminator 1
 4370 008e 7B68     		ldr	r3, [r7, #4]
 4371 0090 0133     		adds	r3, r3, #1
 4372 0092 1B01     		lsls	r3, r3, #4
 4373 0094 334A     		ldr	r2, .L191+48
 4374 0096 1344     		add	r3, r3, r2
 4375 0098 1A46     		mov	r2, r3
 4376 009a 00E0     		b	.L189
 4377              	.L188:
 4378              		.loc 1 1039 0 discriminator 2
 4379 009c 0022     		movs	r2, #0
 4380              	.L189:
 4381              		.loc 1 1039 0 discriminator 4
 4382 009e 3149     		ldr	r1, .L191+48
 4383 00a0 7B68     		ldr	r3, [r7, #4]
 4384 00a2 1B01     		lsls	r3, r3, #4
 4385 00a4 0B44     		add	r3, r3, r1
 4386 00a6 0833     		adds	r3, r3, #8
ARM GAS  /tmp/ccXEAChk.s 			page 95


 4387 00a8 1A60     		str	r2, [r3]
1040:bluetooth_rxtx.c **** 		le_dma_lli[i].control = 4 |
 4388              		.loc 1 1040 0 is_stmt 1 discriminator 4
 4389 00aa 2E4A     		ldr	r2, .L191+48
 4390 00ac 7B68     		ldr	r3, [r7, #4]
 4391 00ae 1B01     		lsls	r3, r3, #4
 4392 00b0 1344     		add	r3, r3, r2
 4393 00b2 0833     		adds	r3, r3, #8
 4394 00b4 2E4A     		ldr	r2, .L191+60
 4395 00b6 5A60     		str	r2, [r3, #4]
1036:bluetooth_rxtx.c **** 		le_dma_lli[i].src = (u32)&(DIO_SSP_DR);
 4396              		.loc 1 1036 0 discriminator 4
 4397 00b8 7B68     		ldr	r3, [r7, #4]
 4398 00ba 0133     		adds	r3, r3, #1
 4399 00bc 7B60     		str	r3, [r7, #4]
 4400              	.L187:
1036:bluetooth_rxtx.c **** 		le_dma_lli[i].src = (u32)&(DIO_SSP_DR);
 4401              		.loc 1 1036 0 is_stmt 0 discriminator 2
 4402 00be 7B68     		ldr	r3, [r7, #4]
 4403 00c0 0A2B     		cmp	r3, #10
 4404 00c2 D1DD     		ble	.L190
1041:bluetooth_rxtx.c **** 				(1 << 12) |        /* source burst size = 4 */
1042:bluetooth_rxtx.c **** 				(0 << 15) |        /* destination burst size = 1 */
1043:bluetooth_rxtx.c **** 				(0 << 18) |        /* source width 8 bits */
1044:bluetooth_rxtx.c **** 				(0 << 21) |        /* destination width 8 bits */
1045:bluetooth_rxtx.c **** 				DMACCxControl_DI | /* destination increment */
1046:bluetooth_rxtx.c **** 				DMACCxControl_I;   /* terminal count interrupt enable */
1047:bluetooth_rxtx.c **** 	}
1048:bluetooth_rxtx.c **** 
1049:bluetooth_rxtx.c **** 	/* configure DMA channel 0 */
1050:bluetooth_rxtx.c **** 	DMACC0SrcAddr = le_dma_lli[0].src;
 4405              		.loc 1 1050 0 is_stmt 1
 4406 00c4 2B4A     		ldr	r2, .L191+64
 4407 00c6 274B     		ldr	r3, .L191+48
 4408 00c8 1B68     		ldr	r3, [r3]
 4409 00ca 1360     		str	r3, [r2]
1051:bluetooth_rxtx.c **** 	DMACC0DestAddr = le_dma_lli[0].dest;
 4410              		.loc 1 1051 0
 4411 00cc 2A4A     		ldr	r2, .L191+68
 4412 00ce 254B     		ldr	r3, .L191+48
 4413 00d0 5B68     		ldr	r3, [r3, #4]
 4414 00d2 1360     		str	r3, [r2]
1052:bluetooth_rxtx.c **** 	DMACC0LLI = le_dma_lli[0].next_lli;
 4415              		.loc 1 1052 0
 4416 00d4 294A     		ldr	r2, .L191+72
 4417 00d6 234B     		ldr	r3, .L191+48
 4418 00d8 9B68     		ldr	r3, [r3, #8]
 4419 00da 1360     		str	r3, [r2]
1053:bluetooth_rxtx.c **** 	DMACC0Control = le_dma_lli[0].control;
 4420              		.loc 1 1053 0
 4421 00dc 284A     		ldr	r2, .L191+76
 4422 00de 214B     		ldr	r3, .L191+48
 4423 00e0 DB68     		ldr	r3, [r3, #12]
 4424 00e2 1360     		str	r3, [r2]
1054:bluetooth_rxtx.c **** 	DMACC0Config =
 4425              		.loc 1 1054 0
 4426 00e4 144B     		ldr	r3, .L191+4
ARM GAS  /tmp/ccXEAChk.s 			page 96


 4427 00e6 4DF20602 		movw	r2, #53254
 4428 00ea 1A60     		str	r2, [r3]
1055:bluetooth_rxtx.c **** 			DIO_SSP_SRC |
1056:bluetooth_rxtx.c **** 			(0x2 << 11) |           /* peripheral to memory */
1057:bluetooth_rxtx.c **** 			DMACCxConfig_IE |       /* allow error interrupts */
1058:bluetooth_rxtx.c **** 			DMACCxConfig_ITC;       /* allow terminal count interrupts */
1059:bluetooth_rxtx.c **** 
1060:bluetooth_rxtx.c **** 	active_buf_clkn_high = (clkn >> 20) & 0xff;
 4429              		.loc 1 1060 0
 4430 00ec 254B     		ldr	r3, .L191+80
 4431 00ee 1B68     		ldr	r3, [r3]
 4432 00f0 1B0D     		lsrs	r3, r3, #20
 4433 00f2 DBB2     		uxtb	r3, r3
 4434 00f4 244A     		ldr	r2, .L191+84
 4435 00f6 1360     		str	r3, [r2]
1061:bluetooth_rxtx.c **** 	active_buf_clk100ns = CLK100NS;
 4436              		.loc 1 1061 0
 4437 00f8 224B     		ldr	r3, .L191+80
 4438 00fa 1B68     		ldr	r3, [r3]
 4439 00fc C3F31303 		ubfx	r3, r3, #0, #20
 4440 0100 40F63542 		movw	r2, #3125
 4441 0104 02FB03F2 		mul	r2, r2, r3
 4442 0108 204B     		ldr	r3, .L191+88
 4443 010a 1B68     		ldr	r3, [r3]
 4444 010c 1344     		add	r3, r3, r2
 4445 010e 204A     		ldr	r2, .L191+92
 4446 0110 1360     		str	r3, [r2]
1062:bluetooth_rxtx.c **** 	active_buf_channel = channel;
 4447              		.loc 1 1062 0
 4448 0112 204B     		ldr	r3, .L191+96
 4449 0114 1B88     		ldrh	r3, [r3]	@ movhi
 4450 0116 9AB2     		uxth	r2, r3
 4451 0118 1F4B     		ldr	r3, .L191+100
 4452 011a 1A80     		strh	r2, [r3]	@ movhi
1063:bluetooth_rxtx.c **** 
1064:bluetooth_rxtx.c **** 	/* reset interrupt counters */
1065:bluetooth_rxtx.c **** 	rx_tc = 0;
 4453              		.loc 1 1065 0
 4454 011c 1F4B     		ldr	r3, .L191+104
 4455 011e 0022     		movs	r2, #0
 4456 0120 1A60     		str	r2, [r3]
1066:bluetooth_rxtx.c **** 	rx_err = 0;
 4457              		.loc 1 1066 0
 4458 0122 1F4B     		ldr	r3, .L191+108
 4459 0124 0022     		movs	r2, #0
 4460 0126 1A60     		str	r2, [r3]
1067:bluetooth_rxtx.c **** }
 4461              		.loc 1 1067 0
 4462 0128 0C37     		adds	r7, r7, #12
 4463              		.cfi_def_cfa_offset 4
 4464 012a BD46     		mov	sp, r7
 4465              		.cfi_def_cfa_register 13
 4466              		@ sp needed
 4467 012c 5DF8047B 		ldr	r7, [sp], #4
 4468              		.cfi_restore 7
 4469              		.cfi_def_cfa_offset 0
 4470 0130 7047     		bx	lr
ARM GAS  /tmp/ccXEAChk.s 			page 97


 4471              	.L192:
 4472 0132 00BF     		.align	2
 4473              	.L191:
 4474 0134 C4C00F40 		.word	1074774212
 4475 0138 10410050 		.word	1342193936
 4476 013c 30410050 		.word	1342193968
 4477 0140 50410050 		.word	1342194000
 4478 0144 70410050 		.word	1342194032
 4479 0148 90410050 		.word	1342194064
 4480 014c B0410050 		.word	1342194096
 4481 0150 D0410050 		.word	1342194128
 4482 0154 F0410050 		.word	1342194160
 4483 0158 08400050 		.word	1342193672
 4484 015c 10400050 		.word	1342193680
 4485 0160 30400050 		.word	1342193712
 4486 0164 00000000 		.word	le_dma_lli
 4487 0168 08000340 		.word	1073938440
 4488 016c 00000000 		.word	rxbuf1
 4489 0170 04100088 		.word	-2013261820
 4490 0174 00410050 		.word	1342193920
 4491 0178 04410050 		.word	1342193924
 4492 017c 08410050 		.word	1342193928
 4493 0180 0C410050 		.word	1342193932
 4494 0184 00000000 		.word	clkn
 4495 0188 00000000 		.word	active_buf_clkn_high
 4496 018c 08400040 		.word	1073758216
 4497 0190 00000000 		.word	active_buf_clk100ns
 4498 0194 00000000 		.word	channel
 4499 0198 00000000 		.word	active_buf_channel
 4500 019c 00000000 		.word	rx_tc
 4501 01a0 00000000 		.word	rx_err
 4502              		.cfi_endproc
 4503              	.LFE15:
 4505              		.section	.text.bt_stream_dma_handler,"ax",%progbits
 4506              		.align	2
 4507              		.global	bt_stream_dma_handler
 4508              		.thumb
 4509              		.thumb_func
 4511              	bt_stream_dma_handler:
 4512              	.LFB16:
1068:bluetooth_rxtx.c **** 
1069:bluetooth_rxtx.c **** void bt_stream_dma_handler(void) {
 4513              		.loc 1 1069 0
 4514              		.cfi_startproc
 4515              		@ args = 0, pretend = 0, frame = 0
 4516              		@ frame_needed = 1, uses_anonymous_args = 0
 4517              		@ link register save eliminated.
 4518 0000 80B4     		push	{r7}
 4519              		.cfi_def_cfa_offset 4
 4520              		.cfi_offset 7, -4
 4521 0002 00AF     		add	r7, sp, #0
 4522              		.cfi_def_cfa_register 7
1070:bluetooth_rxtx.c **** 	idle_buf_clkn_high = active_buf_clkn_high;
 4523              		.loc 1 1070 0
 4524 0004 254B     		ldr	r3, .L196
 4525 0006 1B68     		ldr	r3, [r3]
 4526 0008 254A     		ldr	r2, .L196+4
ARM GAS  /tmp/ccXEAChk.s 			page 98


 4527 000a 1360     		str	r3, [r2]
1071:bluetooth_rxtx.c **** 	active_buf_clkn_high = (clkn >> 20) & 0xff;
 4528              		.loc 1 1071 0
 4529 000c 254B     		ldr	r3, .L196+8
 4530 000e 1B68     		ldr	r3, [r3]
 4531 0010 1B0D     		lsrs	r3, r3, #20
 4532 0012 DBB2     		uxtb	r3, r3
 4533 0014 214A     		ldr	r2, .L196
 4534 0016 1360     		str	r3, [r2]
1072:bluetooth_rxtx.c **** 
1073:bluetooth_rxtx.c **** 	idle_buf_clk100ns = active_buf_clk100ns;
 4535              		.loc 1 1073 0
 4536 0018 234B     		ldr	r3, .L196+12
 4537 001a 1B68     		ldr	r3, [r3]
 4538 001c 234A     		ldr	r2, .L196+16
 4539 001e 1360     		str	r3, [r2]
1074:bluetooth_rxtx.c **** 	active_buf_clk100ns = CLK100NS;
 4540              		.loc 1 1074 0
 4541 0020 204B     		ldr	r3, .L196+8
 4542 0022 1B68     		ldr	r3, [r3]
 4543 0024 C3F31303 		ubfx	r3, r3, #0, #20
 4544 0028 40F63542 		movw	r2, #3125
 4545 002c 02FB03F2 		mul	r2, r2, r3
 4546 0030 1F4B     		ldr	r3, .L196+20
 4547 0032 1B68     		ldr	r3, [r3]
 4548 0034 1344     		add	r3, r3, r2
 4549 0036 1C4A     		ldr	r2, .L196+12
 4550 0038 1360     		str	r3, [r2]
1075:bluetooth_rxtx.c **** 
1076:bluetooth_rxtx.c **** 	idle_buf_channel = active_buf_channel;
 4551              		.loc 1 1076 0
 4552 003a 1E4B     		ldr	r3, .L196+24
 4553 003c 1B88     		ldrh	r3, [r3]	@ movhi
 4554 003e 9AB2     		uxth	r2, r3
 4555 0040 1D4B     		ldr	r3, .L196+28
 4556 0042 1A80     		strh	r2, [r3]	@ movhi
1077:bluetooth_rxtx.c **** 	active_buf_channel = channel;
 4557              		.loc 1 1077 0
 4558 0044 1D4B     		ldr	r3, .L196+32
 4559 0046 1B88     		ldrh	r3, [r3]	@ movhi
 4560 0048 9AB2     		uxth	r2, r3
 4561 004a 1A4B     		ldr	r3, .L196+24
 4562 004c 1A80     		strh	r2, [r3]	@ movhi
1078:bluetooth_rxtx.c **** 
1079:bluetooth_rxtx.c **** 	/* interrupt on channel 0 */
1080:bluetooth_rxtx.c **** 	if (DMACIntStat & (1 << 0)) {
 4563              		.loc 1 1080 0
 4564 004e 1C4B     		ldr	r3, .L196+36
 4565 0050 1B68     		ldr	r3, [r3]
 4566 0052 03F00103 		and	r3, r3, #1
 4567 0056 002B     		cmp	r3, #0
 4568 0058 1BD0     		beq	.L193
1081:bluetooth_rxtx.c **** 		if (DMACIntTCStat & (1 << 0)) {
 4569              		.loc 1 1081 0
 4570 005a 1A4B     		ldr	r3, .L196+40
 4571 005c 1B68     		ldr	r3, [r3]
 4572 005e 03F00103 		and	r3, r3, #1
ARM GAS  /tmp/ccXEAChk.s 			page 99


 4573 0062 002B     		cmp	r3, #0
 4574 0064 07D0     		beq	.L195
1082:bluetooth_rxtx.c **** 			DMACIntTCClear = (1 << 0);
 4575              		.loc 1 1082 0
 4576 0066 184B     		ldr	r3, .L196+44
 4577 0068 0122     		movs	r2, #1
 4578 006a 1A60     		str	r2, [r3]
1083:bluetooth_rxtx.c **** 			++rx_tc;
 4579              		.loc 1 1083 0
 4580 006c 174B     		ldr	r3, .L196+48
 4581 006e 1B68     		ldr	r3, [r3]
 4582 0070 0133     		adds	r3, r3, #1
 4583 0072 164A     		ldr	r2, .L196+48
 4584 0074 1360     		str	r3, [r2]
 4585              	.L195:
1084:bluetooth_rxtx.c **** 		}
1085:bluetooth_rxtx.c **** 		if (DMACIntErrStat & (1 << 0)) {
 4586              		.loc 1 1085 0
 4587 0076 164B     		ldr	r3, .L196+52
 4588 0078 1B68     		ldr	r3, [r3]
 4589 007a 03F00103 		and	r3, r3, #1
 4590 007e 002B     		cmp	r3, #0
 4591 0080 07D0     		beq	.L193
1086:bluetooth_rxtx.c **** 			DMACIntErrClr = (1 << 0);
 4592              		.loc 1 1086 0
 4593 0082 144B     		ldr	r3, .L196+56
 4594 0084 0122     		movs	r2, #1
 4595 0086 1A60     		str	r2, [r3]
1087:bluetooth_rxtx.c **** 			++rx_err;
 4596              		.loc 1 1087 0
 4597 0088 134B     		ldr	r3, .L196+60
 4598 008a 1B68     		ldr	r3, [r3]
 4599 008c 0133     		adds	r3, r3, #1
 4600 008e 124A     		ldr	r2, .L196+60
 4601 0090 1360     		str	r3, [r2]
 4602              	.L193:
1088:bluetooth_rxtx.c **** 		}
1089:bluetooth_rxtx.c **** 	}
1090:bluetooth_rxtx.c **** }
 4603              		.loc 1 1090 0
 4604 0092 BD46     		mov	sp, r7
 4605              		.cfi_def_cfa_register 13
 4606              		@ sp needed
 4607 0094 5DF8047B 		ldr	r7, [sp], #4
 4608              		.cfi_restore 7
 4609              		.cfi_def_cfa_offset 0
 4610 0098 7047     		bx	lr
 4611              	.L197:
 4612 009a 00BF     		.align	2
 4613              	.L196:
 4614 009c 00000000 		.word	active_buf_clkn_high
 4615 00a0 00000000 		.word	idle_buf_clkn_high
 4616 00a4 00000000 		.word	clkn
 4617 00a8 00000000 		.word	active_buf_clk100ns
 4618 00ac 00000000 		.word	idle_buf_clk100ns
 4619 00b0 08400040 		.word	1073758216
 4620 00b4 00000000 		.word	active_buf_channel
ARM GAS  /tmp/ccXEAChk.s 			page 100


 4621 00b8 00000000 		.word	idle_buf_channel
 4622 00bc 00000000 		.word	channel
 4623 00c0 00400050 		.word	1342193664
 4624 00c4 04400050 		.word	1342193668
 4625 00c8 08400050 		.word	1342193672
 4626 00cc 00000000 		.word	rx_tc
 4627 00d0 0C400050 		.word	1342193676
 4628 00d4 10400050 		.word	1342193680
 4629 00d8 00000000 		.word	rx_err
 4630              		.cfi_endproc
 4631              	.LFE16:
 4633              		.section	.text.DMA_IRQHandler,"ax",%progbits
 4634              		.align	2
 4635              		.global	DMA_IRQHandler
 4636              		.thumb
 4637              		.thumb_func
 4639              	DMA_IRQHandler:
 4640              	.LFB17:
1091:bluetooth_rxtx.c **** 
1092:bluetooth_rxtx.c **** void DMA_IRQHandler()
1093:bluetooth_rxtx.c **** {
 4641              		.loc 1 1093 0
 4642              		.cfi_startproc
 4643              		@ args = 0, pretend = 0, frame = 0
 4644              		@ frame_needed = 1, uses_anonymous_args = 0
 4645 0000 80B5     		push	{r7, lr}
 4646              		.cfi_def_cfa_offset 8
 4647              		.cfi_offset 7, -8
 4648              		.cfi_offset 14, -4
 4649 0002 00AF     		add	r7, sp, #0
 4650              		.cfi_def_cfa_register 7
1094:bluetooth_rxtx.c **** 	switch (mode) {
 4651              		.loc 1 1094 0
 4652 0004 124B     		ldr	r3, .L202
 4653 0006 1B78     		ldrb	r3, [r3]
 4654 0008 DBB2     		uxtb	r3, r3
 4655 000a 013B     		subs	r3, r3, #1
 4656 000c 0B2B     		cmp	r3, #11
 4657 000e 1ED8     		bhi	.L198
 4658 0010 01A2     		adr	r2, .L201
 4659 0012 52F823F0 		ldr	pc, [r2, r3, lsl #2]
 4660 0016 00BF     		.p2align 2
 4661              	.L201:
 4662 0018 49000000 		.word	.L200+1
 4663 001c 4F000000 		.word	.L198+1
 4664 0020 4F000000 		.word	.L198+1
 4665 0024 49000000 		.word	.L200+1
 4666 0028 4F000000 		.word	.L198+1
 4667 002c 4F000000 		.word	.L198+1
 4668 0030 4F000000 		.word	.L198+1
 4669 0034 49000000 		.word	.L200+1
 4670 0038 49000000 		.word	.L200+1
 4671 003c 49000000 		.word	.L200+1
 4672 0040 4F000000 		.word	.L198+1
 4673 0044 49000000 		.word	.L200+1
 4674              		.p2align 1
 4675              	.L200:
ARM GAS  /tmp/ccXEAChk.s 			page 101


1095:bluetooth_rxtx.c **** 		case MODE_RX_SYMBOLS:
1096:bluetooth_rxtx.c **** 		case MODE_SPECAN:
1097:bluetooth_rxtx.c **** 		case MODE_BT_FOLLOW:
1098:bluetooth_rxtx.c **** 		case MODE_BT_FOLLOW_LE:
1099:bluetooth_rxtx.c **** 		case MODE_BT_PROMISC_LE:
1100:bluetooth_rxtx.c **** 		case MODE_BT_SLAVE_LE:
1101:bluetooth_rxtx.c **** 			bt_stream_dma_handler();
 4676              		.loc 1 1101 0
 4677 0048 FFF7FEFF 		bl	bt_stream_dma_handler
1102:bluetooth_rxtx.c **** 			break;
 4678              		.loc 1 1102 0
 4679 004c 00BF     		nop
 4680              	.L198:
1103:bluetooth_rxtx.c **** 	}
1104:bluetooth_rxtx.c **** }
 4681              		.loc 1 1104 0
 4682 004e 80BD     		pop	{r7, pc}
 4683              	.L203:
 4684              		.align	2
 4685              	.L202:
 4686 0050 00000000 		.word	mode
 4687              		.cfi_endproc
 4688              	.LFE17:
 4690              		.section	.text.dio_ssp_start,"ax",%progbits
 4691              		.align	2
 4692              		.thumb
 4693              		.thumb_func
 4695              	dio_ssp_start:
 4696              	.LFB18:
1105:bluetooth_rxtx.c **** 
1106:bluetooth_rxtx.c **** static void dio_ssp_start()
1107:bluetooth_rxtx.c **** {
 4697              		.loc 1 1107 0
 4698              		.cfi_startproc
 4699              		@ args = 0, pretend = 0, frame = 0
 4700              		@ frame_needed = 1, uses_anonymous_args = 0
 4701              		@ link register save eliminated.
 4702 0000 80B4     		push	{r7}
 4703              		.cfi_def_cfa_offset 4
 4704              		.cfi_offset 7, -4
 4705 0002 00AF     		add	r7, sp, #0
 4706              		.cfi_def_cfa_register 7
1108:bluetooth_rxtx.c **** 	/* make sure the (active low) slave select signal is not active */
1109:bluetooth_rxtx.c **** 	DIO_SSEL_SET;
 4707              		.loc 1 1109 0
 4708 0004 104B     		ldr	r3, .L205
 4709 0006 4FF08052 		mov	r2, #268435456
 4710 000a 1A60     		str	r2, [r3]
1110:bluetooth_rxtx.c **** 
1111:bluetooth_rxtx.c **** 	/* enable rx DMA on DIO_SSP */
1112:bluetooth_rxtx.c **** 	DIO_SSP_DMACR |= SSPDMACR_RXDMAE;
 4711              		.loc 1 1112 0
 4712 000c 0F4A     		ldr	r2, .L205+4
 4713 000e 0F4B     		ldr	r3, .L205+4
 4714 0010 1B68     		ldr	r3, [r3]
 4715 0012 43F00103 		orr	r3, r3, #1
 4716 0016 1360     		str	r3, [r2]
ARM GAS  /tmp/ccXEAChk.s 			page 102


1113:bluetooth_rxtx.c **** 	DIO_SSP_CR1 |= SSPCR1_SSE;
 4717              		.loc 1 1113 0
 4718 0018 0D4A     		ldr	r2, .L205+8
 4719 001a 0D4B     		ldr	r3, .L205+8
 4720 001c 1B68     		ldr	r3, [r3]
 4721 001e 43F00203 		orr	r3, r3, #2
 4722 0022 1360     		str	r3, [r2]
1114:bluetooth_rxtx.c **** 	
1115:bluetooth_rxtx.c **** 	/* enable DMA */
1116:bluetooth_rxtx.c **** 	DMACC0Config |= DMACCxConfig_E;
 4723              		.loc 1 1116 0
 4724 0024 0B4A     		ldr	r2, .L205+12
 4725 0026 0B4B     		ldr	r3, .L205+12
 4726 0028 1B68     		ldr	r3, [r3]
 4727 002a 43F00103 		orr	r3, r3, #1
 4728 002e 1360     		str	r3, [r2]
1117:bluetooth_rxtx.c **** 	ISER0 = ISER0_ISE_DMA;
 4729              		.loc 1 1117 0
 4730 0030 094B     		ldr	r3, .L205+16
 4731 0032 4FF08062 		mov	r2, #67108864
 4732 0036 1A60     		str	r2, [r3]
1118:bluetooth_rxtx.c **** 
1119:bluetooth_rxtx.c **** 	/* activate slave select pin */
1120:bluetooth_rxtx.c **** 	DIO_SSEL_CLR;
 4733              		.loc 1 1120 0
 4734 0038 084B     		ldr	r3, .L205+20
 4735 003a 4FF08052 		mov	r2, #268435456
 4736 003e 1A60     		str	r2, [r3]
1121:bluetooth_rxtx.c **** }
 4737              		.loc 1 1121 0
 4738 0040 BD46     		mov	sp, r7
 4739              		.cfi_def_cfa_register 13
 4740              		@ sp needed
 4741 0042 5DF8047B 		ldr	r7, [sp], #4
 4742              		.cfi_restore 7
 4743              		.cfi_def_cfa_offset 0
 4744 0046 7047     		bx	lr
 4745              	.L206:
 4746              		.align	2
 4747              	.L205:
 4748 0048 98C00920 		.word	537510040
 4749 004c 24000340 		.word	1073938468
 4750 0050 04000340 		.word	1073938436
 4751 0054 10410050 		.word	1342193936
 4752 0058 00E100E0 		.word	-536813312
 4753 005c 9CC00920 		.word	537510044
 4754              		.cfi_endproc
 4755              	.LFE18:
 4757              		.section	.text.dio_ssp_stop,"ax",%progbits
 4758              		.align	2
 4759              		.thumb
 4760              		.thumb_func
 4762              	dio_ssp_stop:
 4763              	.LFB19:
1122:bluetooth_rxtx.c **** 
1123:bluetooth_rxtx.c **** static void dio_ssp_stop()
1124:bluetooth_rxtx.c **** {
ARM GAS  /tmp/ccXEAChk.s 			page 103


 4764              		.loc 1 1124 0
 4765              		.cfi_startproc
 4766              		@ args = 0, pretend = 0, frame = 0
 4767              		@ frame_needed = 1, uses_anonymous_args = 0
 4768              		@ link register save eliminated.
 4769 0000 80B4     		push	{r7}
 4770              		.cfi_def_cfa_offset 4
 4771              		.cfi_offset 7, -4
 4772 0002 00AF     		add	r7, sp, #0
 4773              		.cfi_def_cfa_register 7
1125:bluetooth_rxtx.c **** 	// disable CC2400's output (active low)
1126:bluetooth_rxtx.c **** 	DIO_SSEL_SET;
 4774              		.loc 1 1126 0
 4775 0004 214B     		ldr	r3, .L209
 4776 0006 4FF08052 		mov	r2, #268435456
 4777 000a 1A60     		str	r2, [r3]
1127:bluetooth_rxtx.c **** 
1128:bluetooth_rxtx.c **** 	// disable DMA on SSP; disable SSP
1129:bluetooth_rxtx.c **** 	DIO_SSP_DMACR &= ~SSPDMACR_RXDMAE;
 4778              		.loc 1 1129 0
 4779 000c 204A     		ldr	r2, .L209+4
 4780 000e 204B     		ldr	r3, .L209+4
 4781 0010 1B68     		ldr	r3, [r3]
 4782 0012 23F00103 		bic	r3, r3, #1
 4783 0016 1360     		str	r3, [r2]
1130:bluetooth_rxtx.c **** 	DIO_SSP_CR1 &= ~SSPCR1_SSE;
 4784              		.loc 1 1130 0
 4785 0018 1E4A     		ldr	r2, .L209+8
 4786 001a 1E4B     		ldr	r3, .L209+8
 4787 001c 1B68     		ldr	r3, [r3]
 4788 001e 23F00203 		bic	r3, r3, #2
 4789 0022 1360     		str	r3, [r2]
1131:bluetooth_rxtx.c **** 
1132:bluetooth_rxtx.c **** 
1133:bluetooth_rxtx.c **** 	// disable DMA engine:
1134:bluetooth_rxtx.c **** 	// refer to UM10360 LPC17xx User Manual Ch 31 Sec 31.6.1, PDF page 607
1135:bluetooth_rxtx.c **** 
1136:bluetooth_rxtx.c **** 	// disable DMA interrupts
1137:bluetooth_rxtx.c **** 	ICER0 = ICER0_ICE_DMA;
 4790              		.loc 1 1137 0
 4791 0024 1C4B     		ldr	r3, .L209+12
 4792 0026 4FF08062 		mov	r2, #67108864
 4793 002a 1A60     		str	r2, [r3]
1138:bluetooth_rxtx.c **** 
1139:bluetooth_rxtx.c **** 	// disable active channels
1140:bluetooth_rxtx.c **** 	DMACC0Config = 0;
 4794              		.loc 1 1140 0
 4795 002c 1B4B     		ldr	r3, .L209+16
 4796 002e 0022     		movs	r2, #0
 4797 0030 1A60     		str	r2, [r3]
1141:bluetooth_rxtx.c **** 	DMACC1Config = 0;
 4798              		.loc 1 1141 0
 4799 0032 1B4B     		ldr	r3, .L209+20
 4800 0034 0022     		movs	r2, #0
 4801 0036 1A60     		str	r2, [r3]
1142:bluetooth_rxtx.c **** 	DMACC2Config = 0;
 4802              		.loc 1 1142 0
ARM GAS  /tmp/ccXEAChk.s 			page 104


 4803 0038 1A4B     		ldr	r3, .L209+24
 4804 003a 0022     		movs	r2, #0
 4805 003c 1A60     		str	r2, [r3]
1143:bluetooth_rxtx.c **** 	DMACC3Config = 0;
 4806              		.loc 1 1143 0
 4807 003e 1A4B     		ldr	r3, .L209+28
 4808 0040 0022     		movs	r2, #0
 4809 0042 1A60     		str	r2, [r3]
1144:bluetooth_rxtx.c **** 	DMACC4Config = 0;
 4810              		.loc 1 1144 0
 4811 0044 194B     		ldr	r3, .L209+32
 4812 0046 0022     		movs	r2, #0
 4813 0048 1A60     		str	r2, [r3]
1145:bluetooth_rxtx.c **** 	DMACC5Config = 0;
 4814              		.loc 1 1145 0
 4815 004a 194B     		ldr	r3, .L209+36
 4816 004c 0022     		movs	r2, #0
 4817 004e 1A60     		str	r2, [r3]
1146:bluetooth_rxtx.c **** 	DMACC6Config = 0;
 4818              		.loc 1 1146 0
 4819 0050 184B     		ldr	r3, .L209+40
 4820 0052 0022     		movs	r2, #0
 4821 0054 1A60     		str	r2, [r3]
1147:bluetooth_rxtx.c **** 	DMACC7Config = 0;
 4822              		.loc 1 1147 0
 4823 0056 184B     		ldr	r3, .L209+44
 4824 0058 0022     		movs	r2, #0
 4825 005a 1A60     		str	r2, [r3]
1148:bluetooth_rxtx.c **** 	DMACIntTCClear = 0xFF;
 4826              		.loc 1 1148 0
 4827 005c 174B     		ldr	r3, .L209+48
 4828 005e FF22     		movs	r2, #255
 4829 0060 1A60     		str	r2, [r3]
1149:bluetooth_rxtx.c **** 	DMACIntErrClr = 0xFF;
 4830              		.loc 1 1149 0
 4831 0062 174B     		ldr	r3, .L209+52
 4832 0064 FF22     		movs	r2, #255
 4833 0066 1A60     		str	r2, [r3]
1150:bluetooth_rxtx.c **** 
1151:bluetooth_rxtx.c **** 	// Disable the DMA controller by writing 0 to the DMA Enable bit in the DMACConfig
1152:bluetooth_rxtx.c **** 	// register.
1153:bluetooth_rxtx.c **** 	DMACConfig &= ~DMACConfig_E;
 4834              		.loc 1 1153 0
 4835 0068 164A     		ldr	r2, .L209+56
 4836 006a 164B     		ldr	r3, .L209+56
 4837 006c 1B68     		ldr	r3, [r3]
 4838 006e 23F00103 		bic	r3, r3, #1
 4839 0072 1360     		str	r3, [r2]
1154:bluetooth_rxtx.c **** 	while (DMACConfig & DMACConfig_E);
 4840              		.loc 1 1154 0
 4841 0074 00BF     		nop
 4842              	.L208:
 4843              		.loc 1 1154 0 is_stmt 0 discriminator 1
 4844 0076 134B     		ldr	r3, .L209+56
 4845 0078 1B68     		ldr	r3, [r3]
 4846 007a 03F00103 		and	r3, r3, #1
 4847 007e 002B     		cmp	r3, #0
ARM GAS  /tmp/ccXEAChk.s 			page 105


 4848 0080 F9D1     		bne	.L208
1155:bluetooth_rxtx.c **** }
 4849              		.loc 1 1155 0 is_stmt 1
 4850 0082 BD46     		mov	sp, r7
 4851              		.cfi_def_cfa_register 13
 4852              		@ sp needed
 4853 0084 5DF8047B 		ldr	r7, [sp], #4
 4854              		.cfi_restore 7
 4855              		.cfi_def_cfa_offset 0
 4856 0088 7047     		bx	lr
 4857              	.L210:
 4858 008a 00BF     		.align	2
 4859              	.L209:
 4860 008c 98C00920 		.word	537510040
 4861 0090 24000340 		.word	1073938468
 4862 0094 04000340 		.word	1073938436
 4863 0098 80E100E0 		.word	-536813184
 4864 009c 10410050 		.word	1342193936
 4865 00a0 30410050 		.word	1342193968
 4866 00a4 50410050 		.word	1342194000
 4867 00a8 70410050 		.word	1342194032
 4868 00ac 90410050 		.word	1342194064
 4869 00b0 B0410050 		.word	1342194096
 4870 00b4 D0410050 		.word	1342194128
 4871 00b8 F0410050 		.word	1342194160
 4872 00bc 08400050 		.word	1342193672
 4873 00c0 10400050 		.word	1342193680
 4874 00c4 30400050 		.word	1342193712
 4875              		.cfi_endproc
 4876              	.LFE19:
 4878              		.section	.text.cc2400_idle,"ax",%progbits
 4879              		.align	2
 4880              		.thumb
 4881              		.thumb_func
 4883              	cc2400_idle:
 4884              	.LFB20:
1156:bluetooth_rxtx.c **** 
1157:bluetooth_rxtx.c **** static void cc2400_idle()
1158:bluetooth_rxtx.c **** {
 4885              		.loc 1 1158 0
 4886              		.cfi_startproc
 4887              		@ args = 0, pretend = 0, frame = 0
 4888              		@ frame_needed = 1, uses_anonymous_args = 0
 4889 0000 80B5     		push	{r7, lr}
 4890              		.cfi_def_cfa_offset 8
 4891              		.cfi_offset 7, -8
 4892              		.cfi_offset 14, -4
 4893 0002 00AF     		add	r7, sp, #0
 4894              		.cfi_def_cfa_register 7
1159:bluetooth_rxtx.c **** 	cc2400_strobe(SRFOFF);
 4895              		.loc 1 1159 0
 4896 0004 6420     		movs	r0, #100
 4897 0006 FFF7FEFF 		bl	cc2400_strobe
1160:bluetooth_rxtx.c **** 	while ((cc2400_status() & FS_LOCK)); // need to wait for unlock?
 4898              		.loc 1 1160 0
 4899 000a 00BF     		nop
 4900              	.L212:
ARM GAS  /tmp/ccXEAChk.s 			page 106


 4901              		.loc 1 1160 0 is_stmt 0 discriminator 1
 4902 000c FFF7FEFF 		bl	cc2400_status
 4903 0010 0346     		mov	r3, r0
 4904 0012 03F00403 		and	r3, r3, #4
 4905 0016 002B     		cmp	r3, #0
 4906 0018 F8D1     		bne	.L212
1161:bluetooth_rxtx.c **** 
1162:bluetooth_rxtx.c **** #ifdef UBERTOOTH_ONE
1163:bluetooth_rxtx.c **** 	PAEN_CLR;
 4907              		.loc 1 1163 0 is_stmt 1
 4908 001a 0A4B     		ldr	r3, .L213
 4909 001c 8022     		movs	r2, #128
 4910 001e 1A60     		str	r2, [r3]
1164:bluetooth_rxtx.c **** 	HGM_CLR;
 4911              		.loc 1 1164 0
 4912 0020 084B     		ldr	r3, .L213
 4913 0022 4FF48072 		mov	r2, #256
 4914 0026 1A60     		str	r2, [r3]
1165:bluetooth_rxtx.c **** #endif
1166:bluetooth_rxtx.c **** 
1167:bluetooth_rxtx.c **** 	RXLED_CLR;
 4915              		.loc 1 1167 0
 4916 0028 074B     		ldr	r3, .L213+4
 4917 002a 1022     		movs	r2, #16
 4918 002c 1A60     		str	r2, [r3]
1168:bluetooth_rxtx.c **** 	TXLED_CLR;
 4919              		.loc 1 1168 0
 4920 002e 064B     		ldr	r3, .L213+4
 4921 0030 4FF48072 		mov	r2, #256
 4922 0034 1A60     		str	r2, [r3]
1169:bluetooth_rxtx.c **** 	USRLED_CLR;
 4923              		.loc 1 1169 0
 4924 0036 044B     		ldr	r3, .L213+4
 4925 0038 0222     		movs	r2, #2
 4926 003a 1A60     		str	r2, [r3]
1170:bluetooth_rxtx.c **** 	mode = MODE_IDLE;
 4927              		.loc 1 1170 0
 4928 003c 034B     		ldr	r3, .L213+8
 4929 003e 0022     		movs	r2, #0
 4930 0040 1A70     		strb	r2, [r3]
1171:bluetooth_rxtx.c **** }
 4931              		.loc 1 1171 0
 4932 0042 80BD     		pop	{r7, pc}
 4933              	.L214:
 4934              		.align	2
 4935              	.L213:
 4936 0044 5CC00920 		.word	537509980
 4937 0048 3CC00920 		.word	537509948
 4938 004c 00000000 		.word	mode
 4939              		.cfi_endproc
 4940              	.LFE20:
 4942              		.section	.text.cc2400_rx,"ax",%progbits
 4943              		.align	2
 4944              		.thumb
 4945              		.thumb_func
 4947              	cc2400_rx:
 4948              	.LFB21:
ARM GAS  /tmp/ccXEAChk.s 			page 107


1172:bluetooth_rxtx.c **** 
1173:bluetooth_rxtx.c **** /* start un-buffered rx */
1174:bluetooth_rxtx.c **** static void cc2400_rx()
1175:bluetooth_rxtx.c **** {
 4949              		.loc 1 1175 0
 4950              		.cfi_startproc
 4951              		@ args = 0, pretend = 0, frame = 8
 4952              		@ frame_needed = 1, uses_anonymous_args = 0
 4953 0000 80B5     		push	{r7, lr}
 4954              		.cfi_def_cfa_offset 8
 4955              		.cfi_offset 7, -8
 4956              		.cfi_offset 14, -4
 4957 0002 82B0     		sub	sp, sp, #8
 4958              		.cfi_def_cfa_offset 16
 4959 0004 00AF     		add	r7, sp, #0
 4960              		.cfi_def_cfa_register 7
1176:bluetooth_rxtx.c **** 	u16 mdmctrl;
1177:bluetooth_rxtx.c **** 	if (modulation == MOD_BT_BASIC_RATE) {
 4961              		.loc 1 1177 0
 4962 0006 2A4B     		ldr	r3, .L222
 4963 0008 1B78     		ldrb	r3, [r3]
 4964 000a DBB2     		uxtb	r3, r3
 4965 000c 002B     		cmp	r3, #0
 4966 000e 02D1     		bne	.L216
1178:bluetooth_rxtx.c **** 		mdmctrl = 0x0029; // 160 kHz frequency deviation
 4967              		.loc 1 1178 0
 4968 0010 2923     		movs	r3, #41
 4969 0012 FB80     		strh	r3, [r7, #6]	@ movhi
 4970 0014 08E0     		b	.L217
 4971              	.L216:
1179:bluetooth_rxtx.c **** 	} else if (modulation == MOD_BT_LOW_ENERGY) {
 4972              		.loc 1 1179 0
 4973 0016 264B     		ldr	r3, .L222
 4974 0018 1B78     		ldrb	r3, [r3]
 4975 001a DBB2     		uxtb	r3, r3
 4976 001c 012B     		cmp	r3, #1
 4977 001e 02D1     		bne	.L218
1180:bluetooth_rxtx.c **** 		mdmctrl = 0x0040; // 250 kHz frequency deviation
 4978              		.loc 1 1180 0
 4979 0020 4023     		movs	r3, #64
 4980 0022 FB80     		strh	r3, [r7, #6]	@ movhi
 4981 0024 00E0     		b	.L217
 4982              	.L218:
1181:bluetooth_rxtx.c **** 	} else {
1182:bluetooth_rxtx.c **** 		/* oops */
1183:bluetooth_rxtx.c **** 		return;
 4983              		.loc 1 1183 0
 4984 0026 40E0     		b	.L215
 4985              	.L217:
1184:bluetooth_rxtx.c **** 	}
1185:bluetooth_rxtx.c **** 
1186:bluetooth_rxtx.c **** 	cc2400_set(MANAND,  0x7fff);
 4986              		.loc 1 1186 0
 4987 0028 0D20     		movs	r0, #13
 4988 002a 47F6FF71 		movw	r1, #32767
 4989 002e FFF7FEFF 		bl	cc2400_set
1187:bluetooth_rxtx.c **** 	cc2400_set(LMTST,   0x2b22);
ARM GAS  /tmp/ccXEAChk.s 			page 108


 4990              		.loc 1 1187 0
 4991 0032 1220     		movs	r0, #18
 4992 0034 42F62231 		movw	r1, #11042
 4993 0038 FFF7FEFF 		bl	cc2400_set
1188:bluetooth_rxtx.c **** 	cc2400_set(MDMTST0, 0x134b); // without PRNG
 4994              		.loc 1 1188 0
 4995 003c 1420     		movs	r0, #20
 4996 003e 41F24B31 		movw	r1, #4939
 4997 0042 FFF7FEFF 		bl	cc2400_set
1189:bluetooth_rxtx.c **** 	cc2400_set(GRMDM,   0x0101); // un-buffered mode, GFSK
 4998              		.loc 1 1189 0
 4999 0046 2020     		movs	r0, #32
 5000 0048 40F20111 		movw	r1, #257
 5001 004c FFF7FEFF 		bl	cc2400_set
1190:bluetooth_rxtx.c **** 	// 0 00 00 0 010 00 0 00 0 1
1191:bluetooth_rxtx.c **** 	//      |  | |   |  +--------> CRC off
1192:bluetooth_rxtx.c **** 	//      |  | |   +-----------> sync word: 8 MSB bits of SYNC_WORD
1193:bluetooth_rxtx.c **** 	//      |  | +---------------> 2 preamble bytes of 01010101
1194:bluetooth_rxtx.c **** 	//      |  +-----------------> not packet mode
1195:bluetooth_rxtx.c **** 	//      +--------------------> un-buffered mode
1196:bluetooth_rxtx.c **** 	cc2400_set(FSDIV,   channel - 1); // 1 MHz IF
 5002              		.loc 1 1196 0
 5003 0050 184B     		ldr	r3, .L222+4
 5004 0052 1B88     		ldrh	r3, [r3]	@ movhi
 5005 0054 9BB2     		uxth	r3, r3
 5006 0056 013B     		subs	r3, r3, #1
 5007 0058 9BB2     		uxth	r3, r3
 5008 005a 0220     		movs	r0, #2
 5009 005c 1946     		mov	r1, r3
 5010 005e FFF7FEFF 		bl	cc2400_set
1197:bluetooth_rxtx.c **** 	cc2400_set(MDMCTRL, mdmctrl);
 5011              		.loc 1 1197 0
 5012 0062 FB88     		ldrh	r3, [r7, #6]
 5013 0064 0320     		movs	r0, #3
 5014 0066 1946     		mov	r1, r3
 5015 0068 FFF7FEFF 		bl	cc2400_set
1198:bluetooth_rxtx.c **** 
1199:bluetooth_rxtx.c **** 	// Set up CS register
1200:bluetooth_rxtx.c **** 	cs_threshold_calc_and_set();
 5016              		.loc 1 1200 0
 5017 006c FFF7FEFF 		bl	cs_threshold_calc_and_set
1201:bluetooth_rxtx.c **** 
1202:bluetooth_rxtx.c **** 	while (!(cc2400_status() & XOSC16M_STABLE));
 5018              		.loc 1 1202 0
 5019 0070 00BF     		nop
 5020              	.L220:
 5021              		.loc 1 1202 0 is_stmt 0 discriminator 1
 5022 0072 FFF7FEFF 		bl	cc2400_status
 5023 0076 0346     		mov	r3, r0
 5024 0078 03F04003 		and	r3, r3, #64
 5025 007c 002B     		cmp	r3, #0
 5026 007e F8D0     		beq	.L220
1203:bluetooth_rxtx.c **** 	cc2400_strobe(SFSON);
 5027              		.loc 1 1203 0 is_stmt 1
 5028 0080 6120     		movs	r0, #97
 5029 0082 FFF7FEFF 		bl	cc2400_strobe
1204:bluetooth_rxtx.c **** 	while (!(cc2400_status() & FS_LOCK));
ARM GAS  /tmp/ccXEAChk.s 			page 109


 5030              		.loc 1 1204 0
 5031 0086 00BF     		nop
 5032              	.L221:
 5033              		.loc 1 1204 0 is_stmt 0 discriminator 1
 5034 0088 FFF7FEFF 		bl	cc2400_status
 5035 008c 0346     		mov	r3, r0
 5036 008e 03F00403 		and	r3, r3, #4
 5037 0092 002B     		cmp	r3, #0
 5038 0094 F8D0     		beq	.L221
1205:bluetooth_rxtx.c **** 	cc2400_strobe(SRX);
 5039              		.loc 1 1205 0 is_stmt 1
 5040 0096 6220     		movs	r0, #98
 5041 0098 FFF7FEFF 		bl	cc2400_strobe
1206:bluetooth_rxtx.c **** #ifdef UBERTOOTH_ONE
1207:bluetooth_rxtx.c **** 	PAEN_SET;
 5042              		.loc 1 1207 0
 5043 009c 064B     		ldr	r3, .L222+8
 5044 009e 8022     		movs	r2, #128
 5045 00a0 1A60     		str	r2, [r3]
1208:bluetooth_rxtx.c **** 	HGM_SET;
 5046              		.loc 1 1208 0
 5047 00a2 054B     		ldr	r3, .L222+8
 5048 00a4 4FF48072 		mov	r2, #256
 5049 00a8 1A60     		str	r2, [r3]
 5050              	.L215:
1209:bluetooth_rxtx.c **** #endif
1210:bluetooth_rxtx.c **** }
 5051              		.loc 1 1210 0
 5052 00aa 0837     		adds	r7, r7, #8
 5053              		.cfi_def_cfa_offset 8
 5054 00ac BD46     		mov	sp, r7
 5055              		.cfi_def_cfa_register 13
 5056              		@ sp needed
 5057 00ae 80BD     		pop	{r7, pc}
 5058              	.L223:
 5059              		.align	2
 5060              	.L222:
 5061 00b0 00000000 		.word	modulation
 5062 00b4 00000000 		.word	channel
 5063 00b8 58C00920 		.word	537509976
 5064              		.cfi_endproc
 5065              	.LFE21:
 5067              		.section	.text.cc2400_rx_sync,"ax",%progbits
 5068              		.align	2
 5069              		.thumb
 5070              		.thumb_func
 5072              	cc2400_rx_sync:
 5073              	.LFB22:
1211:bluetooth_rxtx.c **** 
1212:bluetooth_rxtx.c **** /* start un-buffered rx */
1213:bluetooth_rxtx.c **** static void cc2400_rx_sync(u32 sync)
1214:bluetooth_rxtx.c **** {
 5074              		.loc 1 1214 0
 5075              		.cfi_startproc
 5076              		@ args = 0, pretend = 0, frame = 16
 5077              		@ frame_needed = 1, uses_anonymous_args = 0
 5078 0000 80B5     		push	{r7, lr}
ARM GAS  /tmp/ccXEAChk.s 			page 110


 5079              		.cfi_def_cfa_offset 8
 5080              		.cfi_offset 7, -8
 5081              		.cfi_offset 14, -4
 5082 0002 84B0     		sub	sp, sp, #16
 5083              		.cfi_def_cfa_offset 24
 5084 0004 00AF     		add	r7, sp, #0
 5085              		.cfi_def_cfa_register 7
 5086 0006 7860     		str	r0, [r7, #4]
1215:bluetooth_rxtx.c **** 	u16 grmdm, mdmctrl;
1216:bluetooth_rxtx.c **** 
1217:bluetooth_rxtx.c **** 	if (modulation == MOD_BT_BASIC_RATE) {
 5087              		.loc 1 1217 0
 5088 0008 334B     		ldr	r3, .L231
 5089 000a 1B78     		ldrb	r3, [r3]
 5090 000c DBB2     		uxtb	r3, r3
 5091 000e 002B     		cmp	r3, #0
 5092 0010 05D1     		bne	.L225
1218:bluetooth_rxtx.c **** 		mdmctrl = 0x0029; // 160 kHz frequency deviation
 5093              		.loc 1 1218 0
 5094 0012 2923     		movs	r3, #41
 5095 0014 BB81     		strh	r3, [r7, #12]	@ movhi
1219:bluetooth_rxtx.c **** 		grmdm = 0x0461; // un-buffered mode, packet w/ sync word detection
 5096              		.loc 1 1219 0
 5097 0016 40F26143 		movw	r3, #1121
 5098 001a FB81     		strh	r3, [r7, #14]	@ movhi
 5099 001c 0BE0     		b	.L226
 5100              	.L225:
1220:bluetooth_rxtx.c **** 		// 0 00 00 1 000 11 0 00 0 1
1221:bluetooth_rxtx.c **** 		//   |  |  | |   |  +--------> CRC off
1222:bluetooth_rxtx.c **** 		//   |  |  | |   +-----------> sync word: 32 MSB bits of SYNC_WORD
1223:bluetooth_rxtx.c **** 		//   |  |  | +---------------> 0 preamble bytes of 01010101
1224:bluetooth_rxtx.c **** 		//   |  |  +-----------------> packet mode
1225:bluetooth_rxtx.c **** 		//   |  +--------------------> un-buffered mode
1226:bluetooth_rxtx.c **** 		//   +-----------------------> sync error bits: 0
1227:bluetooth_rxtx.c **** 
1228:bluetooth_rxtx.c **** 	} else if (modulation == MOD_BT_LOW_ENERGY) {
 5101              		.loc 1 1228 0
 5102 001e 2E4B     		ldr	r3, .L231
 5103 0020 1B78     		ldrb	r3, [r3]
 5104 0022 DBB2     		uxtb	r3, r3
